
kbin/x86_64/debug/r3_kernel:     file format elf64-x86-64


Disassembly of section .text:

00000000002060c0 <_ZN4core3fmt3num49_$LT$impl$u20$core..fmt..Debug$u20$for$u20$u8$GT$3fmt17h330099725b2bdebbE>:
macro_rules! debug {
    ($($T:ident)*) => {$(
        #[stable(feature = "rust1", since = "1.0.0")]
        impl fmt::Debug for $T {
            #[inline]
            fn fmt(&self, f: &mut fmt::Formatter<'_>) -> fmt::Result {
  2060c0:	48 83 ec 38          	sub    $0x38,%rsp
  2060c4:	48 89 74 24 10       	mov    %rsi,0x10(%rsp)
  2060c9:	48 89 f8             	mov    %rdi,%rax
  2060cc:	48 8b 7c 24 10       	mov    0x10(%rsp),%rdi
  2060d1:	48 89 44 24 18       	mov    %rax,0x18(%rsp)
  2060d6:	48 89 44 24 28       	mov    %rax,0x28(%rsp)
  2060db:	48 89 7c 24 30       	mov    %rdi,0x30(%rsp)
                if f.debug_lower_hex() {
  2060e0:	e8 6b f6 02 00       	callq  235750 <_ZN4core3fmt9Formatter15debug_lower_hex17hb64b59229092e7f9E>
  2060e5:	88 44 24 26          	mov    %al,0x26(%rsp)
  2060e9:	8a 44 24 26          	mov    0x26(%rsp),%al
  2060ed:	a8 01                	test   $0x1,%al
  2060ef:	75 12                	jne    206103 <_ZN4core3fmt3num49_$LT$impl$u20$core..fmt..Debug$u20$for$u20$u8$GT$3fmt17h330099725b2bdebbE+0x43>
  2060f1:	eb 00                	jmp    2060f3 <_ZN4core3fmt3num49_$LT$impl$u20$core..fmt..Debug$u20$for$u20$u8$GT$3fmt17h330099725b2bdebbE+0x33>
  2060f3:	48 8b 7c 24 10       	mov    0x10(%rsp),%rdi
                    fmt::LowerHex::fmt(self, f)
                } else if f.debug_upper_hex() {
  2060f8:	e8 63 f6 02 00       	callq  235760 <_ZN4core3fmt9Formatter15debug_upper_hex17h1791008eaa6156e8E>
  2060fd:	88 44 24 0f          	mov    %al,0xf(%rsp)
  206101:	eb 25                	jmp    206128 <_ZN4core3fmt3num49_$LT$impl$u20$core..fmt..Debug$u20$for$u20$u8$GT$3fmt17h330099725b2bdebbE+0x68>
  206103:	48 8b 74 24 10       	mov    0x10(%rsp),%rsi
  206108:	48 8b 7c 24 18       	mov    0x18(%rsp),%rdi
                    fmt::LowerHex::fmt(self, f)
  20610d:	e8 ae c2 02 00       	callq  2323c0 <_ZN4core3fmt3num52_$LT$impl$u20$core..fmt..LowerHex$u20$for$u20$i8$GT$3fmt17h309ef31bc0a937feE>
  206112:	24 01                	and    $0x1,%al
  206114:	88 44 24 27          	mov    %al,0x27(%rsp)
                if f.debug_lower_hex() {
  206118:	eb 00                	jmp    20611a <_ZN4core3fmt3num49_$LT$impl$u20$core..fmt..Debug$u20$for$u20$u8$GT$3fmt17h330099725b2bdebbE+0x5a>
                    fmt::UpperHex::fmt(self, f)
                } else {
                    fmt::Display::fmt(self, f)
                }
            }
  20611a:	8a 44 24 27          	mov    0x27(%rsp),%al
  20611e:	24 01                	and    $0x1,%al
  206120:	0f b6 c0             	movzbl %al,%eax
  206123:	48 83 c4 38          	add    $0x38,%rsp
  206127:	c3                   	retq   
  206128:	8a 44 24 0f          	mov    0xf(%rsp),%al
                } else if f.debug_upper_hex() {
  20612c:	a8 01                	test   $0x1,%al
  20612e:	75 19                	jne    206149 <_ZN4core3fmt3num49_$LT$impl$u20$core..fmt..Debug$u20$for$u20$u8$GT$3fmt17h330099725b2bdebbE+0x89>
  206130:	eb 00                	jmp    206132 <_ZN4core3fmt3num49_$LT$impl$u20$core..fmt..Debug$u20$for$u20$u8$GT$3fmt17h330099725b2bdebbE+0x72>
  206132:	48 8b 74 24 10       	mov    0x10(%rsp),%rsi
  206137:	48 8b 7c 24 18       	mov    0x18(%rsp),%rdi
                    fmt::Display::fmt(self, f)
  20613c:	e8 5f e1 02 00       	callq  2342a0 <_ZN4core3fmt3num3imp51_$LT$impl$u20$core..fmt..Display$u20$for$u20$u8$GT$3fmt17h50098038a0544ce4E>
  206141:	24 01                	and    $0x1,%al
  206143:	88 44 24 27          	mov    %al,0x27(%rsp)
  206147:	eb 19                	jmp    206162 <_ZN4core3fmt3num49_$LT$impl$u20$core..fmt..Debug$u20$for$u20$u8$GT$3fmt17h330099725b2bdebbE+0xa2>
  206149:	48 8b 74 24 10       	mov    0x10(%rsp),%rsi
  20614e:	48 8b 7c 24 18       	mov    0x18(%rsp),%rdi
                    fmt::UpperHex::fmt(self, f)
  206153:	e8 f8 c2 02 00       	callq  232450 <_ZN4core3fmt3num52_$LT$impl$u20$core..fmt..UpperHex$u20$for$u20$i8$GT$3fmt17h9dd59abae2add245E>
  206158:	24 01                	and    $0x1,%al
  20615a:	88 44 24 27          	mov    %al,0x27(%rsp)
                } else if f.debug_upper_hex() {
  20615e:	eb 00                	jmp    206160 <_ZN4core3fmt3num49_$LT$impl$u20$core..fmt..Debug$u20$for$u20$u8$GT$3fmt17h330099725b2bdebbE+0xa0>
                if f.debug_lower_hex() {
  206160:	eb b8                	jmp    20611a <_ZN4core3fmt3num49_$LT$impl$u20$core..fmt..Debug$u20$for$u20$u8$GT$3fmt17h330099725b2bdebbE+0x5a>
                } else if f.debug_upper_hex() {
  206162:	eb fc                	jmp    206160 <_ZN4core3fmt3num49_$LT$impl$u20$core..fmt..Debug$u20$for$u20$u8$GT$3fmt17h330099725b2bdebbE+0xa0>
  206164:	cc                   	int3   
  206165:	cc                   	int3   
  206166:	cc                   	int3   
  206167:	cc                   	int3   
  206168:	cc                   	int3   
  206169:	cc                   	int3   
  20616a:	cc                   	int3   
  20616b:	cc                   	int3   
  20616c:	cc                   	int3   
  20616d:	cc                   	int3   
  20616e:	cc                   	int3   
  20616f:	cc                   	int3   

0000000000206170 <_ZN4core3fmt3num50_$LT$impl$u20$core..fmt..Debug$u20$for$u20$u64$GT$3fmt17h6cebf1fbf756c217E>:
            fn fmt(&self, f: &mut fmt::Formatter<'_>) -> fmt::Result {
  206170:	48 83 ec 38          	sub    $0x38,%rsp
  206174:	48 89 74 24 10       	mov    %rsi,0x10(%rsp)
  206179:	48 89 f8             	mov    %rdi,%rax
  20617c:	48 8b 7c 24 10       	mov    0x10(%rsp),%rdi
  206181:	48 89 44 24 18       	mov    %rax,0x18(%rsp)
  206186:	48 89 44 24 28       	mov    %rax,0x28(%rsp)
  20618b:	48 89 7c 24 30       	mov    %rdi,0x30(%rsp)
                if f.debug_lower_hex() {
  206190:	e8 bb f5 02 00       	callq  235750 <_ZN4core3fmt9Formatter15debug_lower_hex17hb64b59229092e7f9E>
  206195:	88 44 24 26          	mov    %al,0x26(%rsp)
  206199:	8a 44 24 26          	mov    0x26(%rsp),%al
  20619d:	a8 01                	test   $0x1,%al
  20619f:	75 12                	jne    2061b3 <_ZN4core3fmt3num50_$LT$impl$u20$core..fmt..Debug$u20$for$u20$u64$GT$3fmt17h6cebf1fbf756c217E+0x43>
  2061a1:	eb 00                	jmp    2061a3 <_ZN4core3fmt3num50_$LT$impl$u20$core..fmt..Debug$u20$for$u20$u64$GT$3fmt17h6cebf1fbf756c217E+0x33>
  2061a3:	48 8b 7c 24 10       	mov    0x10(%rsp),%rdi
                } else if f.debug_upper_hex() {
  2061a8:	e8 b3 f5 02 00       	callq  235760 <_ZN4core3fmt9Formatter15debug_upper_hex17h1791008eaa6156e8E>
  2061ad:	88 44 24 0f          	mov    %al,0xf(%rsp)
  2061b1:	eb 25                	jmp    2061d8 <_ZN4core3fmt3num50_$LT$impl$u20$core..fmt..Debug$u20$for$u20$u64$GT$3fmt17h6cebf1fbf756c217E+0x68>
  2061b3:	48 8b 74 24 10       	mov    0x10(%rsp),%rsi
  2061b8:	48 8b 7c 24 18       	mov    0x18(%rsp),%rdi
                    fmt::LowerHex::fmt(self, f)
  2061bd:	e8 7e c5 02 00       	callq  232740 <_ZN4core3fmt3num53_$LT$impl$u20$core..fmt..LowerHex$u20$for$u20$i64$GT$3fmt17he8aeedb5ba5b6efdE>
  2061c2:	24 01                	and    $0x1,%al
  2061c4:	88 44 24 27          	mov    %al,0x27(%rsp)
                if f.debug_lower_hex() {
  2061c8:	eb 00                	jmp    2061ca <_ZN4core3fmt3num50_$LT$impl$u20$core..fmt..Debug$u20$for$u20$u64$GT$3fmt17h6cebf1fbf756c217E+0x5a>
            }
  2061ca:	8a 44 24 27          	mov    0x27(%rsp),%al
  2061ce:	24 01                	and    $0x1,%al
  2061d0:	0f b6 c0             	movzbl %al,%eax
  2061d3:	48 83 c4 38          	add    $0x38,%rsp
  2061d7:	c3                   	retq   
  2061d8:	8a 44 24 0f          	mov    0xf(%rsp),%al
                } else if f.debug_upper_hex() {
  2061dc:	a8 01                	test   $0x1,%al
  2061de:	75 19                	jne    2061f9 <_ZN4core3fmt3num50_$LT$impl$u20$core..fmt..Debug$u20$for$u20$u64$GT$3fmt17h6cebf1fbf756c217E+0x89>
  2061e0:	eb 00                	jmp    2061e2 <_ZN4core3fmt3num50_$LT$impl$u20$core..fmt..Debug$u20$for$u20$u64$GT$3fmt17h6cebf1fbf756c217E+0x72>
  2061e2:	48 8b 74 24 10       	mov    0x10(%rsp),%rsi
  2061e7:	48 8b 7c 24 18       	mov    0x18(%rsp),%rdi
                    fmt::Display::fmt(self, f)
  2061ec:	e8 7f e3 02 00       	callq  234570 <_ZN4core3fmt3num3imp52_$LT$impl$u20$core..fmt..Display$u20$for$u20$u64$GT$3fmt17h2d58afab53102206E>
  2061f1:	24 01                	and    $0x1,%al
  2061f3:	88 44 24 27          	mov    %al,0x27(%rsp)
  2061f7:	eb 19                	jmp    206212 <_ZN4core3fmt3num50_$LT$impl$u20$core..fmt..Debug$u20$for$u20$u64$GT$3fmt17h6cebf1fbf756c217E+0xa2>
  2061f9:	48 8b 74 24 10       	mov    0x10(%rsp),%rsi
  2061fe:	48 8b 7c 24 18       	mov    0x18(%rsp),%rdi
                    fmt::UpperHex::fmt(self, f)
  206203:	e8 d8 c5 02 00       	callq  2327e0 <_ZN4core3fmt3num53_$LT$impl$u20$core..fmt..UpperHex$u20$for$u20$i64$GT$3fmt17hf56a3534b31be474E>
  206208:	24 01                	and    $0x1,%al
  20620a:	88 44 24 27          	mov    %al,0x27(%rsp)
                } else if f.debug_upper_hex() {
  20620e:	eb 00                	jmp    206210 <_ZN4core3fmt3num50_$LT$impl$u20$core..fmt..Debug$u20$for$u20$u64$GT$3fmt17h6cebf1fbf756c217E+0xa0>
                if f.debug_lower_hex() {
  206210:	eb b8                	jmp    2061ca <_ZN4core3fmt3num50_$LT$impl$u20$core..fmt..Debug$u20$for$u20$u64$GT$3fmt17h6cebf1fbf756c217E+0x5a>
                } else if f.debug_upper_hex() {
  206212:	eb fc                	jmp    206210 <_ZN4core3fmt3num50_$LT$impl$u20$core..fmt..Debug$u20$for$u20$u64$GT$3fmt17h6cebf1fbf756c217E+0xa0>
  206214:	cc                   	int3   
  206215:	cc                   	int3   
  206216:	cc                   	int3   
  206217:	cc                   	int3   
  206218:	cc                   	int3   
  206219:	cc                   	int3   
  20621a:	cc                   	int3   
  20621b:	cc                   	int3   
  20621c:	cc                   	int3   
  20621d:	cc                   	int3   
  20621e:	cc                   	int3   
  20621f:	cc                   	int3   

0000000000206220 <_ZN45_$LT$$LP$$RP$$u20$as$u20$core..fmt..Debug$GT$3fmt17h3231da5c25fe9b6bE>:
}

#[stable(feature = "rust1", since = "1.0.0")]
impl Debug for () {
    #[inline]
    fn fmt(&self, f: &mut Formatter<'_>) -> Result {
  206220:	48 83 ec 28          	sub    $0x28,%rsp
  206224:	48 89 74 24 08       	mov    %rsi,0x8(%rsp)
  206229:	48 89 f8             	mov    %rdi,%rax
  20622c:	48 8b 7c 24 08       	mov    0x8(%rsp),%rdi
  206231:	48 89 44 24 18       	mov    %rax,0x18(%rsp)
  206236:	48 89 7c 24 20       	mov    %rdi,0x20(%rsp)
        f.pad("()")
  20623b:	48 8d 35 be 9f ff ff 	lea    -0x6042(%rip),%rsi        # 200200 <_ZN9r3_kernel7drivers4uart11UART_DRIVER17h37b5c161e9eaa29dE-0x82>
  206242:	ba 02 00 00 00       	mov    $0x2,%edx
  206247:	e8 54 f1 02 00       	callq  2353a0 <_ZN4core3fmt9Formatter3pad17h321fd0b4088825c8E>
  20624c:	88 44 24 17          	mov    %al,0x17(%rsp)
  206250:	8a 44 24 17          	mov    0x17(%rsp),%al
    }
  206254:	24 01                	and    $0x1,%al
  206256:	0f b6 c0             	movzbl %al,%eax
  206259:	48 83 c4 28          	add    $0x28,%rsp
  20625d:	c3                   	retq   
  20625e:	cc                   	int3   
  20625f:	cc                   	int3   

0000000000206260 <_ZN4core3fmt9Arguments16new_v1_formatted17hb670f841b43f6c4cE>:
    pub const fn new_v1_formatted(
  206260:	48 83 ec 48          	sub    $0x48,%rsp
  206264:	4d 89 ca             	mov    %r9,%r10
  206267:	48 89 f8             	mov    %rdi,%rax
  20626a:	4c 8b 4c 24 50       	mov    0x50(%rsp),%r9
  20626f:	48 89 74 24 10       	mov    %rsi,0x10(%rsp)
  206274:	48 89 54 24 18       	mov    %rdx,0x18(%rsp)
  206279:	48 89 4c 24 20       	mov    %rcx,0x20(%rsp)
  20627e:	4c 89 44 24 28       	mov    %r8,0x28(%rsp)
  206283:	4c 89 54 24 30       	mov    %r10,0x30(%rsp)
  206288:	4c 89 4c 24 38       	mov    %r9,0x38(%rsp)
        Arguments { pieces, fmt: Some(fmt), args }
  20628d:	4c 89 14 24          	mov    %r10,(%rsp)
  206291:	4c 89 4c 24 08       	mov    %r9,0x8(%rsp)
  206296:	48 89 37             	mov    %rsi,(%rdi)
  206299:	48 89 57 08          	mov    %rdx,0x8(%rdi)
  20629d:	48 8b 34 24          	mov    (%rsp),%rsi
  2062a1:	48 8b 54 24 08       	mov    0x8(%rsp),%rdx
  2062a6:	48 89 77 10          	mov    %rsi,0x10(%rdi)
  2062aa:	48 89 57 18          	mov    %rdx,0x18(%rdi)
  2062ae:	48 89 4f 20          	mov    %rcx,0x20(%rdi)
  2062b2:	4c 89 47 28          	mov    %r8,0x28(%rdi)
    }
  2062b6:	48 83 c4 48          	add    $0x48,%rsp
  2062ba:	c3                   	retq   
  2062bb:	cc                   	int3   
  2062bc:	cc                   	int3   
  2062bd:	cc                   	int3   
  2062be:	cc                   	int3   
  2062bf:	cc                   	int3   

00000000002062c0 <_ZN4core3fmt9Arguments6new_v117he3c1c6398bea8a81E>:
    pub const fn new_v1(pieces: &'a [&'static str], args: &'a [ArgumentV1<'a>]) -> Arguments<'a> {
  2062c0:	48 83 ec 68          	sub    $0x68,%rsp
  2062c4:	4c 89 04 24          	mov    %r8,(%rsp)
  2062c8:	48 89 4c 24 08       	mov    %rcx,0x8(%rsp)
  2062cd:	48 89 54 24 10       	mov    %rdx,0x10(%rsp)
  2062d2:	48 89 74 24 18       	mov    %rsi,0x18(%rsp)
  2062d7:	48 89 7c 24 20       	mov    %rdi,0x20(%rsp)
  2062dc:	48 89 7c 24 28       	mov    %rdi,0x28(%rsp)
  2062e1:	48 89 74 24 48       	mov    %rsi,0x48(%rsp)
  2062e6:	48 89 54 24 50       	mov    %rdx,0x50(%rsp)
  2062eb:	48 89 4c 24 58       	mov    %rcx,0x58(%rsp)
  2062f0:	4c 89 44 24 60       	mov    %r8,0x60(%rsp)
        if pieces.len() < args.len() || pieces.len() > args.len() + 1 {
  2062f5:	4c 39 c2             	cmp    %r8,%rdx
  2062f8:	72 1b                	jb     206315 <_ZN4core3fmt9Arguments6new_v117he3c1c6398bea8a81E+0x55>
  2062fa:	48 8b 44 24 10       	mov    0x10(%rsp),%rax
  2062ff:	48 8b 0c 24          	mov    (%rsp),%rcx
  206303:	48 83 c1 01          	add    $0x1,%rcx
  206307:	48 39 c8             	cmp    %rcx,%rax
  20630a:	0f 97 c0             	seta   %al
  20630d:	24 01                	and    $0x1,%al
  20630f:	88 44 24 37          	mov    %al,0x37(%rsp)
  206313:	eb 05                	jmp    20631a <_ZN4core3fmt9Arguments6new_v117he3c1c6398bea8a81E+0x5a>
  206315:	c6 44 24 37 01       	movb   $0x1,0x37(%rsp)
  20631a:	f6 44 24 37 01       	testb  $0x1,0x37(%rsp)
  20631f:	75 4c                	jne    20636d <_ZN4core3fmt9Arguments6new_v117he3c1c6398bea8a81E+0xad>
  206321:	48 8b 44 24 28       	mov    0x28(%rsp),%rax
  206326:	48 8b 4c 24 20       	mov    0x20(%rsp),%rcx
  20632b:	48 8b 14 24          	mov    (%rsp),%rdx
  20632f:	48 8b 74 24 08       	mov    0x8(%rsp),%rsi
  206334:	48 8b 7c 24 10       	mov    0x10(%rsp),%rdi
  206339:	4c 8b 44 24 18       	mov    0x18(%rsp),%r8
        Arguments { pieces, fmt: None, args }
  20633e:	48 c7 44 24 38 00 00 	movq   $0x0,0x38(%rsp)
  206345:	00 00 
  206347:	4c 89 01             	mov    %r8,(%rcx)
  20634a:	48 89 79 08          	mov    %rdi,0x8(%rcx)
  20634e:	4c 8b 44 24 38       	mov    0x38(%rsp),%r8
  206353:	48 8b 7c 24 40       	mov    0x40(%rsp),%rdi
  206358:	4c 89 41 10          	mov    %r8,0x10(%rcx)
  20635c:	48 89 79 18          	mov    %rdi,0x18(%rcx)
  206360:	48 89 71 20          	mov    %rsi,0x20(%rcx)
  206364:	48 89 51 28          	mov    %rdx,0x28(%rcx)
    }
  206368:	48 83 c4 68          	add    $0x68,%rsp
  20636c:	c3                   	retq   
            panic!("invalid args");
  20636d:	48 8d 3d 8e 9e ff ff 	lea    -0x6172(%rip),%rdi        # 200202 <_ZN9r3_kernel7drivers4uart11UART_DRIVER17h37b5c161e9eaa29dE-0x80>
  206374:	48 8d 15 65 12 03 00 	lea    0x31265(%rip),%rdx        # 2375e0 <memcmp+0x1030>
  20637b:	be 0c 00 00 00       	mov    $0xc,%esi
  206380:	e8 db d0 02 00       	callq  233460 <_ZN4core9panicking5panic17hb5e1b99c05020429E>
  206385:	0f 0b                	ud2    
  206387:	cc                   	int3   
  206388:	cc                   	int3   
  206389:	cc                   	int3   
  20638a:	cc                   	int3   
  20638b:	cc                   	int3   
  20638c:	cc                   	int3   
  20638d:	cc                   	int3   
  20638e:	cc                   	int3   
  20638f:	cc                   	int3   

0000000000206390 <_ZN9r3_kernel3cpu13hw_interrupts16pit_irq0_handler17h052240fa4a00c4aaE>:
use exceptions::IDT;
use interrupts::{prepare_default_handle, InterruptStackFrame};
use pic::CHAINED_PIC;
use pit::pit_callback;

extern "x86-interrupt" fn pit_irq0_handler(_stk: InterruptStackFrame) {
  206390:	41 53                	push   %r11
  206392:	41 52                	push   %r10
  206394:	41 51                	push   %r9
  206396:	41 50                	push   %r8
  206398:	57                   	push   %rdi
  206399:	56                   	push   %rsi
  20639a:	52                   	push   %rdx
  20639b:	51                   	push   %rcx
  20639c:	50                   	push   %rax
  20639d:	48 83 ec 20          	sub    $0x20,%rsp
  2063a1:	fc                   	cld    
    pit_callback();
  2063a2:	e8 b9 65 02 00       	callq  22c960 <_ZN9r3_kernel3cpu3pit12pit_callback17ha4008cf7d5ddd5c3E>
    CHAINED_PIC.lock().send_eoi(0x20);
  2063a7:	48 8d 3d 78 d0 ff ff 	lea    -0x2f88(%rip),%rdi        # 203426 <_ZN9r3_kernel3cpu3pic11CHAINED_PIC17h409c01fff5be0f21E>
  2063ae:	e8 cd 4e 02 00       	callq  22b280 <_ZN76_$LT$r3_kernel..cpu..pic..CHAINED_PIC$u20$as$u20$core..ops..deref..Deref$GT$5deref17hc6f918bed647a81cE>
  2063b3:	48 89 44 24 08       	mov    %rax,0x8(%rsp)
  2063b8:	48 8b 7c 24 08       	mov    0x8(%rsp),%rdi
  2063bd:	e8 1e 60 02 00       	callq  22c3e0 <_ZN4spin5mutex14Mutex$LT$T$GT$4lock17hcef982bed7f77d39E>
  2063c2:	48 89 54 24 18       	mov    %rdx,0x18(%rsp)
  2063c7:	48 89 44 24 10       	mov    %rax,0x10(%rsp)
  2063cc:	48 8d 7c 24 10       	lea    0x10(%rsp),%rdi
  2063d1:	e8 3a 61 02 00       	callq  22c510 <_ZN76_$LT$spin..mutex..MutexGuard$LT$T$GT$$u20$as$u20$core..ops..deref..Deref$GT$5deref17h9c7c4d96d39da19dE>
  2063d6:	48 89 04 24          	mov    %rax,(%rsp)
  2063da:	48 8b 3c 24          	mov    (%rsp),%rdi
  2063de:	be 20 00 00 00       	mov    $0x20,%esi
  2063e3:	e8 f8 48 02 00       	callq  22ace0 <_ZN9r3_kernel3cpu3pic10ChainedPIC8send_eoi17h67f01b5434b51e11E>
  2063e8:	48 8d 7c 24 10       	lea    0x10(%rsp),%rdi
  2063ed:	e8 ae 56 00 00       	callq  20baa0 <_ZN4core3ptr83drop_in_place$LT$spin..mutex..MutexGuard$LT$r3_kernel..cpu..pic..ChainedPIC$GT$$GT$17h3bb57ea1af0ea9baE>
}
  2063f2:	48 83 c4 20          	add    $0x20,%rsp
  2063f6:	58                   	pop    %rax
  2063f7:	59                   	pop    %rcx
  2063f8:	5a                   	pop    %rdx
  2063f9:	5e                   	pop    %rsi
  2063fa:	5f                   	pop    %rdi
  2063fb:	41 58                	pop    %r8
  2063fd:	41 59                	pop    %r9
  2063ff:	41 5a                	pop    %r10
  206401:	41 5b                	pop    %r11
  206403:	48 cf                	iretq  
  206405:	cc                   	int3   
  206406:	cc                   	int3   
  206407:	cc                   	int3   
  206408:	cc                   	int3   
  206409:	cc                   	int3   
  20640a:	cc                   	int3   
  20640b:	cc                   	int3   
  20640c:	cc                   	int3   
  20640d:	cc                   	int3   
  20640e:	cc                   	int3   
  20640f:	cc                   	int3   

0000000000206410 <_ZN9r3_kernel3cpu13hw_interrupts19setup_hw_interrupts17ha6aa69e3fa23ad1eE>:

pub fn setup_hw_interrupts() {
  206410:	48 83 ec 58          	sub    $0x58,%rsp
    let irq0_handle = prepare_default_handle(pit_irq0_handler);
  206414:	48 8d 3d 75 ff ff ff 	lea    -0x8b(%rip),%rdi        # 206390 <_ZN9r3_kernel3cpu13hw_interrupts16pit_irq0_handler17h052240fa4a00c4aaE>
  20641b:	e8 c0 19 02 00       	callq  227de0 <_ZN9r3_kernel3cpu10interrupts22prepare_default_handle17h69732289ddb8103cE>
  206420:	48 89 54 24 50       	mov    %rdx,0x50(%rsp)
  206425:	48 89 44 24 48       	mov    %rax,0x48(%rsp)
  20642a:	48 8b 44 24 48       	mov    0x48(%rsp),%rax
  20642f:	48 89 44 24 18       	mov    %rax,0x18(%rsp)
  206434:	48 8b 44 24 50       	mov    0x50(%rsp),%rax
  206439:	48 89 44 24 20       	mov    %rax,0x20(%rsp)
    IDT.lock().interrupts[0] = irq0_handle;
  20643e:	48 8b 44 24 18       	mov    0x18(%rsp),%rax
  206443:	48 89 44 24 28       	mov    %rax,0x28(%rsp)
  206448:	48 8b 44 24 20       	mov    0x20(%rsp),%rax
  20644d:	48 89 44 24 30       	mov    %rax,0x30(%rsp)
  206452:	48 8d 3d 76 cd ff ff 	lea    -0x328a(%rip),%rdi        # 2031cf <_ZN9r3_kernel3cpu10exceptions3IDT17h99ce11d1d2e99ef0E>
  206459:	e8 62 36 02 00       	callq  229ac0 <_ZN75_$LT$r3_kernel..cpu..exceptions..IDT$u20$as$u20$core..ops..deref..Deref$GT$5deref17h535fd7346896ff92E>
  20645e:	48 89 44 24 10       	mov    %rax,0x10(%rsp)
  206463:	48 8b 7c 24 10       	mov    0x10(%rsp),%rdi
  206468:	e8 13 60 02 00       	callq  22c480 <_ZN4spin5mutex14Mutex$LT$T$GT$4lock17hf747a5da2ef31e32E>
  20646d:	48 89 54 24 40       	mov    %rdx,0x40(%rsp)
  206472:	48 89 44 24 38       	mov    %rax,0x38(%rsp)
  206477:	48 8d 7c 24 38       	lea    0x38(%rsp),%rdi
  20647c:	e8 1f 61 02 00       	callq  22c5a0 <_ZN79_$LT$spin..mutex..MutexGuard$LT$T$GT$$u20$as$u20$core..ops..deref..DerefMut$GT$9deref_mut17hbcafc1d0b2686958E>
  206481:	48 89 44 24 08       	mov    %rax,0x8(%rsp)
  206486:	48 8b 44 24 08       	mov    0x8(%rsp),%rax
  20648b:	48 8b 4c 24 28       	mov    0x28(%rsp),%rcx
  206490:	48 89 88 00 02 00 00 	mov    %rcx,0x200(%rax)
  206497:	48 8b 4c 24 30       	mov    0x30(%rsp),%rcx
  20649c:	48 89 88 08 02 00 00 	mov    %rcx,0x208(%rax)
  2064a3:	48 8d 7c 24 38       	lea    0x38(%rsp),%rdi
  2064a8:	e8 23 53 00 00       	callq  20b7d0 <_ZN4core3ptr104drop_in_place$LT$spin..mutex..MutexGuard$LT$r3_kernel..cpu..interrupts..InterruptDescriptorTable$GT$$GT$17h6b7435ddd305bf85E>
}
  2064ad:	48 83 c4 58          	add    $0x58,%rsp
  2064b1:	c3                   	retq   
  2064b2:	cc                   	int3   
  2064b3:	cc                   	int3   
  2064b4:	cc                   	int3   
  2064b5:	cc                   	int3   
  2064b6:	cc                   	int3   
  2064b7:	cc                   	int3   
  2064b8:	cc                   	int3   
  2064b9:	cc                   	int3   
  2064ba:	cc                   	int3   
  2064bb:	cc                   	int3   
  2064bc:	cc                   	int3   
  2064bd:	cc                   	int3   
  2064be:	cc                   	int3   
  2064bf:	cc                   	int3   

00000000002064c0 <_ZN4core7convert3num64_$LT$impl$u20$core..convert..From$LT$u16$GT$$u20$for$u20$u64$GT$4from17h6e8530f8c2c6f51bE>:
        impl const From<$Small> for $Large {
            // Rustdocs on the impl block show a "[+] show undocumented items" toggle.
            // Rustdocs on functions do not.
            #[doc = $doc]
            #[inline]
            fn from(small: $Small) -> Self {
  2064c0:	48 83 ec 02          	sub    $0x2,%rsp
  2064c4:	66 89 f8             	mov    %di,%ax
  2064c7:	66 89 04 24          	mov    %ax,(%rsp)
                small as Self
  2064cb:	0f b7 c0             	movzwl %ax,%eax
            }
  2064ce:	48 83 c4 02          	add    $0x2,%rsp
  2064d2:	c3                   	retq   
  2064d3:	cc                   	int3   
  2064d4:	cc                   	int3   
  2064d5:	cc                   	int3   
  2064d6:	cc                   	int3   
  2064d7:	cc                   	int3   
  2064d8:	cc                   	int3   
  2064d9:	cc                   	int3   
  2064da:	cc                   	int3   
  2064db:	cc                   	int3   
  2064dc:	cc                   	int3   
  2064dd:	cc                   	int3   
  2064de:	cc                   	int3   
  2064df:	cc                   	int3   

00000000002064e0 <_ZN9r3_kernel7drivers4uart4UART15chip_works_fine17h1635cc20379f432aE>:
}

impl UART {
    // set UART in loopback mode and check if same data written is read
    // as it is, if not, the chip is faulty.
    fn chip_works_fine(port_4: &Port, port_0: &Port) -> bool {
  2064e0:	48 83 ec 38          	sub    $0x38,%rsp
  2064e4:	48 89 74 24 10       	mov    %rsi,0x10(%rsp)
  2064e9:	48 89 7c 24 18       	mov    %rdi,0x18(%rsp)
  2064ee:	48 89 7c 24 28       	mov    %rdi,0x28(%rsp)
  2064f3:	48 89 74 24 30       	mov    %rsi,0x30(%rsp)
        port_4.write_u8(X86_COM_PORT_LOOPBACK_MODE);
  2064f8:	be 1b 00 00 00       	mov    $0x1b,%esi
  2064fd:	e8 ae 12 01 00       	callq  2177b0 <_ZN9r3_kernel3cpu2io4Port8write_u817h24b7bd3a07bb48c3E>
  206502:	48 8b 7c 24 10       	mov    0x10(%rsp),%rdi
        // write some dummy byte
        port_0.write_u8(0xaf);
  206507:	be af 00 00 00       	mov    $0xaf,%esi
  20650c:	e8 9f 12 01 00       	callq  2177b0 <_ZN9r3_kernel3cpu2io4Port8write_u817h24b7bd3a07bb48c3E>
  206511:	48 8b 7c 24 10       	mov    0x10(%rsp),%rdi
        // try reading the same byte:
        match port_0.read_u8() {
  206516:	e8 75 12 01 00       	callq  217790 <_ZN9r3_kernel3cpu2io4Port7read_u817ha970c6568e2a057eE>
  20651b:	88 44 24 0f          	mov    %al,0xf(%rsp)
  20651f:	8a 44 24 0f          	mov    0xf(%rsp),%al
  206523:	3c af                	cmp    $0xaf,%al
  206525:	75 11                	jne    206538 <_ZN9r3_kernel7drivers4uart4UART15chip_works_fine17h1635cc20379f432aE+0x58>
  206527:	48 8b 7c 24 18       	mov    0x18(%rsp),%rdi
            0xaf => {
                // set chip in normal mode
                port_4.write_u8(0x0f);
  20652c:	be 0f 00 00 00       	mov    $0xf,%esi
  206531:	e8 7a 12 01 00       	callq  2177b0 <_ZN9r3_kernel3cpu2io4Port8write_u817h24b7bd3a07bb48c3E>
  206536:	eb 13                	jmp    20654b <_ZN9r3_kernel7drivers4uart4UART15chip_works_fine17h1635cc20379f432aE+0x6b>
                return true;
            }
            _ => return false,
  206538:	c6 44 24 27 00       	movb   $0x0,0x27(%rsp)
        }
    }
  20653d:	8a 44 24 27          	mov    0x27(%rsp),%al
  206541:	24 01                	and    $0x1,%al
  206543:	0f b6 c0             	movzbl %al,%eax
  206546:	48 83 c4 38          	add    $0x38,%rsp
  20654a:	c3                   	retq   
                return true;
  20654b:	c6 44 24 27 01       	movb   $0x1,0x27(%rsp)
  206550:	eb eb                	jmp    20653d <_ZN9r3_kernel7drivers4uart4UART15chip_works_fine17h1635cc20379f432aE+0x5d>
  206552:	cc                   	int3   
  206553:	cc                   	int3   
  206554:	cc                   	int3   
  206555:	cc                   	int3   
  206556:	cc                   	int3   
  206557:	cc                   	int3   
  206558:	cc                   	int3   
  206559:	cc                   	int3   
  20655a:	cc                   	int3   
  20655b:	cc                   	int3   
  20655c:	cc                   	int3   
  20655d:	cc                   	int3   
  20655e:	cc                   	int3   
  20655f:	cc                   	int3   

0000000000206560 <_ZN9r3_kernel7drivers4uart4UART3new17h37304e54c6130f33E>:

    pub fn new() -> Option<Self> {
  206560:	48 81 ec a8 00 00 00 	sub    $0xa8,%rsp
  206567:	48 89 7c 24 18       	mov    %rdi,0x18(%rsp)
  20656c:	48 89 7c 24 20       	mov    %rdi,0x20(%rsp)
  206571:	bf f8 03 00 00       	mov    $0x3f8,%edi
  206576:	31 f6                	xor    %esi,%esi
        // configuration
        let port_0 = Port::new(X86_COM_PORT, false);
  206578:	e8 e3 11 01 00       	callq  217760 <_ZN9r3_kernel3cpu2io4Port3new17h7d2c444999b33345E>
  20657d:	88 54 24 30          	mov    %dl,0x30(%rsp)
  206581:	48 89 44 24 28       	mov    %rax,0x28(%rsp)
  206586:	bf f9 03 00 00       	mov    $0x3f9,%edi
  20658b:	31 f6                	xor    %esi,%esi
        let port_1 = Port::new(X86_COM_PORT + 1, false);
  20658d:	e8 ce 11 01 00       	callq  217760 <_ZN9r3_kernel3cpu2io4Port3new17h7d2c444999b33345E>
  206592:	88 54 24 40          	mov    %dl,0x40(%rsp)
  206596:	48 89 44 24 38       	mov    %rax,0x38(%rsp)
  20659b:	bf fa 03 00 00       	mov    $0x3fa,%edi
  2065a0:	31 f6                	xor    %esi,%esi
        let port_2 = Port::new(X86_COM_PORT + 2, false);
  2065a2:	e8 b9 11 01 00       	callq  217760 <_ZN9r3_kernel3cpu2io4Port3new17h7d2c444999b33345E>
  2065a7:	88 54 24 50          	mov    %dl,0x50(%rsp)
  2065ab:	48 89 44 24 48       	mov    %rax,0x48(%rsp)
  2065b0:	bf fb 03 00 00       	mov    $0x3fb,%edi
  2065b5:	31 f6                	xor    %esi,%esi
        let port_3 = Port::new(X86_COM_PORT + 3, false);
  2065b7:	e8 a4 11 01 00       	callq  217760 <_ZN9r3_kernel3cpu2io4Port3new17h7d2c444999b33345E>
  2065bc:	88 54 24 60          	mov    %dl,0x60(%rsp)
  2065c0:	48 89 44 24 58       	mov    %rax,0x58(%rsp)
  2065c5:	bf fc 03 00 00       	mov    $0x3fc,%edi
  2065ca:	31 f6                	xor    %esi,%esi
        let port_4 = Port::new(X86_COM_PORT + 4, false);
  2065cc:	e8 8f 11 01 00       	callq  217760 <_ZN9r3_kernel3cpu2io4Port3new17h7d2c444999b33345E>
  2065d1:	88 54 24 70          	mov    %dl,0x70(%rsp)
  2065d5:	48 89 44 24 68       	mov    %rax,0x68(%rsp)

        // read only port.
        let port_5 = Port::new(X86_COM_PORT + 5, true);
  2065da:	bf fd 03 00 00       	mov    $0x3fd,%edi
  2065df:	be 01 00 00 00       	mov    $0x1,%esi
  2065e4:	e8 77 11 01 00       	callq  217760 <_ZN9r3_kernel3cpu2io4Port3new17h7d2c444999b33345E>
  2065e9:	48 89 44 24 08       	mov    %rax,0x8(%rsp)
  2065ee:	88 54 24 17          	mov    %dl,0x17(%rsp)
  2065f2:	48 89 84 24 98 00 00 	mov    %rax,0x98(%rsp)
  2065f9:	00 
  2065fa:	80 e2 01             	and    $0x1,%dl
  2065fd:	88 94 24 a0 00 00 00 	mov    %dl,0xa0(%rsp)

        port_1.write_u8(0x00);
  206604:	48 8d 7c 24 38       	lea    0x38(%rsp),%rdi
  206609:	31 f6                	xor    %esi,%esi
  20660b:	e8 a0 11 01 00       	callq  2177b0 <_ZN9r3_kernel3cpu2io4Port8write_u817h24b7bd3a07bb48c3E>
        port_3.write_u8(0x80);
  206610:	48 8d 7c 24 58       	lea    0x58(%rsp),%rdi
  206615:	be 80 00 00 00       	mov    $0x80,%esi
  20661a:	e8 91 11 01 00       	callq  2177b0 <_ZN9r3_kernel3cpu2io4Port8write_u817h24b7bd3a07bb48c3E>
        port_0.write_u8(0x03);
  20661f:	48 8d 7c 24 28       	lea    0x28(%rsp),%rdi
  206624:	be 03 00 00 00       	mov    $0x3,%esi
  206629:	e8 82 11 01 00       	callq  2177b0 <_ZN9r3_kernel3cpu2io4Port8write_u817h24b7bd3a07bb48c3E>
        port_1.write_u8(0x00);
  20662e:	48 8d 7c 24 38       	lea    0x38(%rsp),%rdi
  206633:	31 f6                	xor    %esi,%esi
  206635:	e8 76 11 01 00       	callq  2177b0 <_ZN9r3_kernel3cpu2io4Port8write_u817h24b7bd3a07bb48c3E>
        port_3.write_u8(0x03);
  20663a:	48 8d 7c 24 58       	lea    0x58(%rsp),%rdi
  20663f:	be 03 00 00 00       	mov    $0x3,%esi
  206644:	e8 67 11 01 00       	callq  2177b0 <_ZN9r3_kernel3cpu2io4Port8write_u817h24b7bd3a07bb48c3E>
        port_2.write_u8(0xC7);
  206649:	48 8d 7c 24 48       	lea    0x48(%rsp),%rdi
  20664e:	be c7 00 00 00       	mov    $0xc7,%esi
  206653:	e8 58 11 01 00       	callq  2177b0 <_ZN9r3_kernel3cpu2io4Port8write_u817h24b7bd3a07bb48c3E>
        port_4.write_u8(0x0B);
  206658:	48 8d 7c 24 68       	lea    0x68(%rsp),%rdi
  20665d:	be 0b 00 00 00       	mov    $0xb,%esi
  206662:	e8 49 11 01 00       	callq  2177b0 <_ZN9r3_kernel3cpu2io4Port8write_u817h24b7bd3a07bb48c3E>

        // check for faulty chip:
        if !UART::chip_works_fine(&port_4, &port_0) {
  206667:	48 8d 7c 24 68       	lea    0x68(%rsp),%rdi
  20666c:	48 8d 74 24 28       	lea    0x28(%rsp),%rsi
  206671:	e8 6a fe ff ff       	callq  2064e0 <_ZN9r3_kernel7drivers4uart4UART15chip_works_fine17h1635cc20379f432aE>
  206676:	88 44 24 07          	mov    %al,0x7(%rsp)
  20667a:	8a 44 24 07          	mov    0x7(%rsp),%al
  20667e:	34 ff                	xor    $0xff,%al
  206680:	a8 01                	test   $0x1,%al
  206682:	75 69                	jne    2066ed <_ZN9r3_kernel7drivers4uart4UART3new17h37304e54c6130f33E+0x18d>
  206684:	48 8b 44 24 18       	mov    0x18(%rsp),%rax
  206689:	8a 4c 24 17          	mov    0x17(%rsp),%cl
  20668d:	48 8b 54 24 08       	mov    0x8(%rsp),%rdx
            return None;
        }

        // return the UART instance:
        Some(UART {
            port_0: port_0,
  206692:	48 8b 7c 24 28       	mov    0x28(%rsp),%rdi
  206697:	40 8a 74 24 30       	mov    0x30(%rsp),%sil
        Some(UART {
  20669c:	48 89 7c 24 78       	mov    %rdi,0x78(%rsp)
  2066a1:	40 80 e6 01          	and    $0x1,%sil
  2066a5:	40 88 b4 24 80 00 00 	mov    %sil,0x80(%rsp)
  2066ac:	00 
  2066ad:	48 89 94 24 88 00 00 	mov    %rdx,0x88(%rsp)
  2066b4:	00 
  2066b5:	80 e1 01             	and    $0x1,%cl
  2066b8:	88 8c 24 90 00 00 00 	mov    %cl,0x90(%rsp)
  2066bf:	48 8b 4c 24 78       	mov    0x78(%rsp),%rcx
  2066c4:	48 89 08             	mov    %rcx,(%rax)
  2066c7:	48 8b 8c 24 80 00 00 	mov    0x80(%rsp),%rcx
  2066ce:	00 
  2066cf:	48 89 48 08          	mov    %rcx,0x8(%rax)
  2066d3:	48 8b 8c 24 88 00 00 	mov    0x88(%rsp),%rcx
  2066da:	00 
  2066db:	48 89 48 10          	mov    %rcx,0x10(%rax)
  2066df:	48 8b 8c 24 90 00 00 	mov    0x90(%rsp),%rcx
  2066e6:	00 
  2066e7:	48 89 48 18          	mov    %rcx,0x18(%rax)
            port_5: port_5,
        })
    }
  2066eb:	eb 09                	jmp    2066f6 <_ZN9r3_kernel7drivers4uart4UART3new17h37304e54c6130f33E+0x196>
  2066ed:	48 8b 44 24 18       	mov    0x18(%rsp),%rax
            return None;
  2066f2:	c6 40 08 02          	movb   $0x2,0x8(%rax)
  2066f6:	48 8b 44 24 20       	mov    0x20(%rsp),%rax
    }
  2066fb:	48 81 c4 a8 00 00 00 	add    $0xa8,%rsp
  206702:	c3                   	retq   
  206703:	cc                   	int3   
  206704:	cc                   	int3   
  206705:	cc                   	int3   
  206706:	cc                   	int3   
  206707:	cc                   	int3   
  206708:	cc                   	int3   
  206709:	cc                   	int3   
  20670a:	cc                   	int3   
  20670b:	cc                   	int3   
  20670c:	cc                   	int3   
  20670d:	cc                   	int3   
  20670e:	cc                   	int3   
  20670f:	cc                   	int3   

0000000000206710 <_ZN9r3_kernel7drivers4uart4UART13transit_empty17ha7bcda3ea9842aa9E>:

    #[inline]
    pub fn transit_empty(&self) -> bool {
  206710:	48 83 ec 18          	sub    $0x18,%rsp
  206714:	48 89 7c 24 10       	mov    %rdi,0x10(%rsp)
        self.port_5.read_u8() & X86_COM_PORT_EMPTY_FLAG != 0
  206719:	48 83 c7 10          	add    $0x10,%rdi
  20671d:	e8 6e 10 01 00       	callq  217790 <_ZN9r3_kernel3cpu2io4Port7read_u817ha970c6568e2a057eE>
  206722:	88 44 24 0f          	mov    %al,0xf(%rsp)
  206726:	8a 44 24 0f          	mov    0xf(%rsp),%al
  20672a:	24 20                	and    $0x20,%al
  20672c:	3c 00                	cmp    $0x0,%al
  20672e:	0f 95 c0             	setne  %al
    }
  206731:	24 01                	and    $0x1,%al
  206733:	0f b6 c0             	movzbl %al,%eax
  206736:	48 83 c4 18          	add    $0x18,%rsp
  20673a:	c3                   	retq   
  20673b:	cc                   	int3   
  20673c:	cc                   	int3   
  20673d:	cc                   	int3   
  20673e:	cc                   	int3   
  20673f:	cc                   	int3   

0000000000206740 <_ZN9r3_kernel7drivers4uart4UART8write_u817h3d1582a24c091e55E>:
    pub fn read_u8(&self) -> u8 {
        while !self.transit_received() {}
        self.port_0.read_u8()
    }

    pub fn write_u8(&self, value: u8) {
  206740:	48 83 ec 28          	sub    $0x28,%rsp
  206744:	48 89 7c 24 08       	mov    %rdi,0x8(%rsp)
  206749:	40 88 f0             	mov    %sil,%al
  20674c:	88 44 24 17          	mov    %al,0x17(%rsp)
  206750:	48 89 7c 24 18       	mov    %rdi,0x18(%rsp)
  206755:	88 44 24 27          	mov    %al,0x27(%rsp)
  206759:	48 8b 7c 24 08       	mov    0x8(%rsp),%rdi
        while !self.transit_empty() {}
  20675e:	e8 ad ff ff ff       	callq  206710 <_ZN9r3_kernel7drivers4uart4UART13transit_empty17ha7bcda3ea9842aa9E>
  206763:	88 44 24 07          	mov    %al,0x7(%rsp)
  206767:	8a 44 24 07          	mov    0x7(%rsp),%al
  20676b:	34 ff                	xor    $0xff,%al
  20676d:	a8 01                	test   $0x1,%al
  20676f:	75 e8                	jne    206759 <_ZN9r3_kernel7drivers4uart4UART8write_u817h3d1582a24c091e55E+0x19>
  206771:	8a 44 24 17          	mov    0x17(%rsp),%al
  206775:	48 8b 7c 24 08       	mov    0x8(%rsp),%rdi
        self.port_0.write_u8(value);
  20677a:	0f b6 f0             	movzbl %al,%esi
  20677d:	e8 2e 10 01 00       	callq  2177b0 <_ZN9r3_kernel3cpu2io4Port8write_u817h24b7bd3a07bb48c3E>
    }
  206782:	48 83 c4 28          	add    $0x28,%rsp
  206786:	c3                   	retq   
  206787:	cc                   	int3   
  206788:	cc                   	int3   
  206789:	cc                   	int3   
  20678a:	cc                   	int3   
  20678b:	cc                   	int3   
  20678c:	cc                   	int3   
  20678d:	cc                   	int3   
  20678e:	cc                   	int3   
  20678f:	cc                   	int3   

0000000000206790 <_ZN9r3_kernel7drivers4uart4UART16is_writable_char17h28ffd4aa66bb24ccE>:
            buffer[index] = self.read_u8();
        }
    }

    #[inline]
    fn is_writable_char(&self, char: &u8) -> bool {
  206790:	48 83 ec 20          	sub    $0x20,%rsp
  206794:	48 89 34 24          	mov    %rsi,(%rsp)
  206798:	48 89 7c 24 10       	mov    %rdi,0x10(%rsp)
  20679d:	48 89 74 24 18       	mov    %rsi,0x18(%rsp)
        return *char >= 0x20 && *char <= 0x7e;
  2067a2:	80 3e 20             	cmpb   $0x20,(%rsi)
  2067a5:	73 07                	jae    2067ae <_ZN9r3_kernel7drivers4uart4UART16is_writable_char17h28ffd4aa66bb24ccE+0x1e>
  2067a7:	c6 44 24 0f 00       	movb   $0x0,0xf(%rsp)
  2067ac:	eb 10                	jmp    2067be <_ZN9r3_kernel7drivers4uart4UART16is_writable_char17h28ffd4aa66bb24ccE+0x2e>
  2067ae:	48 8b 04 24          	mov    (%rsp),%rax
  2067b2:	80 38 7e             	cmpb   $0x7e,(%rax)
  2067b5:	0f 96 c0             	setbe  %al
  2067b8:	24 01                	and    $0x1,%al
  2067ba:	88 44 24 0f          	mov    %al,0xf(%rsp)
    }
  2067be:	8a 44 24 0f          	mov    0xf(%rsp),%al
  2067c2:	24 01                	and    $0x1,%al
  2067c4:	0f b6 c0             	movzbl %al,%eax
  2067c7:	48 83 c4 20          	add    $0x20,%rsp
  2067cb:	c3                   	retq   
  2067cc:	cc                   	int3   
  2067cd:	cc                   	int3   
  2067ce:	cc                   	int3   
  2067cf:	cc                   	int3   

00000000002067d0 <_ZN9r3_kernel7drivers4uart4UART17write_safe_string17hbd620fd44f283e0eE>:

    pub fn write_safe_string(&self, string: &str) {
  2067d0:	48 83 ec 78          	sub    $0x78,%rsp
  2067d4:	48 89 54 24 18       	mov    %rdx,0x18(%rsp)
  2067d9:	48 89 f0             	mov    %rsi,%rax
  2067dc:	48 8b 74 24 18       	mov    0x18(%rsp),%rsi
  2067e1:	48 89 44 24 20       	mov    %rax,0x20(%rsp)
  2067e6:	48 89 f8             	mov    %rdi,%rax
  2067e9:	48 8b 7c 24 20       	mov    0x20(%rsp),%rdi
  2067ee:	48 89 44 24 28       	mov    %rax,0x28(%rsp)
  2067f3:	48 89 44 24 58       	mov    %rax,0x58(%rsp)
  2067f8:	48 89 7c 24 60       	mov    %rdi,0x60(%rsp)
  2067fd:	48 89 74 24 68       	mov    %rsi,0x68(%rsp)
        for char in string.bytes() {
  206802:	e8 89 8d 00 00       	callq  20f590 <_ZN4core3str21_$LT$impl$u20$str$GT$5bytes17h43a7e9e40985a180E>
  206807:	48 89 44 24 30       	mov    %rax,0x30(%rsp)
  20680c:	48 89 54 24 38       	mov    %rdx,0x38(%rsp)
  206811:	48 8b 74 24 38       	mov    0x38(%rsp),%rsi
  206816:	48 8b 7c 24 30       	mov    0x30(%rsp),%rdi
  20681b:	e8 b0 a4 02 00       	callq  230cd0 <_ZN63_$LT$I$u20$as$u20$core..iter..traits..collect..IntoIterator$GT$9into_iter17heacc4301b8f7343dE>
  206820:	48 89 44 24 08       	mov    %rax,0x8(%rsp)
  206825:	48 89 54 24 10       	mov    %rdx,0x10(%rsp)
  20682a:	48 8b 44 24 10       	mov    0x10(%rsp),%rax
  20682f:	48 8b 4c 24 08       	mov    0x8(%rsp),%rcx
  206834:	48 89 4c 24 40       	mov    %rcx,0x40(%rsp)
  206839:	48 89 44 24 48       	mov    %rax,0x48(%rsp)
  20683e:	48 8d 7c 24 40       	lea    0x40(%rsp),%rdi
  206843:	e8 b8 3c 00 00       	callq  20a500 <_ZN81_$LT$core..str..iter..Bytes$u20$as$u20$core..iter..traits..iterator..Iterator$GT$4next17hdbc274460ee4dd34E>
  206848:	88 54 24 51          	mov    %dl,0x51(%rsp)
  20684c:	88 44 24 50          	mov    %al,0x50(%rsp)
  206850:	0f b6 44 24 50       	movzbl 0x50(%rsp),%eax
  206855:	a8 01                	test   $0x1,%al
  206857:	74 06                	je     20685f <_ZN9r3_kernel7drivers4uart4UART17write_safe_string17hbd620fd44f283e0eE+0x8f>
  206859:	eb 00                	jmp    20685b <_ZN9r3_kernel7drivers4uart4UART17write_safe_string17hbd620fd44f283e0eE+0x8b>
  20685b:	eb 07                	jmp    206864 <_ZN9r3_kernel7drivers4uart4UART17write_safe_string17hbd620fd44f283e0eE+0x94>
  20685d:	0f 0b                	ud2    
            } else {
                // invalid char byte
                self.write_u8(COM_INVALID_CHAR_BYTE);
            }
        }
    }
  20685f:	48 83 c4 78          	add    $0x78,%rsp
  206863:	c3                   	retq   
        for char in string.bytes() {
  206864:	8a 44 24 51          	mov    0x51(%rsp),%al
  206868:	88 44 24 76          	mov    %al,0x76(%rsp)
  20686c:	88 44 24 77          	mov    %al,0x77(%rsp)
  206870:	88 44 24 57          	mov    %al,0x57(%rsp)
            if char == b'\n' {
  206874:	80 7c 24 57 0a       	cmpb   $0xa,0x57(%rsp)
  206879:	75 11                	jne    20688c <_ZN9r3_kernel7drivers4uart4UART17write_safe_string17hbd620fd44f283e0eE+0xbc>
  20687b:	48 8b 7c 24 28       	mov    0x28(%rsp),%rdi
                self.write_u8(b'\r');
  206880:	be 0d 00 00 00       	mov    $0xd,%esi
  206885:	e8 b6 fe ff ff       	callq  206740 <_ZN9r3_kernel7drivers4uart4UART8write_u817h3d1582a24c091e55E>
  20688a:	eb 42                	jmp    2068ce <_ZN9r3_kernel7drivers4uart4UART17write_safe_string17hbd620fd44f283e0eE+0xfe>
  20688c:	48 8b 7c 24 28       	mov    0x28(%rsp),%rdi
            } else if self.is_writable_char(&char) {
  206891:	48 8d 74 24 57       	lea    0x57(%rsp),%rsi
  206896:	e8 f5 fe ff ff       	callq  206790 <_ZN9r3_kernel7drivers4uart4UART16is_writable_char17h28ffd4aa66bb24ccE>
  20689b:	88 44 24 07          	mov    %al,0x7(%rsp)
  20689f:	8a 44 24 07          	mov    0x7(%rsp),%al
  2068a3:	a8 01                	test   $0x1,%al
  2068a5:	75 13                	jne    2068ba <_ZN9r3_kernel7drivers4uart4UART17write_safe_string17hbd620fd44f283e0eE+0xea>
  2068a7:	eb 00                	jmp    2068a9 <_ZN9r3_kernel7drivers4uart4UART17write_safe_string17hbd620fd44f283e0eE+0xd9>
  2068a9:	48 8b 7c 24 28       	mov    0x28(%rsp),%rdi
                self.write_u8(COM_INVALID_CHAR_BYTE);
  2068ae:	be 3f 00 00 00       	mov    $0x3f,%esi
  2068b3:	e8 88 fe ff ff       	callq  206740 <_ZN9r3_kernel7drivers4uart4UART8write_u817h3d1582a24c091e55E>
  2068b8:	eb 84                	jmp    20683e <_ZN9r3_kernel7drivers4uart4UART17write_safe_string17hbd620fd44f283e0eE+0x6e>
  2068ba:	48 8b 7c 24 28       	mov    0x28(%rsp),%rdi
                self.write_u8(char);
  2068bf:	0f b6 74 24 57       	movzbl 0x57(%rsp),%esi
  2068c4:	e8 77 fe ff ff       	callq  206740 <_ZN9r3_kernel7drivers4uart4UART8write_u817h3d1582a24c091e55E>
  2068c9:	e9 70 ff ff ff       	jmpq   20683e <_ZN9r3_kernel7drivers4uart4UART17write_safe_string17hbd620fd44f283e0eE+0x6e>
  2068ce:	48 8b 7c 24 28       	mov    0x28(%rsp),%rdi
                self.write_u8(b'\n');
  2068d3:	be 0a 00 00 00       	mov    $0xa,%esi
  2068d8:	e8 63 fe ff ff       	callq  206740 <_ZN9r3_kernel7drivers4uart4UART8write_u817h3d1582a24c091e55E>
  2068dd:	e9 5c ff ff ff       	jmpq   20683e <_ZN9r3_kernel7drivers4uart4UART17write_safe_string17hbd620fd44f283e0eE+0x6e>
  2068e2:	cc                   	int3   
  2068e3:	cc                   	int3   
  2068e4:	cc                   	int3   
  2068e5:	cc                   	int3   
  2068e6:	cc                   	int3   
  2068e7:	cc                   	int3   
  2068e8:	cc                   	int3   
  2068e9:	cc                   	int3   
  2068ea:	cc                   	int3   
  2068eb:	cc                   	int3   
  2068ec:	cc                   	int3   
  2068ed:	cc                   	int3   
  2068ee:	cc                   	int3   
  2068ef:	cc                   	int3   

00000000002068f0 <_ZN67_$LT$r3_kernel..drivers..uart..UART$u20$as$u20$core..fmt..Write$GT$9write_str17hed6fc29d6c2b05eaE>:
}

impl fmt::Write for UART {
    fn write_str(&mut self, string: &str) -> fmt::Result {
  2068f0:	48 83 ec 28          	sub    $0x28,%rsp
  2068f4:	48 89 7c 24 10       	mov    %rdi,0x10(%rsp)
  2068f9:	48 89 74 24 18       	mov    %rsi,0x18(%rsp)
  2068fe:	48 89 54 24 20       	mov    %rdx,0x20(%rsp)
        self.write_safe_string(string);
  206903:	e8 c8 fe ff ff       	callq  2067d0 <_ZN9r3_kernel7drivers4uart4UART17write_safe_string17hbd620fd44f283e0eE>
        return Ok(());
  206908:	c6 44 24 0f 00       	movb   $0x0,0xf(%rsp)
    }
  20690d:	8a 44 24 0f          	mov    0xf(%rsp),%al
  206911:	24 01                	and    $0x1,%al
  206913:	0f b6 c0             	movzbl %al,%eax
  206916:	48 83 c4 28          	add    $0x28,%rsp
  20691a:	c3                   	retq   
  20691b:	cc                   	int3   
  20691c:	cc                   	int3   
  20691d:	cc                   	int3   
  20691e:	cc                   	int3   
  20691f:	cc                   	int3   

0000000000206920 <_ZN9r3_kernel7drivers4uart9init_uart17h09d38c99ebaa066bE>:
}

fn init_uart() -> Option<Mutex<UART>> {
  206920:	48 81 ec 98 00 00 00 	sub    $0x98,%rsp
  206927:	48 89 3c 24          	mov    %rdi,(%rsp)
  20692b:	48 89 7c 24 08       	mov    %rdi,0x8(%rsp)
    if let Some(uart) = UART::new() {
  206930:	48 8d 7c 24 10       	lea    0x10(%rsp),%rdi
  206935:	e8 26 fc ff ff       	callq  206560 <_ZN9r3_kernel7drivers4uart4UART3new17h37304e54c6130f33E>
  20693a:	8a 54 24 18          	mov    0x18(%rsp),%dl
  20693e:	80 ea 02             	sub    $0x2,%dl
  206941:	b8 01 00 00 00       	mov    $0x1,%eax
  206946:	31 c9                	xor    %ecx,%ecx
  206948:	80 fa 00             	cmp    $0x0,%dl
  20694b:	48 0f 44 c1          	cmove  %rcx,%rax
  20694f:	48 83 f8 01          	cmp    $0x1,%rax
  206953:	75 6a                	jne    2069bf <_ZN9r3_kernel7drivers4uart9init_uart17h09d38c99ebaa066bE+0x9f>
  206955:	48 8b 44 24 10       	mov    0x10(%rsp),%rax
  20695a:	48 89 44 24 30       	mov    %rax,0x30(%rsp)
  20695f:	48 8b 44 24 18       	mov    0x18(%rsp),%rax
  206964:	48 89 44 24 38       	mov    %rax,0x38(%rsp)
  206969:	48 8b 44 24 20       	mov    0x20(%rsp),%rax
  20696e:	48 89 44 24 40       	mov    %rax,0x40(%rsp)
  206973:	48 8b 44 24 28       	mov    0x28(%rsp),%rax
  206978:	48 89 44 24 48       	mov    %rax,0x48(%rsp)
        return Some(Mutex::new(uart));
  20697d:	48 8b 44 24 30       	mov    0x30(%rsp),%rax
  206982:	48 89 44 24 78       	mov    %rax,0x78(%rsp)
  206987:	48 8b 44 24 38       	mov    0x38(%rsp),%rax
  20698c:	48 89 84 24 80 00 00 	mov    %rax,0x80(%rsp)
  206993:	00 
  206994:	48 8b 44 24 40       	mov    0x40(%rsp),%rax
  206999:	48 89 84 24 88 00 00 	mov    %rax,0x88(%rsp)
  2069a0:	00 
  2069a1:	48 8b 44 24 48       	mov    0x48(%rsp),%rax
  2069a6:	48 89 84 24 90 00 00 	mov    %rax,0x90(%rsp)
  2069ad:	00 
  2069ae:	48 8d 7c 24 50       	lea    0x50(%rsp),%rdi
  2069b3:	48 8d 74 24 78       	lea    0x78(%rsp),%rsi
  2069b8:	e8 03 56 02 00       	callq  22bfc0 <_ZN4spin5mutex14Mutex$LT$T$GT$3new17hba9b1c03bd7af26fE>
  2069bd:	eb 18                	jmp    2069d7 <_ZN9r3_kernel7drivers4uart9init_uart17h09d38c99ebaa066bE+0xb7>
  2069bf:	48 8b 04 24          	mov    (%rsp),%rax
    }
    None
  2069c3:	48 c7 00 00 00 00 00 	movq   $0x0,(%rax)
  2069ca:	48 8b 44 24 08       	mov    0x8(%rsp),%rax
}
  2069cf:	48 81 c4 98 00 00 00 	add    $0x98,%rsp
  2069d6:	c3                   	retq   
  2069d7:	48 8b 3c 24          	mov    (%rsp),%rdi
        return Some(Mutex::new(uart));
  2069db:	48 83 c7 08          	add    $0x8,%rdi
  2069df:	48 8d 74 24 50       	lea    0x50(%rsp),%rsi
  2069e4:	ba 28 00 00 00       	mov    $0x28,%edx
  2069e9:	e8 72 fb 02 00       	callq  236560 <memcpy>
  2069ee:	48 8b 04 24          	mov    (%rsp),%rax
  2069f2:	48 c7 00 01 00 00 00 	movq   $0x1,(%rax)
}
  2069f9:	eb cf                	jmp    2069ca <_ZN9r3_kernel7drivers4uart9init_uart17h09d38c99ebaa066bE+0xaa>
  2069fb:	cc                   	int3   
  2069fc:	cc                   	int3   
  2069fd:	cc                   	int3   
  2069fe:	cc                   	int3   
  2069ff:	cc                   	int3   

0000000000206a00 <_ZN81_$LT$r3_kernel..drivers..uart..UART_DRIVER$u20$as$u20$core..ops..deref..Deref$GT$5deref17h592fdb146c1cf189E>:
        lazy_static!($($t)*);
    };
    (@TAIL, $N:ident : $T:ty = $e:expr) => {
        impl $crate::__Deref for $N {
            type Target = $T;
            fn deref(&self) -> &$T {
  206a00:	48 83 ec 18          	sub    $0x18,%rsp
  206a04:	48 89 7c 24 08       	mov    %rdi,0x8(%rsp)
  206a09:	48 8d 05 a0 57 03 00 	lea    0x357a0(%rip),%rax        # 23c1b0 <_ZN81_$LT$r3_kernel..drivers..uart..UART_DRIVER$u20$as$u20$core..ops..deref..Deref$GT$5deref11__stability4LAZY17ha6c567e751ae2da6E>
  206a10:	48 89 44 24 10       	mov    %rax,0x10(%rsp)

    #[inline(always)]
    pub fn get<F>(&'static self, builder: F) -> &T
        where F: FnOnce() -> T
    {
        self.0.call_once(builder)
  206a15:	48 8d 3d 94 57 03 00 	lea    0x35794(%rip),%rdi        # 23c1b0 <_ZN81_$LT$r3_kernel..drivers..uart..UART_DRIVER$u20$as$u20$core..ops..deref..Deref$GT$5deref11__stability4LAZY17ha6c567e751ae2da6E>
  206a1c:	e8 5f 26 00 00       	callq  209080 <_ZN4spin4once13Once$LT$T$GT$9call_once17h94ca2a99b8405a3fE>
  206a21:	48 89 04 24          	mov    %rax,(%rsp)
  206a25:	48 8b 04 24          	mov    (%rsp),%rax
                fn __stability() -> &'static $T {
                    __lazy_static_create!(LAZY, $T);
                    LAZY.get(__static_ref_initialize)
                }
                __stability()
            }
  206a29:	48 83 c4 18          	add    $0x18,%rsp
  206a2d:	c3                   	retq   
  206a2e:	cc                   	int3   
  206a2f:	cc                   	int3   

0000000000206a30 <_ZN5alloc7raw_vec11finish_grow17h1e802e26c11a75aaE>:
// This function is outside `RawVec` to minimize compile times. See the comment
// above `RawVec::grow_amortized` for details. (The `A` parameter isn't
// significant, because the number of different `A` types seen in practice is
// much smaller than the number of `T` types.)
#[inline(never)]
fn finish_grow<A>(
  206a30:	48 81 ec 28 01 00 00 	sub    $0x128,%rsp
  206a37:	4c 89 44 24 18       	mov    %r8,0x18(%rsp)
  206a3c:	48 89 4c 24 20       	mov    %rcx,0x20(%rsp)
  206a41:	48 89 7c 24 28       	mov    %rdi,0x28(%rsp)
  206a46:	48 89 7c 24 30       	mov    %rdi,0x30(%rsp)
  206a4b:	48 89 b4 24 d0 00 00 	mov    %rsi,0xd0(%rsp)
  206a52:	00 
  206a53:	48 89 94 24 d8 00 00 	mov    %rdx,0xd8(%rsp)
  206a5a:	00 
  206a5b:	4c 89 84 24 e0 00 00 	mov    %r8,0xe0(%rsp)
  206a62:	00 
) -> Result<NonNull<[u8]>, TryReserveError>
where
    A: Allocator,
{
    // Check for the error here to minimize the size of `RawVec::grow_*`.
    let new_layout = new_layout.map_err(|_| CapacityOverflow)?;
  206a63:	48 8d 7c 24 60       	lea    0x60(%rsp),%rdi
  206a68:	e8 93 44 00 00       	callq  20af00 <_ZN4core6result19Result$LT$T$C$E$GT$7map_err17h3a9f784f45a4962aE>
  206a6d:	48 8d 7c 24 48       	lea    0x48(%rsp),%rdi
  206a72:	48 8d 74 24 60       	lea    0x60(%rsp),%rsi
  206a77:	e8 34 49 00 00       	callq  20b3b0 <_ZN79_$LT$core..result..Result$LT$T$C$E$GT$$u20$as$u20$core..ops..try_trait..Try$GT$6branch17hb125d4abb86e7241E>
  206a7c:	48 8b 44 24 48       	mov    0x48(%rsp),%rax
  206a81:	48 85 c0             	test   %rax,%rax
  206a84:	74 06                	je     206a8c <_ZN5alloc7raw_vec11finish_grow17h1e802e26c11a75aaE+0x5c>
  206a86:	eb 00                	jmp    206a88 <_ZN5alloc7raw_vec11finish_grow17h1e802e26c11a75aaE+0x58>
  206a88:	eb 37                	jmp    206ac1 <_ZN5alloc7raw_vec11finish_grow17h1e802e26c11a75aaE+0x91>
  206a8a:	0f 0b                	ud2    
  206a8c:	48 8b 4c 24 50       	mov    0x50(%rsp),%rcx
  206a91:	48 8b 44 24 58       	mov    0x58(%rsp),%rax
  206a96:	48 89 8c 24 00 01 00 	mov    %rcx,0x100(%rsp)
  206a9d:	00 
  206a9e:	48 89 84 24 08 01 00 	mov    %rax,0x108(%rsp)
  206aa5:	00 
  206aa6:	48 89 4c 24 38       	mov    %rcx,0x38(%rsp)
  206aab:	48 89 44 24 40       	mov    %rax,0x40(%rsp)

    alloc_guard(new_layout.size())?;
  206ab0:	48 8d 7c 24 38       	lea    0x38(%rsp),%rdi
  206ab5:	e8 96 39 01 00       	callq  21a450 <_ZN4core5alloc6layout6Layout4size17h891a57d4c337bf81E>
  206aba:	48 89 44 24 10       	mov    %rax,0x10(%rsp)
  206abf:	eb 28                	jmp    206ae9 <_ZN5alloc7raw_vec11finish_grow17h1e802e26c11a75aaE+0xb9>
  206ac1:	48 8b 7c 24 28       	mov    0x28(%rsp),%rdi
    let new_layout = new_layout.map_err(|_| CapacityOverflow)?;
  206ac6:	48 8b 74 24 50       	mov    0x50(%rsp),%rsi
  206acb:	48 8b 54 24 58       	mov    0x58(%rsp),%rdx
  206ad0:	48 89 b4 24 f0 00 00 	mov    %rsi,0xf0(%rsp)
  206ad7:	00 
  206ad8:	48 89 94 24 f8 00 00 	mov    %rdx,0xf8(%rsp)
  206adf:	00 
  206ae0:	e8 3b 3b 00 00       	callq  20a620 <_ZN153_$LT$core..result..Result$LT$T$C$F$GT$$u20$as$u20$core..ops..try_trait..FromResidual$LT$core..result..Result$LT$core..convert..Infallible$C$E$GT$$GT$$GT$13from_residual17h6bce559bf06336b0E>
#![no_std] // don't link the Rust standard library
  206ae5:	eb 00                	jmp    206ae7 <_ZN5alloc7raw_vec11finish_grow17h1e802e26c11a75aaE+0xb7>
    } else {
        alloc.allocate(new_layout)
    };

    memory.map_err(|_| AllocError { layout: new_layout, non_exhaustive: () }.into())
}
  206ae7:	eb 7c                	jmp    206b65 <_ZN5alloc7raw_vec11finish_grow17h1e802e26c11a75aaE+0x135>
  206ae9:	48 8b 74 24 10       	mov    0x10(%rsp),%rsi
    alloc_guard(new_layout.size())?;
  206aee:	48 8d bc 24 90 00 00 	lea    0x90(%rsp),%rdi
  206af5:	00 
  206af6:	e8 25 f4 00 00       	callq  215f20 <_ZN5alloc7raw_vec11alloc_guard17he9d2ff3ae0902a05E>
  206afb:	48 8d 7c 24 78       	lea    0x78(%rsp),%rdi
  206b00:	48 8d b4 24 90 00 00 	lea    0x90(%rsp),%rsi
  206b07:	00 
  206b08:	e8 63 46 00 00       	callq  20b170 <_ZN79_$LT$core..result..Result$LT$T$C$E$GT$$u20$as$u20$core..ops..try_trait..Try$GT$6branch17h3999a298f0de4330E>
  206b0d:	48 8b 44 24 78       	mov    0x78(%rsp),%rax
  206b12:	48 85 c0             	test   %rax,%rax
  206b15:	74 06                	je     206b1d <_ZN5alloc7raw_vec11finish_grow17h1e802e26c11a75aaE+0xed>
  206b17:	eb 00                	jmp    206b19 <_ZN5alloc7raw_vec11finish_grow17h1e802e26c11a75aaE+0xe9>
  206b19:	eb 1e                	jmp    206b39 <_ZN5alloc7raw_vec11finish_grow17h1e802e26c11a75aaE+0x109>
  206b1b:	0f 0b                	ud2    
  206b1d:	48 8b 54 24 20       	mov    0x20(%rsp),%rdx
    let memory = if let Some((ptr, old_layout)) = current_memory {
  206b22:	b8 01 00 00 00       	mov    $0x1,%eax
  206b27:	31 c9                	xor    %ecx,%ecx
  206b29:	48 83 3a 00          	cmpq   $0x0,(%rdx)
  206b2d:	48 0f 44 c1          	cmove  %rcx,%rax
  206b31:	48 83 f8 01          	cmp    $0x1,%rax
  206b35:	74 3b                	je     206b72 <_ZN5alloc7raw_vec11finish_grow17h1e802e26c11a75aaE+0x142>
  206b37:	eb 75                	jmp    206bae <_ZN5alloc7raw_vec11finish_grow17h1e802e26c11a75aaE+0x17e>
  206b39:	48 8b 7c 24 28       	mov    0x28(%rsp),%rdi
    alloc_guard(new_layout.size())?;
  206b3e:	48 8b b4 24 80 00 00 	mov    0x80(%rsp),%rsi
  206b45:	00 
  206b46:	48 8b 94 24 88 00 00 	mov    0x88(%rsp),%rdx
  206b4d:	00 
  206b4e:	48 89 b4 24 10 01 00 	mov    %rsi,0x110(%rsp)
  206b55:	00 
  206b56:	48 89 94 24 18 01 00 	mov    %rdx,0x118(%rsp)
  206b5d:	00 
  206b5e:	e8 4d 3a 00 00       	callq  20a5b0 <_ZN153_$LT$core..result..Result$LT$T$C$F$GT$$u20$as$u20$core..ops..try_trait..FromResidual$LT$core..result..Result$LT$core..convert..Infallible$C$E$GT$$GT$$GT$13from_residual17h49782eb3ee2624a2E>
  206b63:	eb 82                	jmp    206ae7 <_ZN5alloc7raw_vec11finish_grow17h1e802e26c11a75aaE+0xb7>
  206b65:	48 8b 44 24 30       	mov    0x30(%rsp),%rax
}
  206b6a:	48 81 c4 28 01 00 00 	add    $0x128,%rsp
  206b71:	c3                   	retq   
  206b72:	48 8b 44 24 20       	mov    0x20(%rsp),%rax
    let memory = if let Some((ptr, old_layout)) = current_memory {
  206b77:	48 8b 08             	mov    (%rax),%rcx
  206b7a:	48 89 4c 24 08       	mov    %rcx,0x8(%rsp)
  206b7f:	48 89 8c 24 20 01 00 	mov    %rcx,0x120(%rsp)
  206b86:	00 
  206b87:	48 8b 48 08          	mov    0x8(%rax),%rcx
  206b8b:	48 8b 40 10          	mov    0x10(%rax),%rax
  206b8f:	48 89 8c 24 b8 00 00 	mov    %rcx,0xb8(%rsp)
  206b96:	00 
  206b97:	48 89 84 24 c0 00 00 	mov    %rax,0xc0(%rsp)
  206b9e:	00 
            intrinsics::assume(old_layout.align() == new_layout.align());
  206b9f:	48 8d bc 24 b8 00 00 	lea    0xb8(%rsp),%rdi
  206ba6:	00 
  206ba7:	e8 b4 38 01 00       	callq  21a460 <_ZN4core5alloc6layout6Layout5align17heb2acf6278ea7048E>
  206bac:	eb 57                	jmp    206c05 <_ZN5alloc7raw_vec11finish_grow17h1e802e26c11a75aaE+0x1d5>
  206bae:	48 8b 7c 24 18       	mov    0x18(%rsp),%rdi
        alloc.allocate(new_layout)
  206bb3:	48 8b 74 24 38       	mov    0x38(%rsp),%rsi
  206bb8:	48 8b 54 24 40       	mov    0x40(%rsp),%rdx
  206bbd:	e8 6e 88 01 00       	callq  21f430 <_ZN63_$LT$alloc..alloc..Global$u20$as$u20$core..alloc..Allocator$GT$8allocate17h02f8801b0183b761E>
  206bc2:	48 89 94 24 b0 00 00 	mov    %rdx,0xb0(%rsp)
  206bc9:	00 
  206bca:	48 89 84 24 a8 00 00 	mov    %rax,0xa8(%rsp)
  206bd1:	00 
    let memory = if let Some((ptr, old_layout)) = current_memory {
  206bd2:	eb 00                	jmp    206bd4 <_ZN5alloc7raw_vec11finish_grow17h1e802e26c11a75aaE+0x1a4>
  206bd4:	48 8b 7c 24 28       	mov    0x28(%rsp),%rdi
    memory.map_err(|_| AllocError { layout: new_layout, non_exhaustive: () }.into())
  206bd9:	48 8b b4 24 a8 00 00 	mov    0xa8(%rsp),%rsi
  206be0:	00 
  206be1:	48 8b 94 24 b0 00 00 	mov    0xb0(%rsp),%rdx
  206be8:	00 
  206be9:	48 8d 44 24 38       	lea    0x38(%rsp),%rax
  206bee:	48 89 84 24 c8 00 00 	mov    %rax,0xc8(%rsp)
  206bf5:	00 
  206bf6:	48 8b 8c 24 c8 00 00 	mov    0xc8(%rsp),%rcx
  206bfd:	00 
  206bfe:	e8 ad 43 00 00       	callq  20afb0 <_ZN4core6result19Result$LT$T$C$E$GT$7map_err17hcd5e7b5e4bf8a3a4E>
  206c03:	eb 45                	jmp    206c4a <_ZN5alloc7raw_vec11finish_grow17h1e802e26c11a75aaE+0x21a>
            intrinsics::assume(old_layout.align() == new_layout.align());
  206c05:	48 8d 7c 24 38       	lea    0x38(%rsp),%rdi
  206c0a:	e8 51 38 01 00       	callq  21a460 <_ZN4core5alloc6layout6Layout5align17heb2acf6278ea7048E>
  206c0f:	48 8b 74 24 08       	mov    0x8(%rsp),%rsi
  206c14:	48 8b 7c 24 18       	mov    0x18(%rsp),%rdi
            alloc.grow(ptr, old_layout, new_layout)
  206c19:	48 8b 94 24 b8 00 00 	mov    0xb8(%rsp),%rdx
  206c20:	00 
  206c21:	48 8b 8c 24 c0 00 00 	mov    0xc0(%rsp),%rcx
  206c28:	00 
  206c29:	4c 8b 44 24 38       	mov    0x38(%rsp),%r8
  206c2e:	4c 8b 4c 24 40       	mov    0x40(%rsp),%r9
  206c33:	e8 a8 87 01 00       	callq  21f3e0 <_ZN63_$LT$alloc..alloc..Global$u20$as$u20$core..alloc..Allocator$GT$4grow17hf6a7d38fd3e79973E>
  206c38:	48 89 94 24 b0 00 00 	mov    %rdx,0xb0(%rsp)
  206c3f:	00 
  206c40:	48 89 84 24 a8 00 00 	mov    %rax,0xa8(%rsp)
  206c47:	00 
    let memory = if let Some((ptr, old_layout)) = current_memory {
  206c48:	eb 8a                	jmp    206bd4 <_ZN5alloc7raw_vec11finish_grow17h1e802e26c11a75aaE+0x1a4>
}
  206c4a:	e9 16 ff ff ff       	jmpq   206b65 <_ZN5alloc7raw_vec11finish_grow17h1e802e26c11a75aaE+0x135>
  206c4f:	cc                   	int3   

0000000000206c50 <_ZN5alloc7raw_vec11finish_grow28_$u7b$$u7b$closure$u7d$$u7d$17h86893349264546edE>:
    memory.map_err(|_| AllocError { layout: new_layout, non_exhaustive: () }.into())
  206c50:	48 83 ec 38          	sub    $0x38,%rsp
  206c54:	48 89 7c 24 28       	mov    %rdi,0x28(%rsp)
  206c59:	48 8b 0f             	mov    (%rdi),%rcx
  206c5c:	48 8b 47 08          	mov    0x8(%rdi),%rax
  206c60:	48 89 4c 24 18       	mov    %rcx,0x18(%rsp)
  206c65:	48 89 44 24 20       	mov    %rax,0x20(%rsp)
  206c6a:	48 8b 7c 24 18       	mov    0x18(%rsp),%rdi
  206c6f:	48 8b 74 24 20       	mov    0x20(%rsp),%rsi
  206c74:	e8 d7 34 01 00       	callq  21a150 <_ZN50_$LT$T$u20$as$u20$core..convert..Into$LT$U$GT$$GT$4into17h87bcaabb79263057E>
  206c79:	48 89 44 24 08       	mov    %rax,0x8(%rsp)
  206c7e:	48 89 54 24 10       	mov    %rdx,0x10(%rsp)
  206c83:	48 8b 54 24 10       	mov    0x10(%rsp),%rdx
  206c88:	48 8b 44 24 08       	mov    0x8(%rsp),%rax
  206c8d:	48 83 c4 38          	add    $0x38,%rsp
  206c91:	c3                   	retq   
  206c92:	cc                   	int3   
  206c93:	cc                   	int3   
  206c94:	cc                   	int3   
  206c95:	cc                   	int3   
  206c96:	cc                   	int3   
  206c97:	cc                   	int3   
  206c98:	cc                   	int3   
  206c99:	cc                   	int3   
  206c9a:	cc                   	int3   
  206c9b:	cc                   	int3   
  206c9c:	cc                   	int3   
  206c9d:	cc                   	int3   
  206c9e:	cc                   	int3   
  206c9f:	cc                   	int3   

0000000000206ca0 <_ZN5alloc7raw_vec11finish_grow28_$u7b$$u7b$closure$u7d$$u7d$17hf886e098f4878047E>:
    let new_layout = new_layout.map_err(|_| CapacityOverflow)?;
  206ca0:	48 83 ec 20          	sub    $0x20,%rsp
  206ca4:	48 c7 44 24 08 00 00 	movq   $0x0,0x8(%rsp)
  206cab:	00 00 
  206cad:	48 8b 04 24          	mov    (%rsp),%rax
  206cb1:	48 8b 54 24 08       	mov    0x8(%rsp),%rdx
  206cb6:	48 83 c4 20          	add    $0x20,%rsp
  206cba:	c3                   	retq   
  206cbb:	cc                   	int3   
  206cbc:	cc                   	int3   
  206cbd:	cc                   	int3   
  206cbe:	cc                   	int3   
  206cbf:	cc                   	int3   

0000000000206cc0 <_ZN5alloc7raw_vec14handle_reserve28_$u7b$$u7b$closure$u7d$$u7d$17h1efb542338459167E>:

// Central function for reserve error handling.
#[cfg(not(no_global_oom_handling))]
#[inline]
fn handle_reserve(result: Result<(), TryReserveError>) {
    match result.map_err(|e| e.kind()) {
  206cc0:	48 83 ec 28          	sub    $0x28,%rsp
  206cc4:	48 89 7c 24 10       	mov    %rdi,0x10(%rsp)
  206cc9:	48 89 74 24 18       	mov    %rsi,0x18(%rsp)
  206cce:	48 8d 7c 24 10       	lea    0x10(%rsp),%rdi
  206cd3:	e8 08 5f 01 00       	callq  21cbe0 <_ZN5alloc11collections15TryReserveError4kind17h258eb8c8c0660a86E>
  206cd8:	48 89 04 24          	mov    %rax,(%rsp)
  206cdc:	48 89 54 24 08       	mov    %rdx,0x8(%rsp)
  206ce1:	48 8b 54 24 08       	mov    0x8(%rsp),%rdx
  206ce6:	48 8b 04 24          	mov    (%rsp),%rax
  206cea:	48 83 c4 28          	add    $0x28,%rsp
  206cee:	c3                   	retq   
  206cef:	cc                   	int3   

0000000000206cf0 <_ZN5alloc7raw_vec19RawVec$LT$T$C$A$GT$13needs_to_grow17h5ef58445af2f1ffdE>:
    fn needs_to_grow(&self, len: usize, additional: usize) -> bool {
  206cf0:	48 83 ec 58          	sub    $0x58,%rsp
  206cf4:	48 89 54 24 08       	mov    %rdx,0x8(%rsp)
  206cf9:	48 89 74 24 10       	mov    %rsi,0x10(%rsp)
  206cfe:	48 89 7c 24 20       	mov    %rdi,0x20(%rsp)
  206d03:	48 89 74 24 28       	mov    %rsi,0x28(%rsp)
  206d08:	48 89 54 24 30       	mov    %rdx,0x30(%rsp)
  206d0d:	48 89 7c 24 50       	mov    %rdi,0x50(%rsp)
        if mem::size_of::<T>() == 0 { usize::MAX } else { self.cap }
  206d12:	48 8b 47 08          	mov    0x8(%rdi),%rax
  206d16:	48 89 44 24 48       	mov    %rax,0x48(%rsp)
    }
  206d1b:	48 8b 44 24 48       	mov    0x48(%rsp),%rax
  206d20:	48 89 44 24 18       	mov    %rax,0x18(%rsp)
  206d25:	48 8b 4c 24 10       	mov    0x10(%rsp),%rcx
  206d2a:	48 8b 44 24 18       	mov    0x18(%rsp),%rax
  206d2f:	48 89 44 24 38       	mov    %rax,0x38(%rsp)
  206d34:	48 89 4c 24 40       	mov    %rcx,0x40(%rsp)
        #[rustc_const_stable(feature = "const_wrapping_math", since = "1.32.0")]
        #[must_use = "this returns the result of the operation, \
                      without modifying the original"]
        #[inline(always)]
        pub const fn wrapping_sub(self, rhs: Self) -> Self {
            intrinsics::wrapping_sub(self, rhs)
  206d39:	48 29 c8             	sub    %rcx,%rax
  206d3c:	48 89 04 24          	mov    %rax,(%rsp)
  206d40:	48 8b 44 24 08       	mov    0x8(%rsp),%rax
  206d45:	48 8b 0c 24          	mov    (%rsp),%rcx
        additional > self.capacity().wrapping_sub(len)
  206d49:	48 39 c8             	cmp    %rcx,%rax
  206d4c:	0f 97 c0             	seta   %al
    }
  206d4f:	24 01                	and    $0x1,%al
  206d51:	0f b6 c0             	movzbl %al,%eax
  206d54:	48 83 c4 58          	add    $0x58,%rsp
  206d58:	c3                   	retq   
  206d59:	cc                   	int3   
  206d5a:	cc                   	int3   
  206d5b:	cc                   	int3   
  206d5c:	cc                   	int3   
  206d5d:	cc                   	int3   
  206d5e:	cc                   	int3   
  206d5f:	cc                   	int3   

0000000000206d60 <_ZN5alloc7raw_vec19RawVec$LT$T$C$A$GT$13needs_to_grow17h6c9536dd384d8cd6E>:
    fn needs_to_grow(&self, len: usize, additional: usize) -> bool {
  206d60:	48 83 ec 58          	sub    $0x58,%rsp
  206d64:	48 89 54 24 08       	mov    %rdx,0x8(%rsp)
  206d69:	48 89 74 24 10       	mov    %rsi,0x10(%rsp)
  206d6e:	48 89 7c 24 20       	mov    %rdi,0x20(%rsp)
  206d73:	48 89 74 24 28       	mov    %rsi,0x28(%rsp)
  206d78:	48 89 54 24 30       	mov    %rdx,0x30(%rsp)
  206d7d:	48 89 7c 24 50       	mov    %rdi,0x50(%rsp)
        if mem::size_of::<T>() == 0 { usize::MAX } else { self.cap }
  206d82:	48 8b 47 08          	mov    0x8(%rdi),%rax
  206d86:	48 89 44 24 48       	mov    %rax,0x48(%rsp)
    }
  206d8b:	48 8b 44 24 48       	mov    0x48(%rsp),%rax
  206d90:	48 89 44 24 18       	mov    %rax,0x18(%rsp)
  206d95:	48 8b 4c 24 10       	mov    0x10(%rsp),%rcx
  206d9a:	48 8b 44 24 18       	mov    0x18(%rsp),%rax
  206d9f:	48 89 44 24 38       	mov    %rax,0x38(%rsp)
  206da4:	48 89 4c 24 40       	mov    %rcx,0x40(%rsp)
  206da9:	48 29 c8             	sub    %rcx,%rax
  206dac:	48 89 04 24          	mov    %rax,(%rsp)
  206db0:	48 8b 44 24 08       	mov    0x8(%rsp),%rax
  206db5:	48 8b 0c 24          	mov    (%rsp),%rcx
        additional > self.capacity().wrapping_sub(len)
  206db9:	48 39 c8             	cmp    %rcx,%rax
  206dbc:	0f 97 c0             	seta   %al
    }
  206dbf:	24 01                	and    $0x1,%al
  206dc1:	0f b6 c0             	movzbl %al,%eax
  206dc4:	48 83 c4 58          	add    $0x58,%rsp
  206dc8:	c3                   	retq   
  206dc9:	cc                   	int3   
  206dca:	cc                   	int3   
  206dcb:	cc                   	int3   
  206dcc:	cc                   	int3   
  206dcd:	cc                   	int3   
  206dce:	cc                   	int3   
  206dcf:	cc                   	int3   

0000000000206dd0 <_ZN5alloc7raw_vec19RawVec$LT$T$C$A$GT$13needs_to_grow17he7f2300bb740c949E>:
    fn needs_to_grow(&self, len: usize, additional: usize) -> bool {
  206dd0:	48 83 ec 58          	sub    $0x58,%rsp
  206dd4:	48 89 54 24 08       	mov    %rdx,0x8(%rsp)
  206dd9:	48 89 74 24 10       	mov    %rsi,0x10(%rsp)
  206dde:	48 89 7c 24 20       	mov    %rdi,0x20(%rsp)
  206de3:	48 89 74 24 28       	mov    %rsi,0x28(%rsp)
  206de8:	48 89 54 24 30       	mov    %rdx,0x30(%rsp)
  206ded:	48 89 7c 24 50       	mov    %rdi,0x50(%rsp)
        if mem::size_of::<T>() == 0 { usize::MAX } else { self.cap }
  206df2:	48 8b 47 08          	mov    0x8(%rdi),%rax
  206df6:	48 89 44 24 48       	mov    %rax,0x48(%rsp)
    }
  206dfb:	48 8b 44 24 48       	mov    0x48(%rsp),%rax
  206e00:	48 89 44 24 18       	mov    %rax,0x18(%rsp)
  206e05:	48 8b 4c 24 10       	mov    0x10(%rsp),%rcx
  206e0a:	48 8b 44 24 18       	mov    0x18(%rsp),%rax
  206e0f:	48 89 44 24 38       	mov    %rax,0x38(%rsp)
  206e14:	48 89 4c 24 40       	mov    %rcx,0x40(%rsp)
  206e19:	48 29 c8             	sub    %rcx,%rax
  206e1c:	48 89 04 24          	mov    %rax,(%rsp)
  206e20:	48 8b 44 24 08       	mov    0x8(%rsp),%rax
  206e25:	48 8b 0c 24          	mov    (%rsp),%rcx
        additional > self.capacity().wrapping_sub(len)
  206e29:	48 39 c8             	cmp    %rcx,%rax
  206e2c:	0f 97 c0             	seta   %al
    }
  206e2f:	24 01                	and    $0x1,%al
  206e31:	0f b6 c0             	movzbl %al,%eax
  206e34:	48 83 c4 58          	add    $0x58,%rsp
  206e38:	c3                   	retq   
  206e39:	cc                   	int3   
  206e3a:	cc                   	int3   
  206e3b:	cc                   	int3   
  206e3c:	cc                   	int3   
  206e3d:	cc                   	int3   
  206e3e:	cc                   	int3   
  206e3f:	cc                   	int3   

0000000000206e40 <_ZN5alloc7raw_vec19RawVec$LT$T$C$A$GT$14current_memory17h39f6a902ac7405c0E>:
    fn current_memory(&self) -> Option<(NonNull<u8>, Layout)> {
  206e40:	48 81 ec 88 00 00 00 	sub    $0x88,%rsp
  206e47:	48 89 74 24 28       	mov    %rsi,0x28(%rsp)
  206e4c:	48 89 7c 24 30       	mov    %rdi,0x30(%rsp)
  206e51:	48 89 7c 24 38       	mov    %rdi,0x38(%rsp)
  206e56:	48 89 74 24 60       	mov    %rsi,0x60(%rsp)
        if mem::size_of::<T>() == 0 || self.cap == 0 {
  206e5b:	b8 20 00 00 00       	mov    $0x20,%eax
  206e60:	48 83 f8 00          	cmp    $0x0,%rax
  206e64:	75 07                	jne    206e6d <_ZN5alloc7raw_vec19RawVec$LT$T$C$A$GT$14current_memory17h39f6a902ac7405c0E+0x2d>
  206e66:	c6 44 24 47 01       	movb   $0x1,0x47(%rsp)
  206e6b:	eb 13                	jmp    206e80 <_ZN5alloc7raw_vec19RawVec$LT$T$C$A$GT$14current_memory17h39f6a902ac7405c0E+0x40>
  206e6d:	48 8b 44 24 28       	mov    0x28(%rsp),%rax
  206e72:	48 83 78 08 00       	cmpq   $0x0,0x8(%rax)
  206e77:	0f 94 c0             	sete   %al
  206e7a:	24 01                	and    $0x1,%al
  206e7c:	88 44 24 47          	mov    %al,0x47(%rsp)
  206e80:	f6 44 24 47 01       	testb  $0x1,0x47(%rsp)
  206e85:	75 0b                	jne    206e92 <_ZN5alloc7raw_vec19RawVec$LT$T$C$A$GT$14current_memory17h39f6a902ac7405c0E+0x52>
                let align = mem::align_of::<T>();
  206e87:	48 c7 44 24 68 04 00 	movq   $0x4,0x68(%rsp)
  206e8e:	00 00 
  206e90:	eb 19                	jmp    206eab <_ZN5alloc7raw_vec19RawVec$LT$T$C$A$GT$14current_memory17h39f6a902ac7405c0E+0x6b>
  206e92:	48 8b 44 24 30       	mov    0x30(%rsp),%rax
            None
  206e97:	48 c7 00 00 00 00 00 	movq   $0x0,(%rax)
  206e9e:	48 8b 44 24 38       	mov    0x38(%rsp),%rax
    }
  206ea3:	48 81 c4 88 00 00 00 	add    $0x88,%rsp
  206eaa:	c3                   	retq   
                let size = mem::size_of::<T>() * self.cap;
  206eab:	eb 00                	jmp    206ead <_ZN5alloc7raw_vec19RawVec$LT$T$C$A$GT$14current_memory17h39f6a902ac7405c0E+0x6d>
  206ead:	48 8b 44 24 28       	mov    0x28(%rsp),%rax
  206eb2:	48 8b 78 08          	mov    0x8(%rax),%rdi
  206eb6:	48 c1 e7 05          	shl    $0x5,%rdi
  206eba:	48 89 7c 24 70       	mov    %rdi,0x70(%rsp)
                let layout = Layout::from_size_align_unchecked(size, align);
  206ebf:	be 04 00 00 00       	mov    $0x4,%esi
  206ec4:	e8 37 35 01 00       	callq  21a400 <_ZN4core5alloc6layout6Layout25from_size_align_unchecked17h3fcf5f62e634fa6fE>
  206ec9:	48 89 44 24 18       	mov    %rax,0x18(%rsp)
  206ece:	48 89 54 24 20       	mov    %rdx,0x20(%rsp)
  206ed3:	48 89 44 24 78       	mov    %rax,0x78(%rsp)
  206ed8:	48 89 94 24 80 00 00 	mov    %rdx,0x80(%rsp)
  206edf:	00 
  206ee0:	48 8b 44 24 28       	mov    0x28(%rsp),%rax
                Some((self.ptr.cast().into(), layout))
  206ee5:	48 8b 38             	mov    (%rax),%rdi
  206ee8:	e8 93 0a 01 00       	callq  217980 <_ZN4core3ptr6unique15Unique$LT$T$GT$4cast17h2891587fd6e47c2cE>
  206eed:	48 89 44 24 10       	mov    %rax,0x10(%rsp)
  206ef2:	48 8b 7c 24 10       	mov    0x10(%rsp),%rdi
  206ef7:	e8 54 0b 01 00       	callq  217a50 <_ZN50_$LT$T$u20$as$u20$core..convert..Into$LT$U$GT$$GT$4into17h0611c87f4d271f69E>
  206efc:	48 89 44 24 08       	mov    %rax,0x8(%rsp)
  206f01:	48 8b 44 24 30       	mov    0x30(%rsp),%rax
  206f06:	48 8b 4c 24 20       	mov    0x20(%rsp),%rcx
  206f0b:	48 8b 54 24 18       	mov    0x18(%rsp),%rdx
  206f10:	48 8b 74 24 08       	mov    0x8(%rsp),%rsi
  206f15:	48 89 74 24 48       	mov    %rsi,0x48(%rsp)
  206f1a:	48 89 54 24 50       	mov    %rdx,0x50(%rsp)
  206f1f:	48 89 4c 24 58       	mov    %rcx,0x58(%rsp)
  206f24:	48 8b 4c 24 48       	mov    0x48(%rsp),%rcx
  206f29:	48 89 08             	mov    %rcx,(%rax)
  206f2c:	48 8b 4c 24 50       	mov    0x50(%rsp),%rcx
  206f31:	48 89 48 08          	mov    %rcx,0x8(%rax)
  206f35:	48 8b 4c 24 58       	mov    0x58(%rsp),%rcx
  206f3a:	48 89 48 10          	mov    %rcx,0x10(%rax)
        if mem::size_of::<T>() == 0 || self.cap == 0 {
  206f3e:	e9 5b ff ff ff       	jmpq   206e9e <_ZN5alloc7raw_vec19RawVec$LT$T$C$A$GT$14current_memory17h39f6a902ac7405c0E+0x5e>
  206f43:	cc                   	int3   
  206f44:	cc                   	int3   
  206f45:	cc                   	int3   
  206f46:	cc                   	int3   
  206f47:	cc                   	int3   
  206f48:	cc                   	int3   
  206f49:	cc                   	int3   
  206f4a:	cc                   	int3   
  206f4b:	cc                   	int3   
  206f4c:	cc                   	int3   
  206f4d:	cc                   	int3   
  206f4e:	cc                   	int3   
  206f4f:	cc                   	int3   

0000000000206f50 <_ZN5alloc7raw_vec19RawVec$LT$T$C$A$GT$14current_memory17h85387c7e272b7970E>:
    fn current_memory(&self) -> Option<(NonNull<u8>, Layout)> {
  206f50:	48 81 ec 88 00 00 00 	sub    $0x88,%rsp
  206f57:	48 89 74 24 28       	mov    %rsi,0x28(%rsp)
  206f5c:	48 89 7c 24 30       	mov    %rdi,0x30(%rsp)
  206f61:	48 89 7c 24 38       	mov    %rdi,0x38(%rsp)
  206f66:	48 89 74 24 60       	mov    %rsi,0x60(%rsp)
        if mem::size_of::<T>() == 0 || self.cap == 0 {
  206f6b:	b8 08 00 00 00       	mov    $0x8,%eax
  206f70:	48 83 f8 00          	cmp    $0x0,%rax
  206f74:	75 07                	jne    206f7d <_ZN5alloc7raw_vec19RawVec$LT$T$C$A$GT$14current_memory17h85387c7e272b7970E+0x2d>
  206f76:	c6 44 24 47 01       	movb   $0x1,0x47(%rsp)
  206f7b:	eb 13                	jmp    206f90 <_ZN5alloc7raw_vec19RawVec$LT$T$C$A$GT$14current_memory17h85387c7e272b7970E+0x40>
  206f7d:	48 8b 44 24 28       	mov    0x28(%rsp),%rax
  206f82:	48 83 78 08 00       	cmpq   $0x0,0x8(%rax)
  206f87:	0f 94 c0             	sete   %al
  206f8a:	24 01                	and    $0x1,%al
  206f8c:	88 44 24 47          	mov    %al,0x47(%rsp)
  206f90:	f6 44 24 47 01       	testb  $0x1,0x47(%rsp)
  206f95:	75 0b                	jne    206fa2 <_ZN5alloc7raw_vec19RawVec$LT$T$C$A$GT$14current_memory17h85387c7e272b7970E+0x52>
                let align = mem::align_of::<T>();
  206f97:	48 c7 44 24 68 08 00 	movq   $0x8,0x68(%rsp)
  206f9e:	00 00 
  206fa0:	eb 19                	jmp    206fbb <_ZN5alloc7raw_vec19RawVec$LT$T$C$A$GT$14current_memory17h85387c7e272b7970E+0x6b>
  206fa2:	48 8b 44 24 30       	mov    0x30(%rsp),%rax
            None
  206fa7:	48 c7 00 00 00 00 00 	movq   $0x0,(%rax)
  206fae:	48 8b 44 24 38       	mov    0x38(%rsp),%rax
    }
  206fb3:	48 81 c4 88 00 00 00 	add    $0x88,%rsp
  206fba:	c3                   	retq   
                let size = mem::size_of::<T>() * self.cap;
  206fbb:	eb 00                	jmp    206fbd <_ZN5alloc7raw_vec19RawVec$LT$T$C$A$GT$14current_memory17h85387c7e272b7970E+0x6d>
  206fbd:	48 8b 44 24 28       	mov    0x28(%rsp),%rax
  206fc2:	48 8b 78 08          	mov    0x8(%rax),%rdi
  206fc6:	48 c1 e7 03          	shl    $0x3,%rdi
  206fca:	48 89 7c 24 70       	mov    %rdi,0x70(%rsp)
                let layout = Layout::from_size_align_unchecked(size, align);
  206fcf:	be 08 00 00 00       	mov    $0x8,%esi
  206fd4:	e8 27 34 01 00       	callq  21a400 <_ZN4core5alloc6layout6Layout25from_size_align_unchecked17h3fcf5f62e634fa6fE>
  206fd9:	48 89 44 24 18       	mov    %rax,0x18(%rsp)
  206fde:	48 89 54 24 20       	mov    %rdx,0x20(%rsp)
  206fe3:	48 89 44 24 78       	mov    %rax,0x78(%rsp)
  206fe8:	48 89 94 24 80 00 00 	mov    %rdx,0x80(%rsp)
  206fef:	00 
  206ff0:	48 8b 44 24 28       	mov    0x28(%rsp),%rax
                Some((self.ptr.cast().into(), layout))
  206ff5:	48 8b 38             	mov    (%rax),%rdi
  206ff8:	e8 e3 09 01 00       	callq  2179e0 <_ZN4core3ptr6unique15Unique$LT$T$GT$4cast17hf2b47319a3fe8fdcE>
  206ffd:	48 89 44 24 10       	mov    %rax,0x10(%rsp)
  207002:	48 8b 7c 24 10       	mov    0x10(%rsp),%rdi
  207007:	e8 44 0a 01 00       	callq  217a50 <_ZN50_$LT$T$u20$as$u20$core..convert..Into$LT$U$GT$$GT$4into17h0611c87f4d271f69E>
  20700c:	48 89 44 24 08       	mov    %rax,0x8(%rsp)
  207011:	48 8b 44 24 30       	mov    0x30(%rsp),%rax
  207016:	48 8b 4c 24 20       	mov    0x20(%rsp),%rcx
  20701b:	48 8b 54 24 18       	mov    0x18(%rsp),%rdx
  207020:	48 8b 74 24 08       	mov    0x8(%rsp),%rsi
  207025:	48 89 74 24 48       	mov    %rsi,0x48(%rsp)
  20702a:	48 89 54 24 50       	mov    %rdx,0x50(%rsp)
  20702f:	48 89 4c 24 58       	mov    %rcx,0x58(%rsp)
  207034:	48 8b 4c 24 48       	mov    0x48(%rsp),%rcx
  207039:	48 89 08             	mov    %rcx,(%rax)
  20703c:	48 8b 4c 24 50       	mov    0x50(%rsp),%rcx
  207041:	48 89 48 08          	mov    %rcx,0x8(%rax)
  207045:	48 8b 4c 24 58       	mov    0x58(%rsp),%rcx
  20704a:	48 89 48 10          	mov    %rcx,0x10(%rax)
        if mem::size_of::<T>() == 0 || self.cap == 0 {
  20704e:	e9 5b ff ff ff       	jmpq   206fae <_ZN5alloc7raw_vec19RawVec$LT$T$C$A$GT$14current_memory17h85387c7e272b7970E+0x5e>
  207053:	cc                   	int3   
  207054:	cc                   	int3   
  207055:	cc                   	int3   
  207056:	cc                   	int3   
  207057:	cc                   	int3   
  207058:	cc                   	int3   
  207059:	cc                   	int3   
  20705a:	cc                   	int3   
  20705b:	cc                   	int3   
  20705c:	cc                   	int3   
  20705d:	cc                   	int3   
  20705e:	cc                   	int3   
  20705f:	cc                   	int3   

0000000000207060 <_ZN5alloc7raw_vec19RawVec$LT$T$C$A$GT$14current_memory17hc04146cff3006b9bE>:
    fn current_memory(&self) -> Option<(NonNull<u8>, Layout)> {
  207060:	48 81 ec 88 00 00 00 	sub    $0x88,%rsp
  207067:	48 89 74 24 28       	mov    %rsi,0x28(%rsp)
  20706c:	48 89 7c 24 30       	mov    %rdi,0x30(%rsp)
  207071:	48 89 7c 24 38       	mov    %rdi,0x38(%rsp)
  207076:	48 89 74 24 60       	mov    %rsi,0x60(%rsp)
        if mem::size_of::<T>() == 0 || self.cap == 0 {
  20707b:	b8 06 00 00 00       	mov    $0x6,%eax
  207080:	48 83 f8 00          	cmp    $0x0,%rax
  207084:	75 07                	jne    20708d <_ZN5alloc7raw_vec19RawVec$LT$T$C$A$GT$14current_memory17hc04146cff3006b9bE+0x2d>
  207086:	c6 44 24 47 01       	movb   $0x1,0x47(%rsp)
  20708b:	eb 13                	jmp    2070a0 <_ZN5alloc7raw_vec19RawVec$LT$T$C$A$GT$14current_memory17hc04146cff3006b9bE+0x40>
  20708d:	48 8b 44 24 28       	mov    0x28(%rsp),%rax
  207092:	48 83 78 08 00       	cmpq   $0x0,0x8(%rax)
  207097:	0f 94 c0             	sete   %al
  20709a:	24 01                	and    $0x1,%al
  20709c:	88 44 24 47          	mov    %al,0x47(%rsp)
  2070a0:	f6 44 24 47 01       	testb  $0x1,0x47(%rsp)
  2070a5:	75 0b                	jne    2070b2 <_ZN5alloc7raw_vec19RawVec$LT$T$C$A$GT$14current_memory17hc04146cff3006b9bE+0x52>
                let align = mem::align_of::<T>();
  2070a7:	48 c7 44 24 68 01 00 	movq   $0x1,0x68(%rsp)
  2070ae:	00 00 
  2070b0:	eb 19                	jmp    2070cb <_ZN5alloc7raw_vec19RawVec$LT$T$C$A$GT$14current_memory17hc04146cff3006b9bE+0x6b>
  2070b2:	48 8b 44 24 30       	mov    0x30(%rsp),%rax
            None
  2070b7:	48 c7 00 00 00 00 00 	movq   $0x0,(%rax)
  2070be:	48 8b 44 24 38       	mov    0x38(%rsp),%rax
    }
  2070c3:	48 81 c4 88 00 00 00 	add    $0x88,%rsp
  2070ca:	c3                   	retq   
                let size = mem::size_of::<T>() * self.cap;
  2070cb:	eb 00                	jmp    2070cd <_ZN5alloc7raw_vec19RawVec$LT$T$C$A$GT$14current_memory17hc04146cff3006b9bE+0x6d>
  2070cd:	48 8b 44 24 28       	mov    0x28(%rsp),%rax
  2070d2:	48 6b 78 08 06       	imul   $0x6,0x8(%rax),%rdi
  2070d7:	48 89 7c 24 70       	mov    %rdi,0x70(%rsp)
                let layout = Layout::from_size_align_unchecked(size, align);
  2070dc:	be 01 00 00 00       	mov    $0x1,%esi
  2070e1:	e8 1a 33 01 00       	callq  21a400 <_ZN4core5alloc6layout6Layout25from_size_align_unchecked17h3fcf5f62e634fa6fE>
  2070e6:	48 89 44 24 18       	mov    %rax,0x18(%rsp)
  2070eb:	48 89 54 24 20       	mov    %rdx,0x20(%rsp)
  2070f0:	48 89 44 24 78       	mov    %rax,0x78(%rsp)
  2070f5:	48 89 94 24 80 00 00 	mov    %rdx,0x80(%rsp)
  2070fc:	00 
  2070fd:	48 8b 44 24 28       	mov    0x28(%rsp),%rax
                Some((self.ptr.cast().into(), layout))
  207102:	48 8b 38             	mov    (%rax),%rdi
  207105:	e8 a6 08 01 00       	callq  2179b0 <_ZN4core3ptr6unique15Unique$LT$T$GT$4cast17h4b66210a99f50f58E>
  20710a:	48 89 44 24 10       	mov    %rax,0x10(%rsp)
  20710f:	48 8b 7c 24 10       	mov    0x10(%rsp),%rdi
  207114:	e8 37 09 01 00       	callq  217a50 <_ZN50_$LT$T$u20$as$u20$core..convert..Into$LT$U$GT$$GT$4into17h0611c87f4d271f69E>
  207119:	48 89 44 24 08       	mov    %rax,0x8(%rsp)
  20711e:	48 8b 44 24 30       	mov    0x30(%rsp),%rax
  207123:	48 8b 4c 24 20       	mov    0x20(%rsp),%rcx
  207128:	48 8b 54 24 18       	mov    0x18(%rsp),%rdx
  20712d:	48 8b 74 24 08       	mov    0x8(%rsp),%rsi
  207132:	48 89 74 24 48       	mov    %rsi,0x48(%rsp)
  207137:	48 89 54 24 50       	mov    %rdx,0x50(%rsp)
  20713c:	48 89 4c 24 58       	mov    %rcx,0x58(%rsp)
  207141:	48 8b 4c 24 48       	mov    0x48(%rsp),%rcx
  207146:	48 89 08             	mov    %rcx,(%rax)
  207149:	48 8b 4c 24 50       	mov    0x50(%rsp),%rcx
  20714e:	48 89 48 08          	mov    %rcx,0x8(%rax)
  207152:	48 8b 4c 24 58       	mov    0x58(%rsp),%rcx
  207157:	48 89 48 10          	mov    %rcx,0x10(%rax)
        if mem::size_of::<T>() == 0 || self.cap == 0 {
  20715b:	e9 5e ff ff ff       	jmpq   2070be <_ZN5alloc7raw_vec19RawVec$LT$T$C$A$GT$14current_memory17hc04146cff3006b9bE+0x5e>

0000000000207160 <_ZN5alloc7raw_vec19RawVec$LT$T$C$A$GT$14grow_amortized17h1d8134efb335945dE>:
    fn grow_amortized(&mut self, len: usize, additional: usize) -> Result<(), TryReserveError> {
  207160:	48 81 ec 88 01 00 00 	sub    $0x188,%rsp
  207167:	48 89 4c 24 40       	mov    %rcx,0x40(%rsp)
  20716c:	48 89 54 24 48       	mov    %rdx,0x48(%rsp)
  207171:	48 89 74 24 50       	mov    %rsi,0x50(%rsp)
  207176:	48 89 7c 24 58       	mov    %rdi,0x58(%rsp)
  20717b:	48 89 7c 24 60       	mov    %rdi,0x60(%rsp)
  207180:	48 89 b4 24 00 01 00 	mov    %rsi,0x100(%rsp)
  207187:	00 
  207188:	48 89 94 24 08 01 00 	mov    %rdx,0x108(%rsp)
  20718f:	00 
  207190:	48 89 8c 24 10 01 00 	mov    %rcx,0x110(%rsp)
  207197:	00 
        if mem::size_of::<T>() == 0 {
  207198:	b8 08 00 00 00       	mov    $0x8,%eax
  20719d:	48 83 f8 00          	cmp    $0x0,%rax
  2071a1:	75 27                	jne    2071ca <_ZN5alloc7raw_vec19RawVec$LT$T$C$A$GT$14grow_amortized17h1d8134efb335945dE+0x6a>
            return Err(CapacityOverflow.into());
  2071a3:	48 c7 44 24 70 00 00 	movq   $0x0,0x70(%rsp)
  2071aa:	00 00 
  2071ac:	48 8b 7c 24 68       	mov    0x68(%rsp),%rdi
  2071b1:	48 8b 74 24 70       	mov    0x70(%rsp),%rsi
  2071b6:	e8 95 2f 01 00       	callq  21a150 <_ZN50_$LT$T$u20$as$u20$core..convert..Into$LT$U$GT$$GT$4into17h87bcaabb79263057E>
  2071bb:	48 89 44 24 30       	mov    %rax,0x30(%rsp)
  2071c0:	48 89 54 24 38       	mov    %rdx,0x38(%rsp)
  2071c5:	e9 fa 01 00 00       	jmpq   2073c4 <_ZN5alloc7raw_vec19RawVec$LT$T$C$A$GT$14grow_amortized17h1d8134efb335945dE+0x264>
  2071ca:	48 8b 74 24 40       	mov    0x40(%rsp),%rsi
  2071cf:	48 8b 7c 24 48       	mov    0x48(%rsp),%rdi
        let required_cap = len.checked_add(additional).ok_or(CapacityOverflow)?;
  2071d4:	e8 f7 12 02 00       	callq  2284d0 <_ZN4core3num23_$LT$impl$u20$usize$GT$11checked_add17h77dae21b15b51294E>
  2071d9:	48 89 44 24 20       	mov    %rax,0x20(%rsp)
  2071de:	48 89 54 24 28       	mov    %rdx,0x28(%rsp)
  2071e3:	48 8b 54 24 28       	mov    0x28(%rsp),%rdx
  2071e8:	48 8b 74 24 20       	mov    0x20(%rsp),%rsi
  2071ed:	48 c7 84 24 b0 00 00 	movq   $0x0,0xb0(%rsp)
  2071f4:	00 00 00 00 00 
  2071f9:	48 8b 8c 24 a8 00 00 	mov    0xa8(%rsp),%rcx
  207200:	00 
  207201:	4c 8b 84 24 b0 00 00 	mov    0xb0(%rsp),%r8
  207208:	00 
  207209:	48 8d bc 24 90 00 00 	lea    0x90(%rsp),%rdi
  207210:	00 
  207211:	e8 0a 87 00 00       	callq  20f920 <_ZN4core6option15Option$LT$T$GT$5ok_or17h7384bd840948c75fE>
  207216:	48 8d 7c 24 78       	lea    0x78(%rsp),%rdi
  20721b:	48 8d b4 24 90 00 00 	lea    0x90(%rsp),%rsi
  207222:	00 
  207223:	e8 f8 40 00 00       	callq  20b320 <_ZN79_$LT$core..result..Result$LT$T$C$E$GT$$u20$as$u20$core..ops..try_trait..Try$GT$6branch17h95fa5695fb2a340fE>
  207228:	48 8b 44 24 78       	mov    0x78(%rsp),%rax
  20722d:	48 85 c0             	test   %rax,%rax
  207230:	74 06                	je     207238 <_ZN5alloc7raw_vec19RawVec$LT$T$C$A$GT$14grow_amortized17h1d8134efb335945dE+0xd8>
  207232:	eb 00                	jmp    207234 <_ZN5alloc7raw_vec19RawVec$LT$T$C$A$GT$14grow_amortized17h1d8134efb335945dE+0xd4>
  207234:	eb 3b                	jmp    207271 <_ZN5alloc7raw_vec19RawVec$LT$T$C$A$GT$14grow_amortized17h1d8134efb335945dE+0x111>
  207236:	0f 0b                	ud2    
  207238:	48 8b 44 24 50       	mov    0x50(%rsp),%rax
  20723d:	48 8b b4 24 80 00 00 	mov    0x80(%rsp),%rsi
  207244:	00 
  207245:	48 89 b4 24 28 01 00 	mov    %rsi,0x128(%rsp)
  20724c:	00 
  20724d:	48 89 b4 24 30 01 00 	mov    %rsi,0x130(%rsp)
  207254:	00 
        let cap = cmp::max(self.cap * 2, required_cap);
  207255:	48 8b 78 08          	mov    0x8(%rax),%rdi
  207259:	48 c1 e7 01          	shl    $0x1,%rdi
  20725d:	e8 ce 15 02 00       	callq  228830 <_ZN4core3cmp3max17h3ce6bdcccb4f6567E>
  207262:	48 89 44 24 18       	mov    %rax,0x18(%rsp)
  207267:	48 89 84 24 38 01 00 	mov    %rax,0x138(%rsp)
  20726e:	00 
  20726f:	eb 31                	jmp    2072a2 <_ZN5alloc7raw_vec19RawVec$LT$T$C$A$GT$14grow_amortized17h1d8134efb335945dE+0x142>
  207271:	48 8b 7c 24 58       	mov    0x58(%rsp),%rdi
        let required_cap = len.checked_add(additional).ok_or(CapacityOverflow)?;
  207276:	48 8b b4 24 80 00 00 	mov    0x80(%rsp),%rsi
  20727d:	00 
  20727e:	48 8b 94 24 88 00 00 	mov    0x88(%rsp),%rdx
  207285:	00 
  207286:	48 89 b4 24 18 01 00 	mov    %rsi,0x118(%rsp)
  20728d:	00 
  20728e:	48 89 94 24 20 01 00 	mov    %rdx,0x120(%rsp)
  207295:	00 
  207296:	e8 95 34 00 00       	callq  20a730 <_ZN153_$LT$core..result..Result$LT$T$C$F$GT$$u20$as$u20$core..ops..try_trait..FromResidual$LT$core..result..Result$LT$core..convert..Infallible$C$E$GT$$GT$$GT$13from_residual17hc0990f6fa1d8cf4cE>
  20729b:	eb 00                	jmp    20729d <_ZN5alloc7raw_vec19RawVec$LT$T$C$A$GT$14grow_amortized17h1d8134efb335945dE+0x13d>
  20729d:	e9 07 01 00 00       	jmpq   2073a9 <_ZN5alloc7raw_vec19RawVec$LT$T$C$A$GT$14grow_amortized17h1d8134efb335945dE+0x249>
  2072a2:	48 8b 74 24 18       	mov    0x18(%rsp),%rsi
        let cap = cmp::max(Self::MIN_NON_ZERO_CAP, cap);
  2072a7:	bf 04 00 00 00       	mov    $0x4,%edi
  2072ac:	e8 7f 15 02 00       	callq  228830 <_ZN4core3cmp3max17h3ce6bdcccb4f6567E>
  2072b1:	48 89 44 24 10       	mov    %rax,0x10(%rsp)
  2072b6:	48 89 84 24 40 01 00 	mov    %rax,0x140(%rsp)
  2072bd:	00 
  2072be:	48 8b 7c 24 10       	mov    0x10(%rsp),%rdi
        let new_layout = Layout::array::<T>(cap);
  2072c3:	e8 28 c5 00 00       	callq  2137f0 <_ZN4core5alloc6layout6Layout5array17h1eddb6d5bbbf5a11E>
  2072c8:	48 89 04 24          	mov    %rax,(%rsp)
  2072cc:	48 89 54 24 08       	mov    %rdx,0x8(%rsp)
  2072d1:	48 89 84 24 48 01 00 	mov    %rax,0x148(%rsp)
  2072d8:	00 
  2072d9:	48 89 94 24 50 01 00 	mov    %rdx,0x150(%rsp)
  2072e0:	00 
  2072e1:	48 8b 74 24 50       	mov    0x50(%rsp),%rsi
        let ptr = finish_grow(new_layout, self.current_memory(), &mut self.alloc)?;
  2072e6:	48 8d bc 24 e8 00 00 	lea    0xe8(%rsp),%rdi
  2072ed:	00 
  2072ee:	e8 5d fc ff ff       	callq  206f50 <_ZN5alloc7raw_vec19RawVec$LT$T$C$A$GT$14current_memory17h85387c7e272b7970E>
  2072f3:	48 8b 54 24 08       	mov    0x8(%rsp),%rdx
  2072f8:	48 8b 34 24          	mov    (%rsp),%rsi
  2072fc:	4c 8b 44 24 50       	mov    0x50(%rsp),%r8
  207301:	48 8d bc 24 d0 00 00 	lea    0xd0(%rsp),%rdi
  207308:	00 
  207309:	48 8d 8c 24 e8 00 00 	lea    0xe8(%rsp),%rcx
  207310:	00 
  207311:	e8 1a f7 ff ff       	callq  206a30 <_ZN5alloc7raw_vec11finish_grow17h1e802e26c11a75aaE>
  207316:	48 8d bc 24 b8 00 00 	lea    0xb8(%rsp),%rdi
  20731d:	00 
  20731e:	48 8d b4 24 d0 00 00 	lea    0xd0(%rsp),%rsi
  207325:	00 
  207326:	e8 15 3f 00 00       	callq  20b240 <_ZN79_$LT$core..result..Result$LT$T$C$E$GT$$u20$as$u20$core..ops..try_trait..Try$GT$6branch17h7f995eaa4ea58de0E>
  20732b:	48 8b 84 24 b8 00 00 	mov    0xb8(%rsp),%rax
  207332:	00 
  207333:	48 85 c0             	test   %rax,%rax
  207336:	74 06                	je     20733e <_ZN5alloc7raw_vec19RawVec$LT$T$C$A$GT$14grow_amortized17h1d8134efb335945dE+0x1de>
  207338:	eb 00                	jmp    20733a <_ZN5alloc7raw_vec19RawVec$LT$T$C$A$GT$14grow_amortized17h1d8134efb335945dE+0x1da>
  20733a:	eb 3e                	jmp    20737a <_ZN5alloc7raw_vec19RawVec$LT$T$C$A$GT$14grow_amortized17h1d8134efb335945dE+0x21a>
  20733c:	0f 0b                	ud2    
  20733e:	48 8b 7c 24 50       	mov    0x50(%rsp),%rdi
  207343:	48 8b b4 24 c0 00 00 	mov    0xc0(%rsp),%rsi
  20734a:	00 
  20734b:	48 8b 94 24 c8 00 00 	mov    0xc8(%rsp),%rdx
  207352:	00 
  207353:	48 89 b4 24 68 01 00 	mov    %rsi,0x168(%rsp)
  20735a:	00 
  20735b:	48 89 94 24 70 01 00 	mov    %rdx,0x170(%rsp)
  207362:	00 
  207363:	48 89 b4 24 78 01 00 	mov    %rsi,0x178(%rsp)
  20736a:	00 
  20736b:	48 89 94 24 80 01 00 	mov    %rdx,0x180(%rsp)
  207372:	00 
        self.set_ptr(ptr);
  207373:	e8 d8 09 00 00       	callq  207d50 <_ZN5alloc7raw_vec19RawVec$LT$T$C$A$GT$7set_ptr17h9b9ccef11e164c81E>
  207378:	eb 3c                	jmp    2073b6 <_ZN5alloc7raw_vec19RawVec$LT$T$C$A$GT$14grow_amortized17h1d8134efb335945dE+0x256>
  20737a:	48 8b 7c 24 58       	mov    0x58(%rsp),%rdi
        let ptr = finish_grow(new_layout, self.current_memory(), &mut self.alloc)?;
  20737f:	48 8b b4 24 c0 00 00 	mov    0xc0(%rsp),%rsi
  207386:	00 
  207387:	48 8b 94 24 c8 00 00 	mov    0xc8(%rsp),%rdx
  20738e:	00 
  20738f:	48 89 b4 24 58 01 00 	mov    %rsi,0x158(%rsp)
  207396:	00 
  207397:	48 89 94 24 60 01 00 	mov    %rdx,0x160(%rsp)
  20739e:	00 
  20739f:	e8 ec 32 00 00       	callq  20a690 <_ZN153_$LT$core..result..Result$LT$T$C$F$GT$$u20$as$u20$core..ops..try_trait..FromResidual$LT$core..result..Result$LT$core..convert..Infallible$C$E$GT$$GT$$GT$13from_residual17h8b855bbe44d4466aE>
  2073a4:	e9 f4 fe ff ff       	jmpq   20729d <_ZN5alloc7raw_vec19RawVec$LT$T$C$A$GT$14grow_amortized17h1d8134efb335945dE+0x13d>
  2073a9:	48 8b 44 24 60       	mov    0x60(%rsp),%rax
    }
  2073ae:	48 81 c4 88 01 00 00 	add    $0x188,%rsp
  2073b5:	c3                   	retq   
  2073b6:	48 8b 44 24 58       	mov    0x58(%rsp),%rax
        Ok(())
  2073bb:	48 c7 00 00 00 00 00 	movq   $0x0,(%rax)
    }
  2073c2:	eb e5                	jmp    2073a9 <_ZN5alloc7raw_vec19RawVec$LT$T$C$A$GT$14grow_amortized17h1d8134efb335945dE+0x249>
  2073c4:	48 8b 44 24 58       	mov    0x58(%rsp),%rax
  2073c9:	48 8b 4c 24 38       	mov    0x38(%rsp),%rcx
  2073ce:	48 8b 54 24 30       	mov    0x30(%rsp),%rdx
            return Err(CapacityOverflow.into());
  2073d3:	48 89 50 08          	mov    %rdx,0x8(%rax)
  2073d7:	48 89 48 10          	mov    %rcx,0x10(%rax)
  2073db:	48 c7 00 01 00 00 00 	movq   $0x1,(%rax)
  2073e2:	eb c5                	jmp    2073a9 <_ZN5alloc7raw_vec19RawVec$LT$T$C$A$GT$14grow_amortized17h1d8134efb335945dE+0x249>
  2073e4:	cc                   	int3   
  2073e5:	cc                   	int3   
  2073e6:	cc                   	int3   
  2073e7:	cc                   	int3   
  2073e8:	cc                   	int3   
  2073e9:	cc                   	int3   
  2073ea:	cc                   	int3   
  2073eb:	cc                   	int3   
  2073ec:	cc                   	int3   
  2073ed:	cc                   	int3   
  2073ee:	cc                   	int3   
  2073ef:	cc                   	int3   

00000000002073f0 <_ZN5alloc7raw_vec19RawVec$LT$T$C$A$GT$14grow_amortized17h6652cc9d43d27f79E>:
    fn grow_amortized(&mut self, len: usize, additional: usize) -> Result<(), TryReserveError> {
  2073f0:	48 81 ec 88 01 00 00 	sub    $0x188,%rsp
  2073f7:	48 89 4c 24 40       	mov    %rcx,0x40(%rsp)
  2073fc:	48 89 54 24 48       	mov    %rdx,0x48(%rsp)
  207401:	48 89 74 24 50       	mov    %rsi,0x50(%rsp)
  207406:	48 89 7c 24 58       	mov    %rdi,0x58(%rsp)
  20740b:	48 89 7c 24 60       	mov    %rdi,0x60(%rsp)
  207410:	48 89 b4 24 00 01 00 	mov    %rsi,0x100(%rsp)
  207417:	00 
  207418:	48 89 94 24 08 01 00 	mov    %rdx,0x108(%rsp)
  20741f:	00 
  207420:	48 89 8c 24 10 01 00 	mov    %rcx,0x110(%rsp)
  207427:	00 
        if mem::size_of::<T>() == 0 {
  207428:	b8 20 00 00 00       	mov    $0x20,%eax
  20742d:	48 83 f8 00          	cmp    $0x0,%rax
  207431:	75 27                	jne    20745a <_ZN5alloc7raw_vec19RawVec$LT$T$C$A$GT$14grow_amortized17h6652cc9d43d27f79E+0x6a>
            return Err(CapacityOverflow.into());
  207433:	48 c7 44 24 70 00 00 	movq   $0x0,0x70(%rsp)
  20743a:	00 00 
  20743c:	48 8b 7c 24 68       	mov    0x68(%rsp),%rdi
  207441:	48 8b 74 24 70       	mov    0x70(%rsp),%rsi
  207446:	e8 05 2d 01 00       	callq  21a150 <_ZN50_$LT$T$u20$as$u20$core..convert..Into$LT$U$GT$$GT$4into17h87bcaabb79263057E>
  20744b:	48 89 44 24 30       	mov    %rax,0x30(%rsp)
  207450:	48 89 54 24 38       	mov    %rdx,0x38(%rsp)
  207455:	e9 fa 01 00 00       	jmpq   207654 <_ZN5alloc7raw_vec19RawVec$LT$T$C$A$GT$14grow_amortized17h6652cc9d43d27f79E+0x264>
  20745a:	48 8b 74 24 40       	mov    0x40(%rsp),%rsi
  20745f:	48 8b 7c 24 48       	mov    0x48(%rsp),%rdi
        let required_cap = len.checked_add(additional).ok_or(CapacityOverflow)?;
  207464:	e8 67 10 02 00       	callq  2284d0 <_ZN4core3num23_$LT$impl$u20$usize$GT$11checked_add17h77dae21b15b51294E>
  207469:	48 89 44 24 20       	mov    %rax,0x20(%rsp)
  20746e:	48 89 54 24 28       	mov    %rdx,0x28(%rsp)
  207473:	48 8b 54 24 28       	mov    0x28(%rsp),%rdx
  207478:	48 8b 74 24 20       	mov    0x20(%rsp),%rsi
  20747d:	48 c7 84 24 b0 00 00 	movq   $0x0,0xb0(%rsp)
  207484:	00 00 00 00 00 
  207489:	48 8b 8c 24 a8 00 00 	mov    0xa8(%rsp),%rcx
  207490:	00 
  207491:	4c 8b 84 24 b0 00 00 	mov    0xb0(%rsp),%r8
  207498:	00 
  207499:	48 8d bc 24 90 00 00 	lea    0x90(%rsp),%rdi
  2074a0:	00 
  2074a1:	e8 7a 84 00 00       	callq  20f920 <_ZN4core6option15Option$LT$T$GT$5ok_or17h7384bd840948c75fE>
  2074a6:	48 8d 7c 24 78       	lea    0x78(%rsp),%rdi
  2074ab:	48 8d b4 24 90 00 00 	lea    0x90(%rsp),%rsi
  2074b2:	00 
  2074b3:	e8 68 3e 00 00       	callq  20b320 <_ZN79_$LT$core..result..Result$LT$T$C$E$GT$$u20$as$u20$core..ops..try_trait..Try$GT$6branch17h95fa5695fb2a340fE>
  2074b8:	48 8b 44 24 78       	mov    0x78(%rsp),%rax
  2074bd:	48 85 c0             	test   %rax,%rax
  2074c0:	74 06                	je     2074c8 <_ZN5alloc7raw_vec19RawVec$LT$T$C$A$GT$14grow_amortized17h6652cc9d43d27f79E+0xd8>
  2074c2:	eb 00                	jmp    2074c4 <_ZN5alloc7raw_vec19RawVec$LT$T$C$A$GT$14grow_amortized17h6652cc9d43d27f79E+0xd4>
  2074c4:	eb 3b                	jmp    207501 <_ZN5alloc7raw_vec19RawVec$LT$T$C$A$GT$14grow_amortized17h6652cc9d43d27f79E+0x111>
  2074c6:	0f 0b                	ud2    
  2074c8:	48 8b 44 24 50       	mov    0x50(%rsp),%rax
  2074cd:	48 8b b4 24 80 00 00 	mov    0x80(%rsp),%rsi
  2074d4:	00 
  2074d5:	48 89 b4 24 28 01 00 	mov    %rsi,0x128(%rsp)
  2074dc:	00 
  2074dd:	48 89 b4 24 30 01 00 	mov    %rsi,0x130(%rsp)
  2074e4:	00 
        let cap = cmp::max(self.cap * 2, required_cap);
  2074e5:	48 8b 78 08          	mov    0x8(%rax),%rdi
  2074e9:	48 c1 e7 01          	shl    $0x1,%rdi
  2074ed:	e8 3e 13 02 00       	callq  228830 <_ZN4core3cmp3max17h3ce6bdcccb4f6567E>
  2074f2:	48 89 44 24 18       	mov    %rax,0x18(%rsp)
  2074f7:	48 89 84 24 38 01 00 	mov    %rax,0x138(%rsp)
  2074fe:	00 
  2074ff:	eb 31                	jmp    207532 <_ZN5alloc7raw_vec19RawVec$LT$T$C$A$GT$14grow_amortized17h6652cc9d43d27f79E+0x142>
  207501:	48 8b 7c 24 58       	mov    0x58(%rsp),%rdi
        let required_cap = len.checked_add(additional).ok_or(CapacityOverflow)?;
  207506:	48 8b b4 24 80 00 00 	mov    0x80(%rsp),%rsi
  20750d:	00 
  20750e:	48 8b 94 24 88 00 00 	mov    0x88(%rsp),%rdx
  207515:	00 
  207516:	48 89 b4 24 18 01 00 	mov    %rsi,0x118(%rsp)
  20751d:	00 
  20751e:	48 89 94 24 20 01 00 	mov    %rdx,0x120(%rsp)
  207525:	00 
  207526:	e8 05 32 00 00       	callq  20a730 <_ZN153_$LT$core..result..Result$LT$T$C$F$GT$$u20$as$u20$core..ops..try_trait..FromResidual$LT$core..result..Result$LT$core..convert..Infallible$C$E$GT$$GT$$GT$13from_residual17hc0990f6fa1d8cf4cE>
  20752b:	eb 00                	jmp    20752d <_ZN5alloc7raw_vec19RawVec$LT$T$C$A$GT$14grow_amortized17h6652cc9d43d27f79E+0x13d>
  20752d:	e9 07 01 00 00       	jmpq   207639 <_ZN5alloc7raw_vec19RawVec$LT$T$C$A$GT$14grow_amortized17h6652cc9d43d27f79E+0x249>
  207532:	48 8b 74 24 18       	mov    0x18(%rsp),%rsi
        let cap = cmp::max(Self::MIN_NON_ZERO_CAP, cap);
  207537:	bf 04 00 00 00       	mov    $0x4,%edi
  20753c:	e8 ef 12 02 00       	callq  228830 <_ZN4core3cmp3max17h3ce6bdcccb4f6567E>
  207541:	48 89 44 24 10       	mov    %rax,0x10(%rsp)
  207546:	48 89 84 24 40 01 00 	mov    %rax,0x140(%rsp)
  20754d:	00 
  20754e:	48 8b 7c 24 10       	mov    0x10(%rsp),%rdi
        let new_layout = Layout::array::<T>(cap);
  207553:	e8 c8 c3 00 00       	callq  213920 <_ZN4core5alloc6layout6Layout5array17h3b81f5d269d51831E>
  207558:	48 89 04 24          	mov    %rax,(%rsp)
  20755c:	48 89 54 24 08       	mov    %rdx,0x8(%rsp)
  207561:	48 89 84 24 48 01 00 	mov    %rax,0x148(%rsp)
  207568:	00 
  207569:	48 89 94 24 50 01 00 	mov    %rdx,0x150(%rsp)
  207570:	00 
  207571:	48 8b 74 24 50       	mov    0x50(%rsp),%rsi
        let ptr = finish_grow(new_layout, self.current_memory(), &mut self.alloc)?;
  207576:	48 8d bc 24 e8 00 00 	lea    0xe8(%rsp),%rdi
  20757d:	00 
  20757e:	e8 bd f8 ff ff       	callq  206e40 <_ZN5alloc7raw_vec19RawVec$LT$T$C$A$GT$14current_memory17h39f6a902ac7405c0E>
  207583:	48 8b 54 24 08       	mov    0x8(%rsp),%rdx
  207588:	48 8b 34 24          	mov    (%rsp),%rsi
  20758c:	4c 8b 44 24 50       	mov    0x50(%rsp),%r8
  207591:	48 8d bc 24 d0 00 00 	lea    0xd0(%rsp),%rdi
  207598:	00 
  207599:	48 8d 8c 24 e8 00 00 	lea    0xe8(%rsp),%rcx
  2075a0:	00 
  2075a1:	e8 8a f4 ff ff       	callq  206a30 <_ZN5alloc7raw_vec11finish_grow17h1e802e26c11a75aaE>
  2075a6:	48 8d bc 24 b8 00 00 	lea    0xb8(%rsp),%rdi
  2075ad:	00 
  2075ae:	48 8d b4 24 d0 00 00 	lea    0xd0(%rsp),%rsi
  2075b5:	00 
  2075b6:	e8 85 3c 00 00       	callq  20b240 <_ZN79_$LT$core..result..Result$LT$T$C$E$GT$$u20$as$u20$core..ops..try_trait..Try$GT$6branch17h7f995eaa4ea58de0E>
  2075bb:	48 8b 84 24 b8 00 00 	mov    0xb8(%rsp),%rax
  2075c2:	00 
  2075c3:	48 85 c0             	test   %rax,%rax
  2075c6:	74 06                	je     2075ce <_ZN5alloc7raw_vec19RawVec$LT$T$C$A$GT$14grow_amortized17h6652cc9d43d27f79E+0x1de>
  2075c8:	eb 00                	jmp    2075ca <_ZN5alloc7raw_vec19RawVec$LT$T$C$A$GT$14grow_amortized17h6652cc9d43d27f79E+0x1da>
  2075ca:	eb 3e                	jmp    20760a <_ZN5alloc7raw_vec19RawVec$LT$T$C$A$GT$14grow_amortized17h6652cc9d43d27f79E+0x21a>
  2075cc:	0f 0b                	ud2    
  2075ce:	48 8b 7c 24 50       	mov    0x50(%rsp),%rdi
  2075d3:	48 8b b4 24 c0 00 00 	mov    0xc0(%rsp),%rsi
  2075da:	00 
  2075db:	48 8b 94 24 c8 00 00 	mov    0xc8(%rsp),%rdx
  2075e2:	00 
  2075e3:	48 89 b4 24 68 01 00 	mov    %rsi,0x168(%rsp)
  2075ea:	00 
  2075eb:	48 89 94 24 70 01 00 	mov    %rdx,0x170(%rsp)
  2075f2:	00 
  2075f3:	48 89 b4 24 78 01 00 	mov    %rsi,0x178(%rsp)
  2075fa:	00 
  2075fb:	48 89 94 24 80 01 00 	mov    %rdx,0x180(%rsp)
  207602:	00 
        self.set_ptr(ptr);
  207603:	e8 a8 06 00 00       	callq  207cb0 <_ZN5alloc7raw_vec19RawVec$LT$T$C$A$GT$7set_ptr17h88bff482bda567aeE>
  207608:	eb 3c                	jmp    207646 <_ZN5alloc7raw_vec19RawVec$LT$T$C$A$GT$14grow_amortized17h6652cc9d43d27f79E+0x256>
  20760a:	48 8b 7c 24 58       	mov    0x58(%rsp),%rdi
        let ptr = finish_grow(new_layout, self.current_memory(), &mut self.alloc)?;
  20760f:	48 8b b4 24 c0 00 00 	mov    0xc0(%rsp),%rsi
  207616:	00 
  207617:	48 8b 94 24 c8 00 00 	mov    0xc8(%rsp),%rdx
  20761e:	00 
  20761f:	48 89 b4 24 58 01 00 	mov    %rsi,0x158(%rsp)
  207626:	00 
  207627:	48 89 94 24 60 01 00 	mov    %rdx,0x160(%rsp)
  20762e:	00 
  20762f:	e8 5c 30 00 00       	callq  20a690 <_ZN153_$LT$core..result..Result$LT$T$C$F$GT$$u20$as$u20$core..ops..try_trait..FromResidual$LT$core..result..Result$LT$core..convert..Infallible$C$E$GT$$GT$$GT$13from_residual17h8b855bbe44d4466aE>
  207634:	e9 f4 fe ff ff       	jmpq   20752d <_ZN5alloc7raw_vec19RawVec$LT$T$C$A$GT$14grow_amortized17h6652cc9d43d27f79E+0x13d>
  207639:	48 8b 44 24 60       	mov    0x60(%rsp),%rax
    }
  20763e:	48 81 c4 88 01 00 00 	add    $0x188,%rsp
  207645:	c3                   	retq   
  207646:	48 8b 44 24 58       	mov    0x58(%rsp),%rax
        Ok(())
  20764b:	48 c7 00 00 00 00 00 	movq   $0x0,(%rax)
    }
  207652:	eb e5                	jmp    207639 <_ZN5alloc7raw_vec19RawVec$LT$T$C$A$GT$14grow_amortized17h6652cc9d43d27f79E+0x249>
  207654:	48 8b 44 24 58       	mov    0x58(%rsp),%rax
  207659:	48 8b 4c 24 38       	mov    0x38(%rsp),%rcx
  20765e:	48 8b 54 24 30       	mov    0x30(%rsp),%rdx
            return Err(CapacityOverflow.into());
  207663:	48 89 50 08          	mov    %rdx,0x8(%rax)
  207667:	48 89 48 10          	mov    %rcx,0x10(%rax)
  20766b:	48 c7 00 01 00 00 00 	movq   $0x1,(%rax)
  207672:	eb c5                	jmp    207639 <_ZN5alloc7raw_vec19RawVec$LT$T$C$A$GT$14grow_amortized17h6652cc9d43d27f79E+0x249>
  207674:	cc                   	int3   
  207675:	cc                   	int3   
  207676:	cc                   	int3   
  207677:	cc                   	int3   
  207678:	cc                   	int3   
  207679:	cc                   	int3   
  20767a:	cc                   	int3   
  20767b:	cc                   	int3   
  20767c:	cc                   	int3   
  20767d:	cc                   	int3   
  20767e:	cc                   	int3   
  20767f:	cc                   	int3   

0000000000207680 <_ZN5alloc7raw_vec19RawVec$LT$T$C$A$GT$14grow_amortized17h9fb720f9c146bb49E>:
    fn grow_amortized(&mut self, len: usize, additional: usize) -> Result<(), TryReserveError> {
  207680:	48 81 ec 88 01 00 00 	sub    $0x188,%rsp
  207687:	48 89 4c 24 40       	mov    %rcx,0x40(%rsp)
  20768c:	48 89 54 24 48       	mov    %rdx,0x48(%rsp)
  207691:	48 89 74 24 50       	mov    %rsi,0x50(%rsp)
  207696:	48 89 7c 24 58       	mov    %rdi,0x58(%rsp)
  20769b:	48 89 7c 24 60       	mov    %rdi,0x60(%rsp)
  2076a0:	48 89 b4 24 00 01 00 	mov    %rsi,0x100(%rsp)
  2076a7:	00 
  2076a8:	48 89 94 24 08 01 00 	mov    %rdx,0x108(%rsp)
  2076af:	00 
  2076b0:	48 89 8c 24 10 01 00 	mov    %rcx,0x110(%rsp)
  2076b7:	00 
        if mem::size_of::<T>() == 0 {
  2076b8:	b8 06 00 00 00       	mov    $0x6,%eax
  2076bd:	48 83 f8 00          	cmp    $0x0,%rax
  2076c1:	75 27                	jne    2076ea <_ZN5alloc7raw_vec19RawVec$LT$T$C$A$GT$14grow_amortized17h9fb720f9c146bb49E+0x6a>
            return Err(CapacityOverflow.into());
  2076c3:	48 c7 44 24 70 00 00 	movq   $0x0,0x70(%rsp)
  2076ca:	00 00 
  2076cc:	48 8b 7c 24 68       	mov    0x68(%rsp),%rdi
  2076d1:	48 8b 74 24 70       	mov    0x70(%rsp),%rsi
  2076d6:	e8 75 2a 01 00       	callq  21a150 <_ZN50_$LT$T$u20$as$u20$core..convert..Into$LT$U$GT$$GT$4into17h87bcaabb79263057E>
  2076db:	48 89 44 24 30       	mov    %rax,0x30(%rsp)
  2076e0:	48 89 54 24 38       	mov    %rdx,0x38(%rsp)
  2076e5:	e9 fa 01 00 00       	jmpq   2078e4 <_ZN5alloc7raw_vec19RawVec$LT$T$C$A$GT$14grow_amortized17h9fb720f9c146bb49E+0x264>
  2076ea:	48 8b 74 24 40       	mov    0x40(%rsp),%rsi
  2076ef:	48 8b 7c 24 48       	mov    0x48(%rsp),%rdi
        let required_cap = len.checked_add(additional).ok_or(CapacityOverflow)?;
  2076f4:	e8 d7 0d 02 00       	callq  2284d0 <_ZN4core3num23_$LT$impl$u20$usize$GT$11checked_add17h77dae21b15b51294E>
  2076f9:	48 89 44 24 20       	mov    %rax,0x20(%rsp)
  2076fe:	48 89 54 24 28       	mov    %rdx,0x28(%rsp)
  207703:	48 8b 54 24 28       	mov    0x28(%rsp),%rdx
  207708:	48 8b 74 24 20       	mov    0x20(%rsp),%rsi
  20770d:	48 c7 84 24 b0 00 00 	movq   $0x0,0xb0(%rsp)
  207714:	00 00 00 00 00 
  207719:	48 8b 8c 24 a8 00 00 	mov    0xa8(%rsp),%rcx
  207720:	00 
  207721:	4c 8b 84 24 b0 00 00 	mov    0xb0(%rsp),%r8
  207728:	00 
  207729:	48 8d bc 24 90 00 00 	lea    0x90(%rsp),%rdi
  207730:	00 
  207731:	e8 ea 81 00 00       	callq  20f920 <_ZN4core6option15Option$LT$T$GT$5ok_or17h7384bd840948c75fE>
  207736:	48 8d 7c 24 78       	lea    0x78(%rsp),%rdi
  20773b:	48 8d b4 24 90 00 00 	lea    0x90(%rsp),%rsi
  207742:	00 
  207743:	e8 d8 3b 00 00       	callq  20b320 <_ZN79_$LT$core..result..Result$LT$T$C$E$GT$$u20$as$u20$core..ops..try_trait..Try$GT$6branch17h95fa5695fb2a340fE>
  207748:	48 8b 44 24 78       	mov    0x78(%rsp),%rax
  20774d:	48 85 c0             	test   %rax,%rax
  207750:	74 06                	je     207758 <_ZN5alloc7raw_vec19RawVec$LT$T$C$A$GT$14grow_amortized17h9fb720f9c146bb49E+0xd8>
  207752:	eb 00                	jmp    207754 <_ZN5alloc7raw_vec19RawVec$LT$T$C$A$GT$14grow_amortized17h9fb720f9c146bb49E+0xd4>
  207754:	eb 3b                	jmp    207791 <_ZN5alloc7raw_vec19RawVec$LT$T$C$A$GT$14grow_amortized17h9fb720f9c146bb49E+0x111>
  207756:	0f 0b                	ud2    
  207758:	48 8b 44 24 50       	mov    0x50(%rsp),%rax
  20775d:	48 8b b4 24 80 00 00 	mov    0x80(%rsp),%rsi
  207764:	00 
  207765:	48 89 b4 24 28 01 00 	mov    %rsi,0x128(%rsp)
  20776c:	00 
  20776d:	48 89 b4 24 30 01 00 	mov    %rsi,0x130(%rsp)
  207774:	00 
        let cap = cmp::max(self.cap * 2, required_cap);
  207775:	48 8b 78 08          	mov    0x8(%rax),%rdi
  207779:	48 c1 e7 01          	shl    $0x1,%rdi
  20777d:	e8 ae 10 02 00       	callq  228830 <_ZN4core3cmp3max17h3ce6bdcccb4f6567E>
  207782:	48 89 44 24 18       	mov    %rax,0x18(%rsp)
  207787:	48 89 84 24 38 01 00 	mov    %rax,0x138(%rsp)
  20778e:	00 
  20778f:	eb 31                	jmp    2077c2 <_ZN5alloc7raw_vec19RawVec$LT$T$C$A$GT$14grow_amortized17h9fb720f9c146bb49E+0x142>
  207791:	48 8b 7c 24 58       	mov    0x58(%rsp),%rdi
        let required_cap = len.checked_add(additional).ok_or(CapacityOverflow)?;
  207796:	48 8b b4 24 80 00 00 	mov    0x80(%rsp),%rsi
  20779d:	00 
  20779e:	48 8b 94 24 88 00 00 	mov    0x88(%rsp),%rdx
  2077a5:	00 
  2077a6:	48 89 b4 24 18 01 00 	mov    %rsi,0x118(%rsp)
  2077ad:	00 
  2077ae:	48 89 94 24 20 01 00 	mov    %rdx,0x120(%rsp)
  2077b5:	00 
  2077b6:	e8 75 2f 00 00       	callq  20a730 <_ZN153_$LT$core..result..Result$LT$T$C$F$GT$$u20$as$u20$core..ops..try_trait..FromResidual$LT$core..result..Result$LT$core..convert..Infallible$C$E$GT$$GT$$GT$13from_residual17hc0990f6fa1d8cf4cE>
  2077bb:	eb 00                	jmp    2077bd <_ZN5alloc7raw_vec19RawVec$LT$T$C$A$GT$14grow_amortized17h9fb720f9c146bb49E+0x13d>
  2077bd:	e9 07 01 00 00       	jmpq   2078c9 <_ZN5alloc7raw_vec19RawVec$LT$T$C$A$GT$14grow_amortized17h9fb720f9c146bb49E+0x249>
  2077c2:	48 8b 74 24 18       	mov    0x18(%rsp),%rsi
        let cap = cmp::max(Self::MIN_NON_ZERO_CAP, cap);
  2077c7:	bf 04 00 00 00       	mov    $0x4,%edi
  2077cc:	e8 5f 10 02 00       	callq  228830 <_ZN4core3cmp3max17h3ce6bdcccb4f6567E>
  2077d1:	48 89 44 24 10       	mov    %rax,0x10(%rsp)
  2077d6:	48 89 84 24 40 01 00 	mov    %rax,0x140(%rsp)
  2077dd:	00 
  2077de:	48 8b 7c 24 10       	mov    0x10(%rsp),%rdi
        let new_layout = Layout::array::<T>(cap);
  2077e3:	e8 68 c2 00 00       	callq  213a50 <_ZN4core5alloc6layout6Layout5array17h91dc734d0e1d914bE>
  2077e8:	48 89 04 24          	mov    %rax,(%rsp)
  2077ec:	48 89 54 24 08       	mov    %rdx,0x8(%rsp)
  2077f1:	48 89 84 24 48 01 00 	mov    %rax,0x148(%rsp)
  2077f8:	00 
  2077f9:	48 89 94 24 50 01 00 	mov    %rdx,0x150(%rsp)
  207800:	00 
  207801:	48 8b 74 24 50       	mov    0x50(%rsp),%rsi
        let ptr = finish_grow(new_layout, self.current_memory(), &mut self.alloc)?;
  207806:	48 8d bc 24 e8 00 00 	lea    0xe8(%rsp),%rdi
  20780d:	00 
  20780e:	e8 4d f8 ff ff       	callq  207060 <_ZN5alloc7raw_vec19RawVec$LT$T$C$A$GT$14current_memory17hc04146cff3006b9bE>
  207813:	48 8b 54 24 08       	mov    0x8(%rsp),%rdx
  207818:	48 8b 34 24          	mov    (%rsp),%rsi
  20781c:	4c 8b 44 24 50       	mov    0x50(%rsp),%r8
  207821:	48 8d bc 24 d0 00 00 	lea    0xd0(%rsp),%rdi
  207828:	00 
  207829:	48 8d 8c 24 e8 00 00 	lea    0xe8(%rsp),%rcx
  207830:	00 
  207831:	e8 fa f1 ff ff       	callq  206a30 <_ZN5alloc7raw_vec11finish_grow17h1e802e26c11a75aaE>
  207836:	48 8d bc 24 b8 00 00 	lea    0xb8(%rsp),%rdi
  20783d:	00 
  20783e:	48 8d b4 24 d0 00 00 	lea    0xd0(%rsp),%rsi
  207845:	00 
  207846:	e8 f5 39 00 00       	callq  20b240 <_ZN79_$LT$core..result..Result$LT$T$C$E$GT$$u20$as$u20$core..ops..try_trait..Try$GT$6branch17h7f995eaa4ea58de0E>
  20784b:	48 8b 84 24 b8 00 00 	mov    0xb8(%rsp),%rax
  207852:	00 
  207853:	48 85 c0             	test   %rax,%rax
  207856:	74 06                	je     20785e <_ZN5alloc7raw_vec19RawVec$LT$T$C$A$GT$14grow_amortized17h9fb720f9c146bb49E+0x1de>
  207858:	eb 00                	jmp    20785a <_ZN5alloc7raw_vec19RawVec$LT$T$C$A$GT$14grow_amortized17h9fb720f9c146bb49E+0x1da>
  20785a:	eb 3e                	jmp    20789a <_ZN5alloc7raw_vec19RawVec$LT$T$C$A$GT$14grow_amortized17h9fb720f9c146bb49E+0x21a>
  20785c:	0f 0b                	ud2    
  20785e:	48 8b 7c 24 50       	mov    0x50(%rsp),%rdi
  207863:	48 8b b4 24 c0 00 00 	mov    0xc0(%rsp),%rsi
  20786a:	00 
  20786b:	48 8b 94 24 c8 00 00 	mov    0xc8(%rsp),%rdx
  207872:	00 
  207873:	48 89 b4 24 68 01 00 	mov    %rsi,0x168(%rsp)
  20787a:	00 
  20787b:	48 89 94 24 70 01 00 	mov    %rdx,0x170(%rsp)
  207882:	00 
  207883:	48 89 b4 24 78 01 00 	mov    %rsi,0x178(%rsp)
  20788a:	00 
  20788b:	48 89 94 24 80 01 00 	mov    %rdx,0x180(%rsp)
  207892:	00 
        self.set_ptr(ptr);
  207893:	e8 78 03 00 00       	callq  207c10 <_ZN5alloc7raw_vec19RawVec$LT$T$C$A$GT$7set_ptr17h22022347191ab383E>
  207898:	eb 3c                	jmp    2078d6 <_ZN5alloc7raw_vec19RawVec$LT$T$C$A$GT$14grow_amortized17h9fb720f9c146bb49E+0x256>
  20789a:	48 8b 7c 24 58       	mov    0x58(%rsp),%rdi
        let ptr = finish_grow(new_layout, self.current_memory(), &mut self.alloc)?;
  20789f:	48 8b b4 24 c0 00 00 	mov    0xc0(%rsp),%rsi
  2078a6:	00 
  2078a7:	48 8b 94 24 c8 00 00 	mov    0xc8(%rsp),%rdx
  2078ae:	00 
  2078af:	48 89 b4 24 58 01 00 	mov    %rsi,0x158(%rsp)
  2078b6:	00 
  2078b7:	48 89 94 24 60 01 00 	mov    %rdx,0x160(%rsp)
  2078be:	00 
  2078bf:	e8 cc 2d 00 00       	callq  20a690 <_ZN153_$LT$core..result..Result$LT$T$C$F$GT$$u20$as$u20$core..ops..try_trait..FromResidual$LT$core..result..Result$LT$core..convert..Infallible$C$E$GT$$GT$$GT$13from_residual17h8b855bbe44d4466aE>
  2078c4:	e9 f4 fe ff ff       	jmpq   2077bd <_ZN5alloc7raw_vec19RawVec$LT$T$C$A$GT$14grow_amortized17h9fb720f9c146bb49E+0x13d>
  2078c9:	48 8b 44 24 60       	mov    0x60(%rsp),%rax
    }
  2078ce:	48 81 c4 88 01 00 00 	add    $0x188,%rsp
  2078d5:	c3                   	retq   
  2078d6:	48 8b 44 24 58       	mov    0x58(%rsp),%rax
        Ok(())
  2078db:	48 c7 00 00 00 00 00 	movq   $0x0,(%rax)
    }
  2078e2:	eb e5                	jmp    2078c9 <_ZN5alloc7raw_vec19RawVec$LT$T$C$A$GT$14grow_amortized17h9fb720f9c146bb49E+0x249>
  2078e4:	48 8b 44 24 58       	mov    0x58(%rsp),%rax
  2078e9:	48 8b 4c 24 38       	mov    0x38(%rsp),%rcx
  2078ee:	48 8b 54 24 30       	mov    0x30(%rsp),%rdx
            return Err(CapacityOverflow.into());
  2078f3:	48 89 50 08          	mov    %rdx,0x8(%rax)
  2078f7:	48 89 48 10          	mov    %rcx,0x10(%rax)
  2078fb:	48 c7 00 01 00 00 00 	movq   $0x1,(%rax)
  207902:	eb c5                	jmp    2078c9 <_ZN5alloc7raw_vec19RawVec$LT$T$C$A$GT$14grow_amortized17h9fb720f9c146bb49E+0x249>
  207904:	cc                   	int3   
  207905:	cc                   	int3   
  207906:	cc                   	int3   
  207907:	cc                   	int3   
  207908:	cc                   	int3   
  207909:	cc                   	int3   
  20790a:	cc                   	int3   
  20790b:	cc                   	int3   
  20790c:	cc                   	int3   
  20790d:	cc                   	int3   
  20790e:	cc                   	int3   
  20790f:	cc                   	int3   

0000000000207910 <_ZN5alloc7raw_vec19RawVec$LT$T$C$A$GT$19capacity_from_bytes17h2111529f02ce747fE>:
    fn capacity_from_bytes(excess: usize) -> usize {
  207910:	48 83 ec 18          	sub    $0x18,%rsp
  207914:	48 89 7c 24 08       	mov    %rdi,0x8(%rsp)
  207919:	48 89 7c 24 10       	mov    %rdi,0x10(%rsp)
        excess / mem::size_of::<T>()
  20791e:	b8 20 00 00 00       	mov    $0x20,%eax
  207923:	48 83 f8 00          	cmp    $0x0,%rax
  207927:	0f 94 c0             	sete   %al
  20792a:	a8 01                	test   $0x1,%al
  20792c:	75 0e                	jne    20793c <_ZN5alloc7raw_vec19RawVec$LT$T$C$A$GT$19capacity_from_bytes17h2111529f02ce747fE+0x2c>
  20792e:	48 8b 44 24 08       	mov    0x8(%rsp),%rax
  207933:	48 c1 e8 05          	shr    $0x5,%rax
    }
  207937:	48 83 c4 18          	add    $0x18,%rsp
  20793b:	c3                   	retq   
        excess / mem::size_of::<T>()
  20793c:	48 8d 3d bd 89 ff ff 	lea    -0x7643(%rip),%rdi        # 200300 <str.0>
  207943:	48 8d 15 ae fc 02 00 	lea    0x2fcae(%rip),%rdx        # 2375f8 <memcmp+0x1048>
  20794a:	be 19 00 00 00       	mov    $0x19,%esi
  20794f:	e8 0c bb 02 00       	callq  233460 <_ZN4core9panicking5panic17hb5e1b99c05020429E>
  207954:	0f 0b                	ud2    
  207956:	cc                   	int3   
  207957:	cc                   	int3   
  207958:	cc                   	int3   
  207959:	cc                   	int3   
  20795a:	cc                   	int3   
  20795b:	cc                   	int3   
  20795c:	cc                   	int3   
  20795d:	cc                   	int3   
  20795e:	cc                   	int3   
  20795f:	cc                   	int3   

0000000000207960 <_ZN5alloc7raw_vec19RawVec$LT$T$C$A$GT$19capacity_from_bytes17h77e37d77c1dad7b2E>:
    fn capacity_from_bytes(excess: usize) -> usize {
  207960:	48 83 ec 18          	sub    $0x18,%rsp
  207964:	48 89 7c 24 08       	mov    %rdi,0x8(%rsp)
  207969:	48 89 7c 24 10       	mov    %rdi,0x10(%rsp)
        excess / mem::size_of::<T>()
  20796e:	b8 06 00 00 00       	mov    $0x6,%eax
  207973:	48 83 f8 00          	cmp    $0x0,%rax
  207977:	0f 94 c0             	sete   %al
  20797a:	a8 01                	test   $0x1,%al
  20797c:	75 14                	jne    207992 <_ZN5alloc7raw_vec19RawVec$LT$T$C$A$GT$19capacity_from_bytes17h77e37d77c1dad7b2E+0x32>
  20797e:	48 8b 44 24 08       	mov    0x8(%rsp),%rax
  207983:	b9 06 00 00 00       	mov    $0x6,%ecx
  207988:	31 d2                	xor    %edx,%edx
  20798a:	48 f7 f1             	div    %rcx
    }
  20798d:	48 83 c4 18          	add    $0x18,%rsp
  207991:	c3                   	retq   
        excess / mem::size_of::<T>()
  207992:	48 8d 3d 67 89 ff ff 	lea    -0x7699(%rip),%rdi        # 200300 <str.0>
  207999:	48 8d 15 58 fc 02 00 	lea    0x2fc58(%rip),%rdx        # 2375f8 <memcmp+0x1048>
  2079a0:	be 19 00 00 00       	mov    $0x19,%esi
  2079a5:	e8 b6 ba 02 00       	callq  233460 <_ZN4core9panicking5panic17hb5e1b99c05020429E>
  2079aa:	0f 0b                	ud2    
  2079ac:	cc                   	int3   
  2079ad:	cc                   	int3   
  2079ae:	cc                   	int3   
  2079af:	cc                   	int3   

00000000002079b0 <_ZN5alloc7raw_vec19RawVec$LT$T$C$A$GT$19capacity_from_bytes17hfbdb567b914738e8E>:
    fn capacity_from_bytes(excess: usize) -> usize {
  2079b0:	48 83 ec 18          	sub    $0x18,%rsp
  2079b4:	48 89 7c 24 08       	mov    %rdi,0x8(%rsp)
  2079b9:	48 89 7c 24 10       	mov    %rdi,0x10(%rsp)
        excess / mem::size_of::<T>()
  2079be:	b8 08 00 00 00       	mov    $0x8,%eax
  2079c3:	48 83 f8 00          	cmp    $0x0,%rax
  2079c7:	0f 94 c0             	sete   %al
  2079ca:	a8 01                	test   $0x1,%al
  2079cc:	75 0e                	jne    2079dc <_ZN5alloc7raw_vec19RawVec$LT$T$C$A$GT$19capacity_from_bytes17hfbdb567b914738e8E+0x2c>
  2079ce:	48 8b 44 24 08       	mov    0x8(%rsp),%rax
  2079d3:	48 c1 e8 03          	shr    $0x3,%rax
    }
  2079d7:	48 83 c4 18          	add    $0x18,%rsp
  2079db:	c3                   	retq   
        excess / mem::size_of::<T>()
  2079dc:	48 8d 3d 1d 89 ff ff 	lea    -0x76e3(%rip),%rdi        # 200300 <str.0>
  2079e3:	48 8d 15 0e fc 02 00 	lea    0x2fc0e(%rip),%rdx        # 2375f8 <memcmp+0x1048>
  2079ea:	be 19 00 00 00       	mov    $0x19,%esi
  2079ef:	e8 6c ba 02 00       	callq  233460 <_ZN4core9panicking5panic17hb5e1b99c05020429E>
  2079f4:	0f 0b                	ud2    
  2079f6:	cc                   	int3   
  2079f7:	cc                   	int3   
  2079f8:	cc                   	int3   
  2079f9:	cc                   	int3   
  2079fa:	cc                   	int3   
  2079fb:	cc                   	int3   
  2079fc:	cc                   	int3   
  2079fd:	cc                   	int3   
  2079fe:	cc                   	int3   
  2079ff:	cc                   	int3   

0000000000207a00 <_ZN5alloc7raw_vec19RawVec$LT$T$C$A$GT$3ptr17h428f7f7a9851b041E>:
    pub fn ptr(&self) -> *mut T {
  207a00:	48 83 ec 18          	sub    $0x18,%rsp
  207a04:	48 89 7c 24 10       	mov    %rdi,0x10(%rsp)
        self.ptr.as_ptr()
  207a09:	48 8b 3f             	mov    (%rdi),%rdi
  207a0c:	e8 2f 00 01 00       	callq  217a40 <_ZN4core3ptr6unique15Unique$LT$T$GT$6as_ptr17he127c22801db95d8E>
  207a11:	48 89 44 24 08       	mov    %rax,0x8(%rsp)
  207a16:	48 8b 44 24 08       	mov    0x8(%rsp),%rax
    }
  207a1b:	48 83 c4 18          	add    $0x18,%rsp
  207a1f:	c3                   	retq   

0000000000207a20 <_ZN5alloc7raw_vec19RawVec$LT$T$C$A$GT$3ptr17h631fa7d0ffa53725E>:
    pub fn ptr(&self) -> *mut T {
  207a20:	48 83 ec 18          	sub    $0x18,%rsp
  207a24:	48 89 7c 24 10       	mov    %rdi,0x10(%rsp)
        self.ptr.as_ptr()
  207a29:	48 8b 3f             	mov    (%rdi),%rdi
  207a2c:	e8 ff ff 00 00       	callq  217a30 <_ZN4core3ptr6unique15Unique$LT$T$GT$6as_ptr17h554526b874e1e7a1E>
  207a31:	48 89 44 24 08       	mov    %rax,0x8(%rsp)
  207a36:	48 8b 44 24 08       	mov    0x8(%rsp),%rax
    }
  207a3b:	48 83 c4 18          	add    $0x18,%rsp
  207a3f:	c3                   	retq   

0000000000207a40 <_ZN5alloc7raw_vec19RawVec$LT$T$C$A$GT$3ptr17h878b30743715fdd5E>:
    pub fn ptr(&self) -> *mut T {
  207a40:	48 83 ec 18          	sub    $0x18,%rsp
  207a44:	48 89 7c 24 10       	mov    %rdi,0x10(%rsp)
        self.ptr.as_ptr()
  207a49:	48 8b 3f             	mov    (%rdi),%rdi
  207a4c:	e8 bf ff 00 00       	callq  217a10 <_ZN4core3ptr6unique15Unique$LT$T$GT$6as_ptr17h262b037f16d42654E>
  207a51:	48 89 44 24 08       	mov    %rax,0x8(%rsp)
  207a56:	48 8b 44 24 08       	mov    0x8(%rsp),%rax
    }
  207a5b:	48 83 c4 18          	add    $0x18,%rsp
  207a5f:	c3                   	retq   

0000000000207a60 <_ZN5alloc7raw_vec19RawVec$LT$T$C$A$GT$7reserve17h3a28918768a56235E>:
    pub fn reserve(&mut self, len: usize, additional: usize) {
  207a60:	48 83 ec 38          	sub    $0x38,%rsp
  207a64:	48 89 14 24          	mov    %rdx,(%rsp)
  207a68:	48 89 74 24 08       	mov    %rsi,0x8(%rsp)
  207a6d:	48 89 7c 24 10       	mov    %rdi,0x10(%rsp)
  207a72:	48 89 7c 24 20       	mov    %rdi,0x20(%rsp)
  207a77:	48 89 74 24 28       	mov    %rsi,0x28(%rsp)
  207a7c:	48 89 54 24 30       	mov    %rdx,0x30(%rsp)
        if self.needs_to_grow(len, additional) {
  207a81:	e8 4a f3 ff ff       	callq  206dd0 <_ZN5alloc7raw_vec19RawVec$LT$T$C$A$GT$13needs_to_grow17he7f2300bb740c949E>
  207a86:	88 44 24 1f          	mov    %al,0x1f(%rsp)
  207a8a:	8a 44 24 1f          	mov    0x1f(%rsp),%al
  207a8e:	a8 01                	test   $0x1,%al
  207a90:	75 07                	jne    207a99 <_ZN5alloc7raw_vec19RawVec$LT$T$C$A$GT$7reserve17h3a28918768a56235E+0x39>
  207a92:	eb 00                	jmp    207a94 <_ZN5alloc7raw_vec19RawVec$LT$T$C$A$GT$7reserve17h3a28918768a56235E+0x34>
    }
  207a94:	48 83 c4 38          	add    $0x38,%rsp
  207a98:	c3                   	retq   
  207a99:	48 8b 14 24          	mov    (%rsp),%rdx
  207a9d:	48 8b 74 24 08       	mov    0x8(%rsp),%rsi
  207aa2:	48 8b 7c 24 10       	mov    0x10(%rsp),%rdi
            do_reserve_and_handle(self, len, additional);
  207aa7:	e8 e4 00 00 00       	callq  207b90 <_ZN5alloc7raw_vec19RawVec$LT$T$C$A$GT$7reserve21do_reserve_and_handle17h9c721d4c845ce776E>
        if self.needs_to_grow(len, additional) {
  207aac:	eb e6                	jmp    207a94 <_ZN5alloc7raw_vec19RawVec$LT$T$C$A$GT$7reserve17h3a28918768a56235E+0x34>
  207aae:	cc                   	int3   
  207aaf:	cc                   	int3   

0000000000207ab0 <_ZN5alloc7raw_vec19RawVec$LT$T$C$A$GT$7reserve17h4957b1869eeac1b4E>:
    pub fn reserve(&mut self, len: usize, additional: usize) {
  207ab0:	48 83 ec 38          	sub    $0x38,%rsp
  207ab4:	48 89 14 24          	mov    %rdx,(%rsp)
  207ab8:	48 89 74 24 08       	mov    %rsi,0x8(%rsp)
  207abd:	48 89 7c 24 10       	mov    %rdi,0x10(%rsp)
  207ac2:	48 89 7c 24 20       	mov    %rdi,0x20(%rsp)
  207ac7:	48 89 74 24 28       	mov    %rsi,0x28(%rsp)
  207acc:	48 89 54 24 30       	mov    %rdx,0x30(%rsp)
        if self.needs_to_grow(len, additional) {
  207ad1:	e8 8a f2 ff ff       	callq  206d60 <_ZN5alloc7raw_vec19RawVec$LT$T$C$A$GT$13needs_to_grow17h6c9536dd384d8cd6E>
  207ad6:	88 44 24 1f          	mov    %al,0x1f(%rsp)
  207ada:	8a 44 24 1f          	mov    0x1f(%rsp),%al
  207ade:	a8 01                	test   $0x1,%al
  207ae0:	75 07                	jne    207ae9 <_ZN5alloc7raw_vec19RawVec$LT$T$C$A$GT$7reserve17h4957b1869eeac1b4E+0x39>
  207ae2:	eb 00                	jmp    207ae4 <_ZN5alloc7raw_vec19RawVec$LT$T$C$A$GT$7reserve17h4957b1869eeac1b4E+0x34>
    }
  207ae4:	48 83 c4 38          	add    $0x38,%rsp
  207ae8:	c3                   	retq   
  207ae9:	48 8b 14 24          	mov    (%rsp),%rdx
  207aed:	48 8b 74 24 08       	mov    0x8(%rsp),%rsi
  207af2:	48 8b 7c 24 10       	mov    0x10(%rsp),%rdi
            do_reserve_and_handle(self, len, additional);
  207af7:	e8 d4 00 00 00       	callq  207bd0 <_ZN5alloc7raw_vec19RawVec$LT$T$C$A$GT$7reserve21do_reserve_and_handle17hdfd6a07f45ba3a7cE>
        if self.needs_to_grow(len, additional) {
  207afc:	eb e6                	jmp    207ae4 <_ZN5alloc7raw_vec19RawVec$LT$T$C$A$GT$7reserve17h4957b1869eeac1b4E+0x34>
  207afe:	cc                   	int3   
  207aff:	cc                   	int3   

0000000000207b00 <_ZN5alloc7raw_vec19RawVec$LT$T$C$A$GT$7reserve17h4ba9ba7825b0a934E>:
    pub fn reserve(&mut self, len: usize, additional: usize) {
  207b00:	48 83 ec 38          	sub    $0x38,%rsp
  207b04:	48 89 14 24          	mov    %rdx,(%rsp)
  207b08:	48 89 74 24 08       	mov    %rsi,0x8(%rsp)
  207b0d:	48 89 7c 24 10       	mov    %rdi,0x10(%rsp)
  207b12:	48 89 7c 24 20       	mov    %rdi,0x20(%rsp)
  207b17:	48 89 74 24 28       	mov    %rsi,0x28(%rsp)
  207b1c:	48 89 54 24 30       	mov    %rdx,0x30(%rsp)
        if self.needs_to_grow(len, additional) {
  207b21:	e8 ca f1 ff ff       	callq  206cf0 <_ZN5alloc7raw_vec19RawVec$LT$T$C$A$GT$13needs_to_grow17h5ef58445af2f1ffdE>
  207b26:	88 44 24 1f          	mov    %al,0x1f(%rsp)
  207b2a:	8a 44 24 1f          	mov    0x1f(%rsp),%al
  207b2e:	a8 01                	test   $0x1,%al
  207b30:	75 07                	jne    207b39 <_ZN5alloc7raw_vec19RawVec$LT$T$C$A$GT$7reserve17h4ba9ba7825b0a934E+0x39>
  207b32:	eb 00                	jmp    207b34 <_ZN5alloc7raw_vec19RawVec$LT$T$C$A$GT$7reserve17h4ba9ba7825b0a934E+0x34>
    }
  207b34:	48 83 c4 38          	add    $0x38,%rsp
  207b38:	c3                   	retq   
  207b39:	48 8b 14 24          	mov    (%rsp),%rdx
  207b3d:	48 8b 74 24 08       	mov    0x8(%rsp),%rsi
  207b42:	48 8b 7c 24 10       	mov    0x10(%rsp),%rdi
            do_reserve_and_handle(self, len, additional);
  207b47:	e8 04 00 00 00       	callq  207b50 <_ZN5alloc7raw_vec19RawVec$LT$T$C$A$GT$7reserve21do_reserve_and_handle17h9904d31e0c150511E>
        if self.needs_to_grow(len, additional) {
  207b4c:	eb e6                	jmp    207b34 <_ZN5alloc7raw_vec19RawVec$LT$T$C$A$GT$7reserve17h4ba9ba7825b0a934E+0x34>
  207b4e:	cc                   	int3   
  207b4f:	cc                   	int3   

0000000000207b50 <_ZN5alloc7raw_vec19RawVec$LT$T$C$A$GT$7reserve21do_reserve_and_handle17h9904d31e0c150511E>:
        fn do_reserve_and_handle<T, A: Allocator>(
  207b50:	48 83 ec 38          	sub    $0x38,%rsp
  207b54:	48 89 d1             	mov    %rdx,%rcx
  207b57:	48 89 f2             	mov    %rsi,%rdx
  207b5a:	48 89 fe             	mov    %rdi,%rsi
  207b5d:	48 89 74 24 20       	mov    %rsi,0x20(%rsp)
  207b62:	48 89 54 24 28       	mov    %rdx,0x28(%rsp)
  207b67:	48 89 4c 24 30       	mov    %rcx,0x30(%rsp)
            handle_reserve(slf.grow_amortized(len, additional));
  207b6c:	48 8d 7c 24 08       	lea    0x8(%rsp),%rdi
  207b71:	e8 ea f5 ff ff       	callq  207160 <_ZN5alloc7raw_vec19RawVec$LT$T$C$A$GT$14grow_amortized17h1d8134efb335945dE>
  207b76:	48 8d 7c 24 08       	lea    0x8(%rsp),%rdi
  207b7b:	e8 10 e4 00 00       	callq  215f90 <_ZN5alloc7raw_vec14handle_reserve17h07f5f719759ede2eE>
        }
  207b80:	48 83 c4 38          	add    $0x38,%rsp
  207b84:	c3                   	retq   
  207b85:	cc                   	int3   
  207b86:	cc                   	int3   
  207b87:	cc                   	int3   
  207b88:	cc                   	int3   
  207b89:	cc                   	int3   
  207b8a:	cc                   	int3   
  207b8b:	cc                   	int3   
  207b8c:	cc                   	int3   
  207b8d:	cc                   	int3   
  207b8e:	cc                   	int3   
  207b8f:	cc                   	int3   

0000000000207b90 <_ZN5alloc7raw_vec19RawVec$LT$T$C$A$GT$7reserve21do_reserve_and_handle17h9c721d4c845ce776E>:
        fn do_reserve_and_handle<T, A: Allocator>(
  207b90:	48 83 ec 38          	sub    $0x38,%rsp
  207b94:	48 89 d1             	mov    %rdx,%rcx
  207b97:	48 89 f2             	mov    %rsi,%rdx
  207b9a:	48 89 fe             	mov    %rdi,%rsi
  207b9d:	48 89 74 24 20       	mov    %rsi,0x20(%rsp)
  207ba2:	48 89 54 24 28       	mov    %rdx,0x28(%rsp)
  207ba7:	48 89 4c 24 30       	mov    %rcx,0x30(%rsp)
            handle_reserve(slf.grow_amortized(len, additional));
  207bac:	48 8d 7c 24 08       	lea    0x8(%rsp),%rdi
  207bb1:	e8 3a f8 ff ff       	callq  2073f0 <_ZN5alloc7raw_vec19RawVec$LT$T$C$A$GT$14grow_amortized17h6652cc9d43d27f79E>
  207bb6:	48 8d 7c 24 08       	lea    0x8(%rsp),%rdi
  207bbb:	e8 d0 e3 00 00       	callq  215f90 <_ZN5alloc7raw_vec14handle_reserve17h07f5f719759ede2eE>
        }
  207bc0:	48 83 c4 38          	add    $0x38,%rsp
  207bc4:	c3                   	retq   
  207bc5:	cc                   	int3   
  207bc6:	cc                   	int3   
  207bc7:	cc                   	int3   
  207bc8:	cc                   	int3   
  207bc9:	cc                   	int3   
  207bca:	cc                   	int3   
  207bcb:	cc                   	int3   
  207bcc:	cc                   	int3   
  207bcd:	cc                   	int3   
  207bce:	cc                   	int3   
  207bcf:	cc                   	int3   

0000000000207bd0 <_ZN5alloc7raw_vec19RawVec$LT$T$C$A$GT$7reserve21do_reserve_and_handle17hdfd6a07f45ba3a7cE>:
        fn do_reserve_and_handle<T, A: Allocator>(
  207bd0:	48 83 ec 38          	sub    $0x38,%rsp
  207bd4:	48 89 d1             	mov    %rdx,%rcx
  207bd7:	48 89 f2             	mov    %rsi,%rdx
  207bda:	48 89 fe             	mov    %rdi,%rsi
  207bdd:	48 89 74 24 20       	mov    %rsi,0x20(%rsp)
  207be2:	48 89 54 24 28       	mov    %rdx,0x28(%rsp)
  207be7:	48 89 4c 24 30       	mov    %rcx,0x30(%rsp)
            handle_reserve(slf.grow_amortized(len, additional));
  207bec:	48 8d 7c 24 08       	lea    0x8(%rsp),%rdi
  207bf1:	e8 8a fa ff ff       	callq  207680 <_ZN5alloc7raw_vec19RawVec$LT$T$C$A$GT$14grow_amortized17h9fb720f9c146bb49E>
  207bf6:	48 8d 7c 24 08       	lea    0x8(%rsp),%rdi
  207bfb:	e8 90 e3 00 00       	callq  215f90 <_ZN5alloc7raw_vec14handle_reserve17h07f5f719759ede2eE>
        }
  207c00:	48 83 c4 38          	add    $0x38,%rsp
  207c04:	c3                   	retq   
  207c05:	cc                   	int3   
  207c06:	cc                   	int3   
  207c07:	cc                   	int3   
  207c08:	cc                   	int3   
  207c09:	cc                   	int3   
  207c0a:	cc                   	int3   
  207c0b:	cc                   	int3   
  207c0c:	cc                   	int3   
  207c0d:	cc                   	int3   
  207c0e:	cc                   	int3   
  207c0f:	cc                   	int3   

0000000000207c10 <_ZN5alloc7raw_vec19RawVec$LT$T$C$A$GT$7set_ptr17h22022347191ab383E>:
    fn set_ptr(&mut self, ptr: NonNull<[u8]>) {
  207c10:	48 83 ec 58          	sub    $0x58,%rsp
  207c14:	48 89 54 24 20       	mov    %rdx,0x20(%rsp)
  207c19:	48 89 f0             	mov    %rsi,%rax
  207c1c:	48 8b 74 24 20       	mov    0x20(%rsp),%rsi
  207c21:	48 89 44 24 28       	mov    %rax,0x28(%rsp)
  207c26:	48 89 f8             	mov    %rdi,%rax
  207c29:	48 8b 7c 24 28       	mov    0x28(%rsp),%rdi
  207c2e:	48 89 44 24 30       	mov    %rax,0x30(%rsp)
  207c33:	48 89 44 24 40       	mov    %rax,0x40(%rsp)
  207c38:	48 89 7c 24 48       	mov    %rdi,0x48(%rsp)
  207c3d:	48 89 74 24 50       	mov    %rsi,0x50(%rsp)
        self.ptr = unsafe { Unique::new_unchecked(ptr.cast().as_ptr()) };
  207c42:	e8 f9 03 02 00       	callq  228040 <_ZN4core3ptr8non_null16NonNull$LT$T$GT$4cast17he83c423481392309E>
  207c47:	48 89 44 24 38       	mov    %rax,0x38(%rsp)
  207c4c:	48 8b 7c 24 38       	mov    0x38(%rsp),%rdi
  207c51:	e8 ca 04 02 00       	callq  228120 <_ZN4core3ptr8non_null16NonNull$LT$T$GT$6as_ptr17hd9154fdfabc914a1E>
  207c56:	48 89 44 24 18       	mov    %rax,0x18(%rsp)
  207c5b:	48 8b 7c 24 18       	mov    0x18(%rsp),%rdi
  207c60:	e8 db fc 00 00       	callq  217940 <_ZN4core3ptr6unique15Unique$LT$T$GT$13new_unchecked17h6c462c971cf16ae0E>
  207c65:	48 89 44 24 10       	mov    %rax,0x10(%rsp)
  207c6a:	48 8b 74 24 20       	mov    0x20(%rsp),%rsi
  207c6f:	48 8b 7c 24 28       	mov    0x28(%rsp),%rdi
  207c74:	48 8b 44 24 30       	mov    0x30(%rsp),%rax
  207c79:	48 8b 4c 24 10       	mov    0x10(%rsp),%rcx
  207c7e:	48 89 08             	mov    %rcx,(%rax)
        self.cap = Self::capacity_from_bytes(ptr.len());
  207c81:	e8 9a 05 02 00       	callq  228220 <_ZN4core3ptr8non_null26NonNull$LT$$u5b$T$u5d$$GT$3len17h60ee89568f027b03E>
  207c86:	48 89 44 24 08       	mov    %rax,0x8(%rsp)
  207c8b:	48 8b 7c 24 08       	mov    0x8(%rsp),%rdi
  207c90:	e8 cb fc ff ff       	callq  207960 <_ZN5alloc7raw_vec19RawVec$LT$T$C$A$GT$19capacity_from_bytes17h77e37d77c1dad7b2E>
  207c95:	48 89 04 24          	mov    %rax,(%rsp)
  207c99:	48 8b 44 24 30       	mov    0x30(%rsp),%rax
  207c9e:	48 8b 0c 24          	mov    (%rsp),%rcx
  207ca2:	48 89 48 08          	mov    %rcx,0x8(%rax)
    }
  207ca6:	48 83 c4 58          	add    $0x58,%rsp
  207caa:	c3                   	retq   
  207cab:	cc                   	int3   
  207cac:	cc                   	int3   
  207cad:	cc                   	int3   
  207cae:	cc                   	int3   
  207caf:	cc                   	int3   

0000000000207cb0 <_ZN5alloc7raw_vec19RawVec$LT$T$C$A$GT$7set_ptr17h88bff482bda567aeE>:
    fn set_ptr(&mut self, ptr: NonNull<[u8]>) {
  207cb0:	48 83 ec 58          	sub    $0x58,%rsp
  207cb4:	48 89 54 24 20       	mov    %rdx,0x20(%rsp)
  207cb9:	48 89 f0             	mov    %rsi,%rax
  207cbc:	48 8b 74 24 20       	mov    0x20(%rsp),%rsi
  207cc1:	48 89 44 24 28       	mov    %rax,0x28(%rsp)
  207cc6:	48 89 f8             	mov    %rdi,%rax
  207cc9:	48 8b 7c 24 28       	mov    0x28(%rsp),%rdi
  207cce:	48 89 44 24 30       	mov    %rax,0x30(%rsp)
  207cd3:	48 89 44 24 40       	mov    %rax,0x40(%rsp)
  207cd8:	48 89 7c 24 48       	mov    %rdi,0x48(%rsp)
  207cdd:	48 89 74 24 50       	mov    %rsi,0x50(%rsp)
        self.ptr = unsafe { Unique::new_unchecked(ptr.cast().as_ptr()) };
  207ce2:	e8 19 03 02 00       	callq  228000 <_ZN4core3ptr8non_null16NonNull$LT$T$GT$4cast17h85f07a89a7a7a8a1E>
  207ce7:	48 89 44 24 38       	mov    %rax,0x38(%rsp)
  207cec:	48 8b 7c 24 38       	mov    0x38(%rsp),%rdi
  207cf1:	e8 da 03 02 00       	callq  2280d0 <_ZN4core3ptr8non_null16NonNull$LT$T$GT$6as_ptr17h552a258b54bc04b4E>
  207cf6:	48 89 44 24 18       	mov    %rax,0x18(%rsp)
  207cfb:	48 8b 7c 24 18       	mov    0x18(%rsp),%rdi
  207d00:	e8 1b fc 00 00       	callq  217920 <_ZN4core3ptr6unique15Unique$LT$T$GT$13new_unchecked17h490cf4a7df51fc38E>
  207d05:	48 89 44 24 10       	mov    %rax,0x10(%rsp)
  207d0a:	48 8b 74 24 20       	mov    0x20(%rsp),%rsi
  207d0f:	48 8b 7c 24 28       	mov    0x28(%rsp),%rdi
  207d14:	48 8b 44 24 30       	mov    0x30(%rsp),%rax
  207d19:	48 8b 4c 24 10       	mov    0x10(%rsp),%rcx
  207d1e:	48 89 08             	mov    %rcx,(%rax)
        self.cap = Self::capacity_from_bytes(ptr.len());
  207d21:	e8 fa 04 02 00       	callq  228220 <_ZN4core3ptr8non_null26NonNull$LT$$u5b$T$u5d$$GT$3len17h60ee89568f027b03E>
  207d26:	48 89 44 24 08       	mov    %rax,0x8(%rsp)
  207d2b:	48 8b 7c 24 08       	mov    0x8(%rsp),%rdi
  207d30:	e8 db fb ff ff       	callq  207910 <_ZN5alloc7raw_vec19RawVec$LT$T$C$A$GT$19capacity_from_bytes17h2111529f02ce747fE>
  207d35:	48 89 04 24          	mov    %rax,(%rsp)
  207d39:	48 8b 44 24 30       	mov    0x30(%rsp),%rax
  207d3e:	48 8b 0c 24          	mov    (%rsp),%rcx
  207d42:	48 89 48 08          	mov    %rcx,0x8(%rax)
    }
  207d46:	48 83 c4 58          	add    $0x58,%rsp
  207d4a:	c3                   	retq   
  207d4b:	cc                   	int3   
  207d4c:	cc                   	int3   
  207d4d:	cc                   	int3   
  207d4e:	cc                   	int3   
  207d4f:	cc                   	int3   

0000000000207d50 <_ZN5alloc7raw_vec19RawVec$LT$T$C$A$GT$7set_ptr17h9b9ccef11e164c81E>:
    fn set_ptr(&mut self, ptr: NonNull<[u8]>) {
  207d50:	48 83 ec 58          	sub    $0x58,%rsp
  207d54:	48 89 54 24 20       	mov    %rdx,0x20(%rsp)
  207d59:	48 89 f0             	mov    %rsi,%rax
  207d5c:	48 8b 74 24 20       	mov    0x20(%rsp),%rsi
  207d61:	48 89 44 24 28       	mov    %rax,0x28(%rsp)
  207d66:	48 89 f8             	mov    %rdi,%rax
  207d69:	48 8b 7c 24 28       	mov    0x28(%rsp),%rdi
  207d6e:	48 89 44 24 30       	mov    %rax,0x30(%rsp)
  207d73:	48 89 44 24 40       	mov    %rax,0x40(%rsp)
  207d78:	48 89 7c 24 48       	mov    %rdi,0x48(%rsp)
  207d7d:	48 89 74 24 50       	mov    %rsi,0x50(%rsp)
        self.ptr = unsafe { Unique::new_unchecked(ptr.cast().as_ptr()) };
  207d82:	e8 f9 02 02 00       	callq  228080 <_ZN4core3ptr8non_null16NonNull$LT$T$GT$4cast17heceef75a4b1639c3E>
  207d87:	48 89 44 24 38       	mov    %rax,0x38(%rsp)
  207d8c:	48 8b 7c 24 38       	mov    0x38(%rsp),%rdi
  207d91:	e8 2a 03 02 00       	callq  2280c0 <_ZN4core3ptr8non_null16NonNull$LT$T$GT$6as_ptr17h4044b6540ffdc00bE>
  207d96:	48 89 44 24 18       	mov    %rax,0x18(%rsp)
  207d9b:	48 8b 7c 24 18       	mov    0x18(%rsp),%rdi
  207da0:	e8 5b fb 00 00       	callq  217900 <_ZN4core3ptr6unique15Unique$LT$T$GT$13new_unchecked17h26d845bbebccc84cE>
  207da5:	48 89 44 24 10       	mov    %rax,0x10(%rsp)
  207daa:	48 8b 74 24 20       	mov    0x20(%rsp),%rsi
  207daf:	48 8b 7c 24 28       	mov    0x28(%rsp),%rdi
  207db4:	48 8b 44 24 30       	mov    0x30(%rsp),%rax
  207db9:	48 8b 4c 24 10       	mov    0x10(%rsp),%rcx
  207dbe:	48 89 08             	mov    %rcx,(%rax)
        self.cap = Self::capacity_from_bytes(ptr.len());
  207dc1:	e8 5a 04 02 00       	callq  228220 <_ZN4core3ptr8non_null26NonNull$LT$$u5b$T$u5d$$GT$3len17h60ee89568f027b03E>
  207dc6:	48 89 44 24 08       	mov    %rax,0x8(%rsp)
  207dcb:	48 8b 7c 24 08       	mov    0x8(%rsp),%rdi
  207dd0:	e8 db fb ff ff       	callq  2079b0 <_ZN5alloc7raw_vec19RawVec$LT$T$C$A$GT$19capacity_from_bytes17hfbdb567b914738e8E>
  207dd5:	48 89 04 24          	mov    %rax,(%rsp)
  207dd9:	48 8b 44 24 30       	mov    0x30(%rsp),%rax
  207dde:	48 8b 0c 24          	mov    (%rsp),%rcx
  207de2:	48 89 48 08          	mov    %rcx,0x8(%rax)
    }
  207de6:	48 83 c4 58          	add    $0x58,%rsp
  207dea:	c3                   	retq   
  207deb:	cc                   	int3   
  207dec:	cc                   	int3   
  207ded:	cc                   	int3   
  207dee:	cc                   	int3   
  207def:	cc                   	int3   

0000000000207df0 <_ZN4core5alloc6global11GlobalAlloc12alloc_zeroed17h2039308a8c6a1e92E>:
    /// allocation error are encouraged to call the [`handle_alloc_error`] function,
    /// rather than directly invoking `panic!` or similar.
    ///
    /// [`handle_alloc_error`]: ../../alloc/alloc/fn.handle_alloc_error.html
    #[stable(feature = "global_alloc", since = "1.28.0")]
    unsafe fn alloc_zeroed(&self, layout: Layout) -> *mut u8 {
  207df0:	48 83 ec 48          	sub    $0x48,%rsp
  207df4:	48 89 7c 24 10       	mov    %rdi,0x10(%rsp)
  207df9:	48 89 74 24 20       	mov    %rsi,0x20(%rsp)
  207dfe:	48 89 54 24 28       	mov    %rdx,0x28(%rsp)
  207e03:	48 89 7c 24 30       	mov    %rdi,0x30(%rsp)
        let size = layout.size();
  207e08:	48 8d 7c 24 20       	lea    0x20(%rsp),%rdi
  207e0d:	e8 3e 26 01 00       	callq  21a450 <_ZN4core5alloc6layout6Layout4size17h891a57d4c337bf81E>
  207e12:	48 89 44 24 18       	mov    %rax,0x18(%rsp)
  207e17:	48 89 44 24 38       	mov    %rax,0x38(%rsp)
  207e1c:	48 8b 7c 24 10       	mov    0x10(%rsp),%rdi
        // SAFETY: the safety contract for `alloc` must be upheld by the caller.
        let ptr = unsafe { self.alloc(layout) };
  207e21:	48 8b 74 24 20       	mov    0x20(%rsp),%rsi
  207e26:	48 8b 54 24 28       	mov    0x28(%rsp),%rdx
  207e2b:	e8 30 53 02 00       	callq  22d160 <_ZN86_$LT$linked_list_allocator..LockedHeap$u20$as$u20$core..alloc..global..GlobalAlloc$GT$5alloc17hf251c236b058a1a6E>
  207e30:	48 89 44 24 08       	mov    %rax,0x8(%rsp)
  207e35:	48 89 44 24 40       	mov    %rax,0x40(%rsp)
  207e3a:	48 8b 7c 24 08       	mov    0x8(%rsp),%rdi
        if !ptr.is_null() {
  207e3f:	e8 7c 75 02 00       	callq  22f3c0 <_ZN4core3ptr7mut_ptr31_$LT$impl$u20$$BP$mut$u20$T$GT$7is_null17h0231856cce4670d1E>
  207e44:	88 44 24 07          	mov    %al,0x7(%rsp)
  207e48:	8a 44 24 07          	mov    0x7(%rsp),%al
  207e4c:	34 ff                	xor    $0xff,%al
  207e4e:	a8 01                	test   $0x1,%al
  207e50:	75 0a                	jne    207e5c <_ZN4core5alloc6global11GlobalAlloc12alloc_zeroed17h2039308a8c6a1e92E+0x6c>
  207e52:	48 8b 44 24 08       	mov    0x8(%rsp),%rax
            // SAFETY: as allocation succeeded, the region from `ptr`
            // of size `size` is guaranteed to be valid for writes.
            unsafe { ptr::write_bytes(ptr, 0, size) };
        }
        ptr
    }
  207e57:	48 83 c4 48          	add    $0x48,%rsp
  207e5b:	c3                   	retq   
  207e5c:	48 8b 54 24 18       	mov    0x18(%rsp),%rdx
  207e61:	48 8b 7c 24 08       	mov    0x8(%rsp),%rdi
            unsafe { ptr::write_bytes(ptr, 0, size) };
  207e66:	31 f6                	xor    %esi,%esi
  207e68:	e8 43 09 02 00       	callq  2287b0 <_ZN4core10intrinsics11write_bytes17hc743da85aa5bddaeE>
        if !ptr.is_null() {
  207e6d:	eb e3                	jmp    207e52 <_ZN4core5alloc6global11GlobalAlloc12alloc_zeroed17h2039308a8c6a1e92E+0x62>
  207e6f:	cc                   	int3   

0000000000207e70 <_ZN4core5alloc6global11GlobalAlloc7realloc17h2f0d50e7819a9f61E>:
    /// reallocation error are encouraged to call the [`handle_alloc_error`] function,
    /// rather than directly invoking `panic!` or similar.
    ///
    /// [`handle_alloc_error`]: ../../alloc/alloc/fn.handle_alloc_error.html
    #[stable(feature = "global_alloc", since = "1.28.0")]
    unsafe fn realloc(&self, ptr: *mut u8, layout: Layout, new_size: usize) -> *mut u8 {
  207e70:	48 81 ec 98 00 00 00 	sub    $0x98,%rsp
  207e77:	4c 89 44 24 38       	mov    %r8,0x38(%rsp)
  207e7c:	48 89 74 24 40       	mov    %rsi,0x40(%rsp)
  207e81:	48 89 7c 24 48       	mov    %rdi,0x48(%rsp)
  207e86:	48 89 54 24 58       	mov    %rdx,0x58(%rsp)
  207e8b:	48 89 4c 24 60       	mov    %rcx,0x60(%rsp)
  207e90:	48 89 7c 24 68       	mov    %rdi,0x68(%rsp)
  207e95:	48 89 74 24 70       	mov    %rsi,0x70(%rsp)
  207e9a:	4c 89 44 24 78       	mov    %r8,0x78(%rsp)
        // SAFETY: the caller must ensure that the `new_size` does not overflow.
        // `layout.align()` comes from a `Layout` and is thus guaranteed to be valid.
        let new_layout = unsafe { Layout::from_size_align_unchecked(new_size, layout.align()) };
  207e9f:	48 8d 7c 24 58       	lea    0x58(%rsp),%rdi
  207ea4:	e8 b7 25 01 00       	callq  21a460 <_ZN4core5alloc6layout6Layout5align17heb2acf6278ea7048E>
  207ea9:	48 89 44 24 50       	mov    %rax,0x50(%rsp)
  207eae:	48 8b 74 24 50       	mov    0x50(%rsp),%rsi
  207eb3:	48 8b 7c 24 38       	mov    0x38(%rsp),%rdi
  207eb8:	e8 43 25 01 00       	callq  21a400 <_ZN4core5alloc6layout6Layout25from_size_align_unchecked17h3fcf5f62e634fa6fE>
  207ebd:	48 89 44 24 28       	mov    %rax,0x28(%rsp)
  207ec2:	48 89 54 24 30       	mov    %rdx,0x30(%rsp)
  207ec7:	48 89 84 24 80 00 00 	mov    %rax,0x80(%rsp)
  207ece:	00 
  207ecf:	48 89 94 24 88 00 00 	mov    %rdx,0x88(%rsp)
  207ed6:	00 
  207ed7:	48 8b 54 24 30       	mov    0x30(%rsp),%rdx
  207edc:	48 8b 74 24 28       	mov    0x28(%rsp),%rsi
  207ee1:	48 8b 7c 24 48       	mov    0x48(%rsp),%rdi
        // SAFETY: the caller must ensure that `new_layout` is greater than zero.
        let new_ptr = unsafe { self.alloc(new_layout) };
  207ee6:	e8 75 52 02 00       	callq  22d160 <_ZN86_$LT$linked_list_allocator..LockedHeap$u20$as$u20$core..alloc..global..GlobalAlloc$GT$5alloc17hf251c236b058a1a6E>
  207eeb:	48 89 44 24 20       	mov    %rax,0x20(%rsp)
  207ef0:	48 89 84 24 90 00 00 	mov    %rax,0x90(%rsp)
  207ef7:	00 
  207ef8:	48 8b 7c 24 20       	mov    0x20(%rsp),%rdi
        if !new_ptr.is_null() {
  207efd:	e8 be 74 02 00       	callq  22f3c0 <_ZN4core3ptr7mut_ptr31_$LT$impl$u20$$BP$mut$u20$T$GT$7is_null17h0231856cce4670d1E>
  207f02:	88 44 24 1f          	mov    %al,0x1f(%rsp)
  207f06:	8a 44 24 1f          	mov    0x1f(%rsp),%al
  207f0a:	34 ff                	xor    $0xff,%al
  207f0c:	a8 01                	test   $0x1,%al
  207f0e:	75 0d                	jne    207f1d <_ZN4core5alloc6global11GlobalAlloc7realloc17h2f0d50e7819a9f61E+0xad>
  207f10:	48 8b 44 24 20       	mov    0x20(%rsp),%rax
                ptr::copy_nonoverlapping(ptr, new_ptr, cmp::min(layout.size(), new_size));
                self.dealloc(ptr, layout);
            }
        }
        new_ptr
    }
  207f15:	48 81 c4 98 00 00 00 	add    $0x98,%rsp
  207f1c:	c3                   	retq   
                ptr::copy_nonoverlapping(ptr, new_ptr, cmp::min(layout.size(), new_size));
  207f1d:	48 8d 7c 24 58       	lea    0x58(%rsp),%rdi
  207f22:	e8 29 25 01 00       	callq  21a450 <_ZN4core5alloc6layout6Layout4size17h891a57d4c337bf81E>
  207f27:	48 89 44 24 10       	mov    %rax,0x10(%rsp)
  207f2c:	48 8b 74 24 38       	mov    0x38(%rsp),%rsi
  207f31:	48 8b 7c 24 10       	mov    0x10(%rsp),%rdi
  207f36:	e8 25 8c 02 00       	callq  230b60 <_ZN4core3cmp3min17he6f664f09d7a8d9bE>
  207f3b:	48 89 44 24 08       	mov    %rax,0x8(%rsp)
  207f40:	48 8b 54 24 08       	mov    0x8(%rsp),%rdx
  207f45:	48 8b 74 24 20       	mov    0x20(%rsp),%rsi
  207f4a:	48 8b 7c 24 40       	mov    0x40(%rsp),%rdi
  207f4f:	e8 8c 08 02 00       	callq  2287e0 <_ZN4core10intrinsics19copy_nonoverlapping17hf8238b5a76e8c658E>
  207f54:	48 8b 74 24 40       	mov    0x40(%rsp),%rsi
  207f59:	48 8b 7c 24 48       	mov    0x48(%rsp),%rdi
                self.dealloc(ptr, layout);
  207f5e:	48 8b 54 24 58       	mov    0x58(%rsp),%rdx
  207f63:	48 8b 4c 24 60       	mov    0x60(%rsp),%rcx
  207f68:	e8 83 52 02 00       	callq  22d1f0 <_ZN86_$LT$linked_list_allocator..LockedHeap$u20$as$u20$core..alloc..global..GlobalAlloc$GT$7dealloc17h08c76504a2751a9dE>
        if !new_ptr.is_null() {
  207f6d:	eb a1                	jmp    207f10 <_ZN4core5alloc6global11GlobalAlloc7realloc17h2f0d50e7819a9f61E+0xa0>
  207f6f:	cc                   	int3   

0000000000207f70 <_ZN4spin4once13Once$LT$T$GT$9call_once17h0101f269c9d506daE>:
    /// fn expensive_computation() -> usize {
    ///     // ...
    /// # 2
    /// }
    /// ```
    pub fn call_once<'a, F>(&'a self, builder: F) -> &'a T
  207f70:	48 81 ec c8 00 00 00 	sub    $0xc8,%rsp
  207f77:	48 89 7c 24 30       	mov    %rdi,0x30(%rsp)
  207f7c:	48 89 bc 24 b0 00 00 	mov    %rdi,0xb0(%rsp)
  207f83:	00 
                // This next line is strictly an optimization
                return self.force_get();
            }
        }

        loop {
  207f84:	c6 84 24 af 00 00 00 	movb   $0x0,0xaf(%rsp)
  207f8b:	00 
  207f8c:	c6 84 24 af 00 00 00 	movb   $0x1,0xaf(%rsp)
  207f93:	01 
        let mut status = self.state.load(Ordering::SeqCst);
  207f94:	c6 44 24 4e 04       	movb   $0x4,0x4e(%rsp)
  207f99:	0f b6 74 24 4e       	movzbl 0x4e(%rsp),%esi
  207f9e:	e8 1d 0d 02 00       	callq  228cc0 <_ZN4core4sync6atomic11AtomicUsize4load17h676aa25949b33a83E>
  207fa3:	48 89 44 24 40       	mov    %rax,0x40(%rsp)
        if status == INCOMPLETE {
  207fa8:	48 83 7c 24 40 00    	cmpq   $0x0,0x40(%rsp)
  207fae:	74 29                	je     207fd9 <_ZN4spin4once13Once$LT$T$GT$9call_once17h0101f269c9d506daE+0x69>
            match status {
  207fb0:	48 8b 44 24 40       	mov    0x40(%rsp),%rax
  207fb5:	48 89 44 24 28       	mov    %rax,0x28(%rsp)
  207fba:	48 83 e8 03          	sub    $0x3,%rax
  207fbe:	0f 87 35 01 00 00    	ja     2080f9 <_ZN4spin4once13Once$LT$T$GT$9call_once17h0101f269c9d506daE+0x189>
  207fc4:	48 8b 44 24 28       	mov    0x28(%rsp),%rax
  207fc9:	48 8d 0d 4c 83 ff ff 	lea    -0x7cb4(%rip),%rcx        # 20031c <str.0+0x1c>
  207fd0:	48 63 04 81          	movslq (%rcx,%rax,4),%rax
  207fd4:	48 01 c8             	add    %rcx,%rax
  207fd7:	ff e0                	jmpq   *%rax
  207fd9:	48 8b 7c 24 30       	mov    0x30(%rsp),%rdi
                                                 Ordering::SeqCst);
  207fde:	c6 44 24 4f 04       	movb   $0x4,0x4f(%rsp)
            status = self.state.compare_and_swap(INCOMPLETE,
  207fe3:	31 c0                	xor    %eax,%eax
  207fe5:	89 c6                	mov    %eax,%esi
  207fe7:	ba 01 00 00 00       	mov    $0x1,%edx
  207fec:	0f b6 4c 24 4f       	movzbl 0x4f(%rsp),%ecx
  207ff1:	e8 aa 0b 02 00       	callq  228ba0 <_ZN4core4sync6atomic11AtomicUsize16compare_and_swap17hb896640bc65eb7abE>
  207ff6:	48 89 44 24 20       	mov    %rax,0x20(%rsp)
  207ffb:	48 8b 44 24 20       	mov    0x20(%rsp),%rax
  208000:	48 89 44 24 40       	mov    %rax,0x40(%rsp)
            if status == INCOMPLETE { // We init
  208005:	48 83 7c 24 40 00    	cmpq   $0x0,0x40(%rsp)
  20800b:	75 a3                	jne    207fb0 <_ZN4spin4once13Once$LT$T$GT$9call_once17h0101f269c9d506daE+0x40>
  20800d:	48 8b 44 24 30       	mov    0x30(%rsp),%rax
                let mut finish = Finish { state: &self.state, panicked: true };
  208012:	48 89 44 24 50       	mov    %rax,0x50(%rsp)
  208017:	c6 44 24 58 01       	movb   $0x1,0x58(%rsp)
                unsafe { *self.data.get() = Some(builder()) };
  20801c:	c6 84 24 af 00 00 00 	movb   $0x0,0xaf(%rsp)
  208023:	00 
  208024:	48 8d bc 24 88 00 00 	lea    0x88(%rsp),%rdi
  20802b:	00 
  20802c:	e8 7f 35 00 00       	callq  20b5b0 <_ZN4core3ops8function6FnOnce9call_once17h4985b7a711a6d100E>
  208031:	48 8b 44 24 30       	mov    0x30(%rsp),%rax
  208036:	48 8b 8c 24 88 00 00 	mov    0x88(%rsp),%rcx
  20803d:	00 
  20803e:	48 89 4c 24 68       	mov    %rcx,0x68(%rsp)
  208043:	48 8b 8c 24 90 00 00 	mov    0x90(%rsp),%rcx
  20804a:	00 
  20804b:	48 89 4c 24 70       	mov    %rcx,0x70(%rsp)
  208050:	48 8b 8c 24 98 00 00 	mov    0x98(%rsp),%rcx
  208057:	00 
  208058:	48 89 4c 24 78       	mov    %rcx,0x78(%rsp)
  20805d:	48 8b 8c 24 a0 00 00 	mov    0xa0(%rsp),%rcx
  208064:	00 
  208065:	48 89 8c 24 80 00 00 	mov    %rcx,0x80(%rsp)
  20806c:	00 
  20806d:	48 c7 44 24 60 01 00 	movq   $0x1,0x60(%rsp)
  208074:	00 00 
  208076:	48 83 c0 08          	add    $0x8,%rax
  20807a:	48 89 84 24 c0 00 00 	mov    %rax,0xc0(%rsp)
  208081:	00 
  208082:	48 89 44 24 18       	mov    %rax,0x18(%rsp)
  208087:	eb 00                	jmp    208089 <_ZN4spin4once13Once$LT$T$GT$9call_once17h0101f269c9d506daE+0x119>
  208089:	48 8b 7c 24 18       	mov    0x18(%rsp),%rdi
  20808e:	48 8d 74 24 60       	lea    0x60(%rsp),%rsi
  208093:	ba 28 00 00 00       	mov    $0x28,%edx
  208098:	e8 c3 e4 02 00       	callq  236560 <memcpy>
  20809d:	48 8b 7c 24 30       	mov    0x30(%rsp),%rdi
                finish.panicked = false;
  2080a2:	c6 44 24 58 00       	movb   $0x0,0x58(%rsp)
                status = COMPLETE;
  2080a7:	48 c7 44 24 40 02 00 	movq   $0x2,0x40(%rsp)
  2080ae:	00 00 
                self.state.store(status, Ordering::SeqCst);
  2080b0:	c6 84 24 ad 00 00 00 	movb   $0x4,0xad(%rsp)
  2080b7:	04 
  2080b8:	be 02 00 00 00       	mov    $0x2,%esi
  2080bd:	0f b6 94 24 ad 00 00 	movzbl 0xad(%rsp),%edx
  2080c4:	00 
  2080c5:	e8 36 0c 02 00       	callq  228d00 <_ZN4core4sync6atomic11AtomicUsize5store17h4c3fd8ca10ebd78dE>
  2080ca:	48 8b 7c 24 30       	mov    0x30(%rsp),%rdi
                return self.force_get();
  2080cf:	e8 0c 21 00 00       	callq  20a1e0 <_ZN4spin4once13Once$LT$T$GT$9force_get17h7805e3fd0e019c67E>
  2080d4:	48 89 44 24 10       	mov    %rax,0x10(%rsp)
  2080d9:	48 8b 44 24 10       	mov    0x10(%rsp),%rax
  2080de:	48 89 44 24 38       	mov    %rax,0x38(%rsp)
            }
  2080e3:	48 8d 7c 24 50       	lea    0x50(%rsp),%rdi
  2080e8:	e8 43 38 00 00       	callq  20b930 <_ZN4core3ptr39drop_in_place$LT$spin..once..Finish$GT$17h1e72272e055ed4abE>
                PANICKED => panic!("Once has panicked"),
                COMPLETE => return self.force_get(),
                _ => unsafe { unreachable() },
            }
        }
    }
  2080ed:	f6 84 24 af 00 00 00 	testb  $0x1,0xaf(%rsp)
  2080f4:	01 
  2080f5:	75 6c                	jne    208163 <_ZN4spin4once13Once$LT$T$GT$9call_once17h0101f269c9d506daE+0x1f3>
  2080f7:	eb 5d                	jmp    208156 <_ZN4spin4once13Once$LT$T$GT$9call_once17h0101f269c9d506daE+0x1e6>
                _ => unsafe { unreachable() },
  2080f9:	e8 42 f6 00 00       	callq  217740 <_ZN4core4hint21unreachable_unchecked17h3d568e9cb7ce9039E>
  2080fe:	0f 0b                	ud2    
                INCOMPLETE => unreachable!(),
  208100:	48 8d 3d 6c 83 ff ff 	lea    -0x7c94(%rip),%rdi        # 200473 <str.0+0x173>
  208107:	48 8d 15 1a f5 02 00 	lea    0x2f51a(%rip),%rdx        # 237628 <memcmp+0x1078>
  20810e:	be 28 00 00 00       	mov    $0x28,%esi
  208113:	e8 48 b3 02 00       	callq  233460 <_ZN4core9panicking5panic17hb5e1b99c05020429E>
  208118:	0f 0b                	ud2    
                    cpu_relax();
  20811a:	e8 71 0c 02 00       	callq  228d90 <_ZN4core4sync6atomic14spin_loop_hint17h2201e74ebeb209f7E>
  20811f:	eb 44                	jmp    208165 <_ZN4spin4once13Once$LT$T$GT$9call_once17h0101f269c9d506daE+0x1f5>
                PANICKED => panic!("Once has panicked"),
  208121:	48 8d 3d e4 82 ff ff 	lea    -0x7d1c(%rip),%rdi        # 20040c <str.0+0x10c>
  208128:	48 8d 15 e1 f4 02 00 	lea    0x2f4e1(%rip),%rdx        # 237610 <memcmp+0x1060>
  20812f:	be 11 00 00 00       	mov    $0x11,%esi
  208134:	e8 27 b3 02 00       	callq  233460 <_ZN4core9panicking5panic17hb5e1b99c05020429E>
  208139:	0f 0b                	ud2    
  20813b:	48 8b 7c 24 30       	mov    0x30(%rsp),%rdi
                COMPLETE => return self.force_get(),
  208140:	e8 9b 20 00 00       	callq  20a1e0 <_ZN4spin4once13Once$LT$T$GT$9force_get17h7805e3fd0e019c67E>
  208145:	48 89 44 24 08       	mov    %rax,0x8(%rsp)
  20814a:	48 8b 44 24 08       	mov    0x8(%rsp),%rax
  20814f:	48 89 44 24 38       	mov    %rax,0x38(%rsp)
  208154:	eb 97                	jmp    2080ed <_ZN4spin4once13Once$LT$T$GT$9call_once17h0101f269c9d506daE+0x17d>
    }
  208156:	48 8b 44 24 38       	mov    0x38(%rsp),%rax
  20815b:	48 81 c4 c8 00 00 00 	add    $0xc8,%rsp
  208162:	c3                   	retq   
  208163:	eb f1                	jmp    208156 <_ZN4spin4once13Once$LT$T$GT$9call_once17h0101f269c9d506daE+0x1e6>
  208165:	48 8b 7c 24 30       	mov    0x30(%rsp),%rdi
                    status = self.state.load(Ordering::SeqCst)
  20816a:	c6 84 24 ae 00 00 00 	movb   $0x4,0xae(%rsp)
  208171:	04 
  208172:	0f b6 b4 24 ae 00 00 	movzbl 0xae(%rsp),%esi
  208179:	00 
  20817a:	e8 41 0b 02 00       	callq  228cc0 <_ZN4core4sync6atomic11AtomicUsize4load17h676aa25949b33a83E>
  20817f:	48 89 04 24          	mov    %rax,(%rsp)
  208183:	48 8b 04 24          	mov    (%rsp),%rax
  208187:	48 89 44 24 40       	mov    %rax,0x40(%rsp)
  20818c:	e9 1f fe ff ff       	jmpq   207fb0 <_ZN4spin4once13Once$LT$T$GT$9call_once17h0101f269c9d506daE+0x40>
  208191:	cc                   	int3   
  208192:	cc                   	int3   
  208193:	cc                   	int3   
  208194:	cc                   	int3   
  208195:	cc                   	int3   
  208196:	cc                   	int3   
  208197:	cc                   	int3   
  208198:	cc                   	int3   
  208199:	cc                   	int3   
  20819a:	cc                   	int3   
  20819b:	cc                   	int3   
  20819c:	cc                   	int3   
  20819d:	cc                   	int3   
  20819e:	cc                   	int3   
  20819f:	cc                   	int3   

00000000002081a0 <_ZN4spin4once13Once$LT$T$GT$9call_once17h02e84ef863697735E>:
    pub fn call_once<'a, F>(&'a self, builder: F) -> &'a T
  2081a0:	48 81 ec c8 00 00 00 	sub    $0xc8,%rsp
  2081a7:	48 89 7c 24 30       	mov    %rdi,0x30(%rsp)
  2081ac:	48 89 bc 24 b0 00 00 	mov    %rdi,0xb0(%rsp)
  2081b3:	00 
        loop {
  2081b4:	c6 84 24 af 00 00 00 	movb   $0x0,0xaf(%rsp)
  2081bb:	00 
  2081bc:	c6 84 24 af 00 00 00 	movb   $0x1,0xaf(%rsp)
  2081c3:	01 
        let mut status = self.state.load(Ordering::SeqCst);
  2081c4:	c6 44 24 4e 04       	movb   $0x4,0x4e(%rsp)
  2081c9:	0f b6 74 24 4e       	movzbl 0x4e(%rsp),%esi
  2081ce:	e8 ed 0a 02 00       	callq  228cc0 <_ZN4core4sync6atomic11AtomicUsize4load17h676aa25949b33a83E>
  2081d3:	48 89 44 24 40       	mov    %rax,0x40(%rsp)
        if status == INCOMPLETE {
  2081d8:	48 83 7c 24 40 00    	cmpq   $0x0,0x40(%rsp)
  2081de:	74 29                	je     208209 <_ZN4spin4once13Once$LT$T$GT$9call_once17h02e84ef863697735E+0x69>
            match status {
  2081e0:	48 8b 44 24 40       	mov    0x40(%rsp),%rax
  2081e5:	48 89 44 24 28       	mov    %rax,0x28(%rsp)
  2081ea:	48 83 e8 03          	sub    $0x3,%rax
  2081ee:	0f 87 35 01 00 00    	ja     208329 <_ZN4spin4once13Once$LT$T$GT$9call_once17h02e84ef863697735E+0x189>
  2081f4:	48 8b 44 24 28       	mov    0x28(%rsp),%rax
  2081f9:	48 8d 0d 2c 81 ff ff 	lea    -0x7ed4(%rip),%rcx        # 20032c <str.0+0x2c>
  208200:	48 63 04 81          	movslq (%rcx,%rax,4),%rax
  208204:	48 01 c8             	add    %rcx,%rax
  208207:	ff e0                	jmpq   *%rax
  208209:	48 8b 7c 24 30       	mov    0x30(%rsp),%rdi
                                                 Ordering::SeqCst);
  20820e:	c6 44 24 4f 04       	movb   $0x4,0x4f(%rsp)
            status = self.state.compare_and_swap(INCOMPLETE,
  208213:	31 c0                	xor    %eax,%eax
  208215:	89 c6                	mov    %eax,%esi
  208217:	ba 01 00 00 00       	mov    $0x1,%edx
  20821c:	0f b6 4c 24 4f       	movzbl 0x4f(%rsp),%ecx
  208221:	e8 7a 09 02 00       	callq  228ba0 <_ZN4core4sync6atomic11AtomicUsize16compare_and_swap17hb896640bc65eb7abE>
  208226:	48 89 44 24 20       	mov    %rax,0x20(%rsp)
  20822b:	48 8b 44 24 20       	mov    0x20(%rsp),%rax
  208230:	48 89 44 24 40       	mov    %rax,0x40(%rsp)
            if status == INCOMPLETE { // We init
  208235:	48 83 7c 24 40 00    	cmpq   $0x0,0x40(%rsp)
  20823b:	75 a3                	jne    2081e0 <_ZN4spin4once13Once$LT$T$GT$9call_once17h02e84ef863697735E+0x40>
  20823d:	48 8b 44 24 30       	mov    0x30(%rsp),%rax
                let mut finish = Finish { state: &self.state, panicked: true };
  208242:	48 89 44 24 50       	mov    %rax,0x50(%rsp)
  208247:	c6 44 24 58 01       	movb   $0x1,0x58(%rsp)
                unsafe { *self.data.get() = Some(builder()) };
  20824c:	c6 84 24 af 00 00 00 	movb   $0x0,0xaf(%rsp)
  208253:	00 
  208254:	48 8d bc 24 88 00 00 	lea    0x88(%rsp),%rdi
  20825b:	00 
  20825c:	e8 4f 32 00 00       	callq  20b4b0 <_ZN4core3ops8function6FnOnce9call_once17h1edd667f22cfc967E>
  208261:	48 8b 44 24 30       	mov    0x30(%rsp),%rax
  208266:	48 8b 8c 24 88 00 00 	mov    0x88(%rsp),%rcx
  20826d:	00 
  20826e:	48 89 4c 24 68       	mov    %rcx,0x68(%rsp)
  208273:	48 8b 8c 24 90 00 00 	mov    0x90(%rsp),%rcx
  20827a:	00 
  20827b:	48 89 4c 24 70       	mov    %rcx,0x70(%rsp)
  208280:	48 8b 8c 24 98 00 00 	mov    0x98(%rsp),%rcx
  208287:	00 
  208288:	48 89 4c 24 78       	mov    %rcx,0x78(%rsp)
  20828d:	48 8b 8c 24 a0 00 00 	mov    0xa0(%rsp),%rcx
  208294:	00 
  208295:	48 89 8c 24 80 00 00 	mov    %rcx,0x80(%rsp)
  20829c:	00 
  20829d:	48 c7 44 24 60 01 00 	movq   $0x1,0x60(%rsp)
  2082a4:	00 00 
  2082a6:	48 83 c0 08          	add    $0x8,%rax
  2082aa:	48 89 84 24 c0 00 00 	mov    %rax,0xc0(%rsp)
  2082b1:	00 
  2082b2:	48 89 44 24 18       	mov    %rax,0x18(%rsp)
  2082b7:	eb 00                	jmp    2082b9 <_ZN4spin4once13Once$LT$T$GT$9call_once17h02e84ef863697735E+0x119>
  2082b9:	48 8b 7c 24 18       	mov    0x18(%rsp),%rdi
  2082be:	48 8d 74 24 60       	lea    0x60(%rsp),%rsi
  2082c3:	ba 28 00 00 00       	mov    $0x28,%edx
  2082c8:	e8 93 e2 02 00       	callq  236560 <memcpy>
  2082cd:	48 8b 7c 24 30       	mov    0x30(%rsp),%rdi
                finish.panicked = false;
  2082d2:	c6 44 24 58 00       	movb   $0x0,0x58(%rsp)
                status = COMPLETE;
  2082d7:	48 c7 44 24 40 02 00 	movq   $0x2,0x40(%rsp)
  2082de:	00 00 
                self.state.store(status, Ordering::SeqCst);
  2082e0:	c6 84 24 ad 00 00 00 	movb   $0x4,0xad(%rsp)
  2082e7:	04 
  2082e8:	be 02 00 00 00       	mov    $0x2,%esi
  2082ed:	0f b6 94 24 ad 00 00 	movzbl 0xad(%rsp),%edx
  2082f4:	00 
  2082f5:	e8 06 0a 02 00       	callq  228d00 <_ZN4core4sync6atomic11AtomicUsize5store17h4c3fd8ca10ebd78dE>
  2082fa:	48 8b 7c 24 30       	mov    0x30(%rsp),%rdi
                return self.force_get();
  2082ff:	e8 1c 1e 00 00       	callq  20a120 <_ZN4spin4once13Once$LT$T$GT$9force_get17h7581534a2c006c5fE>
  208304:	48 89 44 24 10       	mov    %rax,0x10(%rsp)
  208309:	48 8b 44 24 10       	mov    0x10(%rsp),%rax
  20830e:	48 89 44 24 38       	mov    %rax,0x38(%rsp)
            }
  208313:	48 8d 7c 24 50       	lea    0x50(%rsp),%rdi
  208318:	e8 13 36 00 00       	callq  20b930 <_ZN4core3ptr39drop_in_place$LT$spin..once..Finish$GT$17h1e72272e055ed4abE>
    }
  20831d:	f6 84 24 af 00 00 00 	testb  $0x1,0xaf(%rsp)
  208324:	01 
  208325:	75 6c                	jne    208393 <_ZN4spin4once13Once$LT$T$GT$9call_once17h02e84ef863697735E+0x1f3>
  208327:	eb 5d                	jmp    208386 <_ZN4spin4once13Once$LT$T$GT$9call_once17h02e84ef863697735E+0x1e6>
                _ => unsafe { unreachable() },
  208329:	e8 12 f4 00 00       	callq  217740 <_ZN4core4hint21unreachable_unchecked17h3d568e9cb7ce9039E>
  20832e:	0f 0b                	ud2    
                INCOMPLETE => unreachable!(),
  208330:	48 8d 3d 3c 81 ff ff 	lea    -0x7ec4(%rip),%rdi        # 200473 <str.0+0x173>
  208337:	48 8d 15 ea f2 02 00 	lea    0x2f2ea(%rip),%rdx        # 237628 <memcmp+0x1078>
  20833e:	be 28 00 00 00       	mov    $0x28,%esi
  208343:	e8 18 b1 02 00       	callq  233460 <_ZN4core9panicking5panic17hb5e1b99c05020429E>
  208348:	0f 0b                	ud2    
                    cpu_relax();
  20834a:	e8 41 0a 02 00       	callq  228d90 <_ZN4core4sync6atomic14spin_loop_hint17h2201e74ebeb209f7E>
  20834f:	eb 44                	jmp    208395 <_ZN4spin4once13Once$LT$T$GT$9call_once17h02e84ef863697735E+0x1f5>
                PANICKED => panic!("Once has panicked"),
  208351:	48 8d 3d b4 80 ff ff 	lea    -0x7f4c(%rip),%rdi        # 20040c <str.0+0x10c>
  208358:	48 8d 15 b1 f2 02 00 	lea    0x2f2b1(%rip),%rdx        # 237610 <memcmp+0x1060>
  20835f:	be 11 00 00 00       	mov    $0x11,%esi
  208364:	e8 f7 b0 02 00       	callq  233460 <_ZN4core9panicking5panic17hb5e1b99c05020429E>
  208369:	0f 0b                	ud2    
  20836b:	48 8b 7c 24 30       	mov    0x30(%rsp),%rdi
                COMPLETE => return self.force_get(),
  208370:	e8 ab 1d 00 00       	callq  20a120 <_ZN4spin4once13Once$LT$T$GT$9force_get17h7581534a2c006c5fE>
  208375:	48 89 44 24 08       	mov    %rax,0x8(%rsp)
  20837a:	48 8b 44 24 08       	mov    0x8(%rsp),%rax
  20837f:	48 89 44 24 38       	mov    %rax,0x38(%rsp)
  208384:	eb 97                	jmp    20831d <_ZN4spin4once13Once$LT$T$GT$9call_once17h02e84ef863697735E+0x17d>
    }
  208386:	48 8b 44 24 38       	mov    0x38(%rsp),%rax
  20838b:	48 81 c4 c8 00 00 00 	add    $0xc8,%rsp
  208392:	c3                   	retq   
  208393:	eb f1                	jmp    208386 <_ZN4spin4once13Once$LT$T$GT$9call_once17h02e84ef863697735E+0x1e6>
  208395:	48 8b 7c 24 30       	mov    0x30(%rsp),%rdi
                    status = self.state.load(Ordering::SeqCst)
  20839a:	c6 84 24 ae 00 00 00 	movb   $0x4,0xae(%rsp)
  2083a1:	04 
  2083a2:	0f b6 b4 24 ae 00 00 	movzbl 0xae(%rsp),%esi
  2083a9:	00 
  2083aa:	e8 11 09 02 00       	callq  228cc0 <_ZN4core4sync6atomic11AtomicUsize4load17h676aa25949b33a83E>
  2083af:	48 89 04 24          	mov    %rax,(%rsp)
  2083b3:	48 8b 04 24          	mov    (%rsp),%rax
  2083b7:	48 89 44 24 40       	mov    %rax,0x40(%rsp)
  2083bc:	e9 1f fe ff ff       	jmpq   2081e0 <_ZN4spin4once13Once$LT$T$GT$9call_once17h02e84ef863697735E+0x40>
  2083c1:	cc                   	int3   
  2083c2:	cc                   	int3   
  2083c3:	cc                   	int3   
  2083c4:	cc                   	int3   
  2083c5:	cc                   	int3   
  2083c6:	cc                   	int3   
  2083c7:	cc                   	int3   
  2083c8:	cc                   	int3   
  2083c9:	cc                   	int3   
  2083ca:	cc                   	int3   
  2083cb:	cc                   	int3   
  2083cc:	cc                   	int3   
  2083cd:	cc                   	int3   
  2083ce:	cc                   	int3   
  2083cf:	cc                   	int3   

00000000002083d0 <_ZN4spin4once13Once$LT$T$GT$9call_once17h16d26598992f5b82E>:
    pub fn call_once<'a, F>(&'a self, builder: F) -> &'a T
  2083d0:	48 81 ec b8 00 00 00 	sub    $0xb8,%rsp
  2083d7:	48 89 7c 24 30       	mov    %rdi,0x30(%rsp)
  2083dc:	48 89 bc 24 a0 00 00 	mov    %rdi,0xa0(%rsp)
  2083e3:	00 
        loop {
  2083e4:	c6 84 24 9f 00 00 00 	movb   $0x0,0x9f(%rsp)
  2083eb:	00 
  2083ec:	c6 84 24 9f 00 00 00 	movb   $0x1,0x9f(%rsp)
  2083f3:	01 
        let mut status = self.state.load(Ordering::SeqCst);
  2083f4:	c6 44 24 4e 04       	movb   $0x4,0x4e(%rsp)
  2083f9:	0f b6 74 24 4e       	movzbl 0x4e(%rsp),%esi
  2083fe:	e8 bd 08 02 00       	callq  228cc0 <_ZN4core4sync6atomic11AtomicUsize4load17h676aa25949b33a83E>
  208403:	48 89 44 24 40       	mov    %rax,0x40(%rsp)
        if status == INCOMPLETE {
  208408:	48 83 7c 24 40 00    	cmpq   $0x0,0x40(%rsp)
  20840e:	74 29                	je     208439 <_ZN4spin4once13Once$LT$T$GT$9call_once17h16d26598992f5b82E+0x69>
            match status {
  208410:	48 8b 44 24 40       	mov    0x40(%rsp),%rax
  208415:	48 89 44 24 28       	mov    %rax,0x28(%rsp)
  20841a:	48 83 e8 03          	sub    $0x3,%rax
  20841e:	0f 87 39 01 00 00    	ja     20855d <_ZN4spin4once13Once$LT$T$GT$9call_once17h16d26598992f5b82E+0x18d>
  208424:	48 8b 44 24 28       	mov    0x28(%rsp),%rax
  208429:	48 8d 0d 0c 7f ff ff 	lea    -0x80f4(%rip),%rcx        # 20033c <str.0+0x3c>
  208430:	48 63 04 81          	movslq (%rcx,%rax,4),%rax
  208434:	48 01 c8             	add    %rcx,%rax
  208437:	ff e0                	jmpq   *%rax
  208439:	48 8b 7c 24 30       	mov    0x30(%rsp),%rdi
                                                 Ordering::SeqCst);
  20843e:	c6 44 24 4f 04       	movb   $0x4,0x4f(%rsp)
            status = self.state.compare_and_swap(INCOMPLETE,
  208443:	31 c0                	xor    %eax,%eax
  208445:	89 c6                	mov    %eax,%esi
  208447:	ba 01 00 00 00       	mov    $0x1,%edx
  20844c:	0f b6 4c 24 4f       	movzbl 0x4f(%rsp),%ecx
  208451:	e8 4a 07 02 00       	callq  228ba0 <_ZN4core4sync6atomic11AtomicUsize16compare_and_swap17hb896640bc65eb7abE>
  208456:	48 89 44 24 20       	mov    %rax,0x20(%rsp)
  20845b:	48 8b 44 24 20       	mov    0x20(%rsp),%rax
  208460:	48 89 44 24 40       	mov    %rax,0x40(%rsp)
            if status == INCOMPLETE { // We init
  208465:	48 83 7c 24 40 00    	cmpq   $0x0,0x40(%rsp)
  20846b:	75 a3                	jne    208410 <_ZN4spin4once13Once$LT$T$GT$9call_once17h16d26598992f5b82E+0x40>
  20846d:	48 8b 44 24 30       	mov    0x30(%rsp),%rax
                let mut finish = Finish { state: &self.state, panicked: true };
  208472:	48 89 44 24 50       	mov    %rax,0x50(%rsp)
  208477:	c6 44 24 58 01       	movb   $0x1,0x58(%rsp)
                unsafe { *self.data.get() = Some(builder()) };
  20847c:	c6 84 24 9f 00 00 00 	movb   $0x0,0x9f(%rsp)
  208483:	00 
  208484:	48 8d bc 24 80 00 00 	lea    0x80(%rsp),%rdi
  20848b:	00 
  20848c:	e8 9f 32 00 00       	callq  20b730 <_ZN4core3ops8function6FnOnce9call_once17hc0401856d345fdcbE>
  208491:	48 8b 44 24 30       	mov    0x30(%rsp),%rax
  208496:	48 8b 8c 24 80 00 00 	mov    0x80(%rsp),%rcx
  20849d:	00 
  20849e:	48 89 4c 24 68       	mov    %rcx,0x68(%rsp)
  2084a3:	48 8b 8c 24 88 00 00 	mov    0x88(%rsp),%rcx
  2084aa:	00 
  2084ab:	48 89 4c 24 70       	mov    %rcx,0x70(%rsp)
  2084b0:	48 8b 8c 24 90 00 00 	mov    0x90(%rsp),%rcx
  2084b7:	00 
  2084b8:	48 89 4c 24 78       	mov    %rcx,0x78(%rsp)
  2084bd:	48 c7 44 24 60 01 00 	movq   $0x1,0x60(%rsp)
  2084c4:	00 00 
  2084c6:	48 83 c0 08          	add    $0x8,%rax
  2084ca:	48 89 84 24 b0 00 00 	mov    %rax,0xb0(%rsp)
  2084d1:	00 
  2084d2:	48 89 44 24 18       	mov    %rax,0x18(%rsp)
  2084d7:	eb 00                	jmp    2084d9 <_ZN4spin4once13Once$LT$T$GT$9call_once17h16d26598992f5b82E+0x109>
  2084d9:	48 8b 7c 24 30       	mov    0x30(%rsp),%rdi
  2084de:	48 8b 44 24 18       	mov    0x18(%rsp),%rax
  2084e3:	48 8b 4c 24 60       	mov    0x60(%rsp),%rcx
  2084e8:	48 89 08             	mov    %rcx,(%rax)
  2084eb:	48 8b 4c 24 68       	mov    0x68(%rsp),%rcx
  2084f0:	48 89 48 08          	mov    %rcx,0x8(%rax)
  2084f4:	48 8b 4c 24 70       	mov    0x70(%rsp),%rcx
  2084f9:	48 89 48 10          	mov    %rcx,0x10(%rax)
  2084fd:	48 8b 4c 24 78       	mov    0x78(%rsp),%rcx
  208502:	48 89 48 18          	mov    %rcx,0x18(%rax)
                finish.panicked = false;
  208506:	c6 44 24 58 00       	movb   $0x0,0x58(%rsp)
                status = COMPLETE;
  20850b:	48 c7 44 24 40 02 00 	movq   $0x2,0x40(%rsp)
  208512:	00 00 
                self.state.store(status, Ordering::SeqCst);
  208514:	c6 84 24 9d 00 00 00 	movb   $0x4,0x9d(%rsp)
  20851b:	04 
  20851c:	be 02 00 00 00       	mov    $0x2,%esi
  208521:	0f b6 94 24 9d 00 00 	movzbl 0x9d(%rsp),%edx
  208528:	00 
  208529:	e8 d2 07 02 00       	callq  228d00 <_ZN4core4sync6atomic11AtomicUsize5store17h4c3fd8ca10ebd78dE>
  20852e:	48 8b 7c 24 30       	mov    0x30(%rsp),%rdi
                return self.force_get();
  208533:	e8 48 1c 00 00       	callq  20a180 <_ZN4spin4once13Once$LT$T$GT$9force_get17h76bdb69a28a231adE>
  208538:	48 89 44 24 10       	mov    %rax,0x10(%rsp)
  20853d:	48 8b 44 24 10       	mov    0x10(%rsp),%rax
  208542:	48 89 44 24 38       	mov    %rax,0x38(%rsp)
            }
  208547:	48 8d 7c 24 50       	lea    0x50(%rsp),%rdi
  20854c:	e8 df 33 00 00       	callq  20b930 <_ZN4core3ptr39drop_in_place$LT$spin..once..Finish$GT$17h1e72272e055ed4abE>
    }
  208551:	f6 84 24 9f 00 00 00 	testb  $0x1,0x9f(%rsp)
  208558:	01 
  208559:	75 6c                	jne    2085c7 <_ZN4spin4once13Once$LT$T$GT$9call_once17h16d26598992f5b82E+0x1f7>
  20855b:	eb 5d                	jmp    2085ba <_ZN4spin4once13Once$LT$T$GT$9call_once17h16d26598992f5b82E+0x1ea>
                _ => unsafe { unreachable() },
  20855d:	e8 de f1 00 00       	callq  217740 <_ZN4core4hint21unreachable_unchecked17h3d568e9cb7ce9039E>
  208562:	0f 0b                	ud2    
                INCOMPLETE => unreachable!(),
  208564:	48 8d 3d 08 7f ff ff 	lea    -0x80f8(%rip),%rdi        # 200473 <str.0+0x173>
  20856b:	48 8d 15 b6 f0 02 00 	lea    0x2f0b6(%rip),%rdx        # 237628 <memcmp+0x1078>
  208572:	be 28 00 00 00       	mov    $0x28,%esi
  208577:	e8 e4 ae 02 00       	callq  233460 <_ZN4core9panicking5panic17hb5e1b99c05020429E>
  20857c:	0f 0b                	ud2    
                    cpu_relax();
  20857e:	e8 0d 08 02 00       	callq  228d90 <_ZN4core4sync6atomic14spin_loop_hint17h2201e74ebeb209f7E>
  208583:	eb 44                	jmp    2085c9 <_ZN4spin4once13Once$LT$T$GT$9call_once17h16d26598992f5b82E+0x1f9>
                PANICKED => panic!("Once has panicked"),
  208585:	48 8d 3d 80 7e ff ff 	lea    -0x8180(%rip),%rdi        # 20040c <str.0+0x10c>
  20858c:	48 8d 15 7d f0 02 00 	lea    0x2f07d(%rip),%rdx        # 237610 <memcmp+0x1060>
  208593:	be 11 00 00 00       	mov    $0x11,%esi
  208598:	e8 c3 ae 02 00       	callq  233460 <_ZN4core9panicking5panic17hb5e1b99c05020429E>
  20859d:	0f 0b                	ud2    
  20859f:	48 8b 7c 24 30       	mov    0x30(%rsp),%rdi
                COMPLETE => return self.force_get(),
  2085a4:	e8 d7 1b 00 00       	callq  20a180 <_ZN4spin4once13Once$LT$T$GT$9force_get17h76bdb69a28a231adE>
  2085a9:	48 89 44 24 08       	mov    %rax,0x8(%rsp)
  2085ae:	48 8b 44 24 08       	mov    0x8(%rsp),%rax
  2085b3:	48 89 44 24 38       	mov    %rax,0x38(%rsp)
  2085b8:	eb 97                	jmp    208551 <_ZN4spin4once13Once$LT$T$GT$9call_once17h16d26598992f5b82E+0x181>
    }
  2085ba:	48 8b 44 24 38       	mov    0x38(%rsp),%rax
  2085bf:	48 81 c4 b8 00 00 00 	add    $0xb8,%rsp
  2085c6:	c3                   	retq   
  2085c7:	eb f1                	jmp    2085ba <_ZN4spin4once13Once$LT$T$GT$9call_once17h16d26598992f5b82E+0x1ea>
  2085c9:	48 8b 7c 24 30       	mov    0x30(%rsp),%rdi
                    status = self.state.load(Ordering::SeqCst)
  2085ce:	c6 84 24 9e 00 00 00 	movb   $0x4,0x9e(%rsp)
  2085d5:	04 
  2085d6:	0f b6 b4 24 9e 00 00 	movzbl 0x9e(%rsp),%esi
  2085dd:	00 
  2085de:	e8 dd 06 02 00       	callq  228cc0 <_ZN4core4sync6atomic11AtomicUsize4load17h676aa25949b33a83E>
  2085e3:	48 89 04 24          	mov    %rax,(%rsp)
  2085e7:	48 8b 04 24          	mov    (%rsp),%rax
  2085eb:	48 89 44 24 40       	mov    %rax,0x40(%rsp)
  2085f0:	e9 1b fe ff ff       	jmpq   208410 <_ZN4spin4once13Once$LT$T$GT$9call_once17h16d26598992f5b82E+0x40>
  2085f5:	cc                   	int3   
  2085f6:	cc                   	int3   
  2085f7:	cc                   	int3   
  2085f8:	cc                   	int3   
  2085f9:	cc                   	int3   
  2085fa:	cc                   	int3   
  2085fb:	cc                   	int3   
  2085fc:	cc                   	int3   
  2085fd:	cc                   	int3   
  2085fe:	cc                   	int3   
  2085ff:	cc                   	int3   

0000000000208600 <_ZN4spin4once13Once$LT$T$GT$9call_once17h20238029b864797dE>:
    pub fn call_once<'a, F>(&'a self, builder: F) -> &'a T
  208600:	48 81 ec c8 00 00 00 	sub    $0xc8,%rsp
  208607:	48 89 7c 24 30       	mov    %rdi,0x30(%rsp)
  20860c:	48 89 bc 24 b0 00 00 	mov    %rdi,0xb0(%rsp)
  208613:	00 
        loop {
  208614:	c6 84 24 af 00 00 00 	movb   $0x0,0xaf(%rsp)
  20861b:	00 
  20861c:	c6 84 24 af 00 00 00 	movb   $0x1,0xaf(%rsp)
  208623:	01 
        let mut status = self.state.load(Ordering::SeqCst);
  208624:	c6 44 24 4e 04       	movb   $0x4,0x4e(%rsp)
  208629:	0f b6 74 24 4e       	movzbl 0x4e(%rsp),%esi
  20862e:	e8 8d 06 02 00       	callq  228cc0 <_ZN4core4sync6atomic11AtomicUsize4load17h676aa25949b33a83E>
  208633:	48 89 44 24 40       	mov    %rax,0x40(%rsp)
        if status == INCOMPLETE {
  208638:	48 83 7c 24 40 00    	cmpq   $0x0,0x40(%rsp)
  20863e:	74 29                	je     208669 <_ZN4spin4once13Once$LT$T$GT$9call_once17h20238029b864797dE+0x69>
            match status {
  208640:	48 8b 44 24 40       	mov    0x40(%rsp),%rax
  208645:	48 89 44 24 28       	mov    %rax,0x28(%rsp)
  20864a:	48 83 e8 03          	sub    $0x3,%rax
  20864e:	0f 87 3d 01 00 00    	ja     208791 <_ZN4spin4once13Once$LT$T$GT$9call_once17h20238029b864797dE+0x191>
  208654:	48 8b 44 24 28       	mov    0x28(%rsp),%rax
  208659:	48 8d 0d ec 7c ff ff 	lea    -0x8314(%rip),%rcx        # 20034c <str.0+0x4c>
  208660:	48 63 04 81          	movslq (%rcx,%rax,4),%rax
  208664:	48 01 c8             	add    %rcx,%rax
  208667:	ff e0                	jmpq   *%rax
  208669:	48 8b 7c 24 30       	mov    0x30(%rsp),%rdi
                                                 Ordering::SeqCst);
  20866e:	c6 44 24 4f 04       	movb   $0x4,0x4f(%rsp)
            status = self.state.compare_and_swap(INCOMPLETE,
  208673:	31 c0                	xor    %eax,%eax
  208675:	89 c6                	mov    %eax,%esi
  208677:	ba 01 00 00 00       	mov    $0x1,%edx
  20867c:	0f b6 4c 24 4f       	movzbl 0x4f(%rsp),%ecx
  208681:	e8 1a 05 02 00       	callq  228ba0 <_ZN4core4sync6atomic11AtomicUsize16compare_and_swap17hb896640bc65eb7abE>
  208686:	48 89 44 24 20       	mov    %rax,0x20(%rsp)
  20868b:	48 8b 44 24 20       	mov    0x20(%rsp),%rax
  208690:	48 89 44 24 40       	mov    %rax,0x40(%rsp)
            if status == INCOMPLETE { // We init
  208695:	48 83 7c 24 40 00    	cmpq   $0x0,0x40(%rsp)
  20869b:	75 a3                	jne    208640 <_ZN4spin4once13Once$LT$T$GT$9call_once17h20238029b864797dE+0x40>
  20869d:	48 8b 44 24 30       	mov    0x30(%rsp),%rax
                let mut finish = Finish { state: &self.state, panicked: true };
  2086a2:	48 89 44 24 50       	mov    %rax,0x50(%rsp)
  2086a7:	c6 44 24 58 01       	movb   $0x1,0x58(%rsp)
                unsafe { *self.data.get() = Some(builder()) };
  2086ac:	c6 84 24 af 00 00 00 	movb   $0x0,0xaf(%rsp)
  2086b3:	00 
  2086b4:	48 8d bc 24 88 00 00 	lea    0x88(%rsp),%rdi
  2086bb:	00 
  2086bc:	e8 2f 2f 00 00       	callq  20b5f0 <_ZN4core3ops8function6FnOnce9call_once17h598ec53524868f86E>
  2086c1:	48 8b 44 24 30       	mov    0x30(%rsp),%rax
  2086c6:	48 8b 8c 24 88 00 00 	mov    0x88(%rsp),%rcx
  2086cd:	00 
  2086ce:	48 89 4c 24 68       	mov    %rcx,0x68(%rsp)
  2086d3:	48 8b 8c 24 90 00 00 	mov    0x90(%rsp),%rcx
  2086da:	00 
  2086db:	48 89 4c 24 70       	mov    %rcx,0x70(%rsp)
  2086e0:	48 8b 8c 24 98 00 00 	mov    0x98(%rsp),%rcx
  2086e7:	00 
  2086e8:	48 89 4c 24 78       	mov    %rcx,0x78(%rsp)
  2086ed:	48 8b 8c 24 a0 00 00 	mov    0xa0(%rsp),%rcx
  2086f4:	00 
  2086f5:	48 89 8c 24 80 00 00 	mov    %rcx,0x80(%rsp)
  2086fc:	00 
  2086fd:	48 c7 44 24 60 01 00 	movq   $0x1,0x60(%rsp)
  208704:	00 00 
  208706:	48 83 c0 08          	add    $0x8,%rax
  20870a:	48 89 84 24 c0 00 00 	mov    %rax,0xc0(%rsp)
  208711:	00 
  208712:	48 89 44 24 18       	mov    %rax,0x18(%rsp)
  208717:	48 8b 7c 24 18       	mov    0x18(%rsp),%rdi
  20871c:	e8 3f 31 00 00       	callq  20b860 <_ZN4core3ptr132drop_in_place$LT$core..option..Option$LT$spin..mutex..Mutex$LT$alloc..vec..Vec$LT$r3_kernel..drivers..pci..PCIDevice$GT$$GT$$GT$$GT$17h3bd8883fc2709277E>
  208721:	48 8b 7c 24 18       	mov    0x18(%rsp),%rdi
  208726:	48 8d 74 24 60       	lea    0x60(%rsp),%rsi
  20872b:	ba 28 00 00 00       	mov    $0x28,%edx
  208730:	e8 2b de 02 00       	callq  236560 <memcpy>
  208735:	48 8b 7c 24 30       	mov    0x30(%rsp),%rdi
                finish.panicked = false;
  20873a:	c6 44 24 58 00       	movb   $0x0,0x58(%rsp)
                status = COMPLETE;
  20873f:	48 c7 44 24 40 02 00 	movq   $0x2,0x40(%rsp)
  208746:	00 00 
                self.state.store(status, Ordering::SeqCst);
  208748:	c6 84 24 ad 00 00 00 	movb   $0x4,0xad(%rsp)
  20874f:	04 
  208750:	be 02 00 00 00       	mov    $0x2,%esi
  208755:	0f b6 94 24 ad 00 00 	movzbl 0xad(%rsp),%edx
  20875c:	00 
  20875d:	e8 9e 05 02 00       	callq  228d00 <_ZN4core4sync6atomic11AtomicUsize5store17h4c3fd8ca10ebd78dE>
  208762:	48 8b 7c 24 30       	mov    0x30(%rsp),%rdi
                return self.force_get();
  208767:	e8 54 1c 00 00       	callq  20a3c0 <_ZN4spin4once13Once$LT$T$GT$9force_get17hf798daf329f2d66aE>
  20876c:	48 89 44 24 10       	mov    %rax,0x10(%rsp)
  208771:	48 8b 44 24 10       	mov    0x10(%rsp),%rax
  208776:	48 89 44 24 38       	mov    %rax,0x38(%rsp)
            }
  20877b:	48 8d 7c 24 50       	lea    0x50(%rsp),%rdi
  208780:	e8 ab 31 00 00       	callq  20b930 <_ZN4core3ptr39drop_in_place$LT$spin..once..Finish$GT$17h1e72272e055ed4abE>
    }
  208785:	f6 84 24 af 00 00 00 	testb  $0x1,0xaf(%rsp)
  20878c:	01 
  20878d:	75 6c                	jne    2087fb <_ZN4spin4once13Once$LT$T$GT$9call_once17h20238029b864797dE+0x1fb>
  20878f:	eb 5d                	jmp    2087ee <_ZN4spin4once13Once$LT$T$GT$9call_once17h20238029b864797dE+0x1ee>
                _ => unsafe { unreachable() },
  208791:	e8 aa ef 00 00       	callq  217740 <_ZN4core4hint21unreachable_unchecked17h3d568e9cb7ce9039E>
  208796:	0f 0b                	ud2    
                INCOMPLETE => unreachable!(),
  208798:	48 8d 3d d4 7c ff ff 	lea    -0x832c(%rip),%rdi        # 200473 <str.0+0x173>
  20879f:	48 8d 15 82 ee 02 00 	lea    0x2ee82(%rip),%rdx        # 237628 <memcmp+0x1078>
  2087a6:	be 28 00 00 00       	mov    $0x28,%esi
  2087ab:	e8 b0 ac 02 00       	callq  233460 <_ZN4core9panicking5panic17hb5e1b99c05020429E>
  2087b0:	0f 0b                	ud2    
                    cpu_relax();
  2087b2:	e8 d9 05 02 00       	callq  228d90 <_ZN4core4sync6atomic14spin_loop_hint17h2201e74ebeb209f7E>
  2087b7:	eb 44                	jmp    2087fd <_ZN4spin4once13Once$LT$T$GT$9call_once17h20238029b864797dE+0x1fd>
                PANICKED => panic!("Once has panicked"),
  2087b9:	48 8d 3d 4c 7c ff ff 	lea    -0x83b4(%rip),%rdi        # 20040c <str.0+0x10c>
  2087c0:	48 8d 15 49 ee 02 00 	lea    0x2ee49(%rip),%rdx        # 237610 <memcmp+0x1060>
  2087c7:	be 11 00 00 00       	mov    $0x11,%esi
  2087cc:	e8 8f ac 02 00       	callq  233460 <_ZN4core9panicking5panic17hb5e1b99c05020429E>
  2087d1:	0f 0b                	ud2    
  2087d3:	48 8b 7c 24 30       	mov    0x30(%rsp),%rdi
                COMPLETE => return self.force_get(),
  2087d8:	e8 e3 1b 00 00       	callq  20a3c0 <_ZN4spin4once13Once$LT$T$GT$9force_get17hf798daf329f2d66aE>
  2087dd:	48 89 44 24 08       	mov    %rax,0x8(%rsp)
  2087e2:	48 8b 44 24 08       	mov    0x8(%rsp),%rax
  2087e7:	48 89 44 24 38       	mov    %rax,0x38(%rsp)
  2087ec:	eb 97                	jmp    208785 <_ZN4spin4once13Once$LT$T$GT$9call_once17h20238029b864797dE+0x185>
    }
  2087ee:	48 8b 44 24 38       	mov    0x38(%rsp),%rax
  2087f3:	48 81 c4 c8 00 00 00 	add    $0xc8,%rsp
  2087fa:	c3                   	retq   
  2087fb:	eb f1                	jmp    2087ee <_ZN4spin4once13Once$LT$T$GT$9call_once17h20238029b864797dE+0x1ee>
  2087fd:	48 8b 7c 24 30       	mov    0x30(%rsp),%rdi
                    status = self.state.load(Ordering::SeqCst)
  208802:	c6 84 24 ae 00 00 00 	movb   $0x4,0xae(%rsp)
  208809:	04 
  20880a:	0f b6 b4 24 ae 00 00 	movzbl 0xae(%rsp),%esi
  208811:	00 
  208812:	e8 a9 04 02 00       	callq  228cc0 <_ZN4core4sync6atomic11AtomicUsize4load17h676aa25949b33a83E>
  208817:	48 89 04 24          	mov    %rax,(%rsp)
  20881b:	48 8b 04 24          	mov    (%rsp),%rax
  20881f:	48 89 44 24 40       	mov    %rax,0x40(%rsp)
  208824:	e9 17 fe ff ff       	jmpq   208640 <_ZN4spin4once13Once$LT$T$GT$9call_once17h20238029b864797dE+0x40>
  208829:	cc                   	int3   
  20882a:	cc                   	int3   
  20882b:	cc                   	int3   
  20882c:	cc                   	int3   
  20882d:	cc                   	int3   
  20882e:	cc                   	int3   
  20882f:	cc                   	int3   

0000000000208830 <_ZN4spin4once13Once$LT$T$GT$9call_once17h4008a3be402ff095E>:
    pub fn call_once<'a, F>(&'a self, builder: F) -> &'a T
  208830:	48 81 ec d8 00 00 00 	sub    $0xd8,%rsp
  208837:	48 89 7c 24 30       	mov    %rdi,0x30(%rsp)
  20883c:	48 89 bc 24 c0 00 00 	mov    %rdi,0xc0(%rsp)
  208843:	00 
        loop {
  208844:	c6 84 24 bf 00 00 00 	movb   $0x0,0xbf(%rsp)
  20884b:	00 
  20884c:	c6 84 24 bf 00 00 00 	movb   $0x1,0xbf(%rsp)
  208853:	01 
        let mut status = self.state.load(Ordering::SeqCst);
  208854:	c6 44 24 4e 04       	movb   $0x4,0x4e(%rsp)
  208859:	0f b6 74 24 4e       	movzbl 0x4e(%rsp),%esi
  20885e:	e8 5d 04 02 00       	callq  228cc0 <_ZN4core4sync6atomic11AtomicUsize4load17h676aa25949b33a83E>
  208863:	48 89 44 24 40       	mov    %rax,0x40(%rsp)
        if status == INCOMPLETE {
  208868:	48 83 7c 24 40 00    	cmpq   $0x0,0x40(%rsp)
  20886e:	74 29                	je     208899 <_ZN4spin4once13Once$LT$T$GT$9call_once17h4008a3be402ff095E+0x69>
            match status {
  208870:	48 8b 44 24 40       	mov    0x40(%rsp),%rax
  208875:	48 89 44 24 28       	mov    %rax,0x28(%rsp)
  20887a:	48 83 e8 03          	sub    $0x3,%rax
  20887e:	0f 87 21 01 00 00    	ja     2089a5 <_ZN4spin4once13Once$LT$T$GT$9call_once17h4008a3be402ff095E+0x175>
  208884:	48 8b 44 24 28       	mov    0x28(%rsp),%rax
  208889:	48 8d 0d cc 7a ff ff 	lea    -0x8534(%rip),%rcx        # 20035c <str.0+0x5c>
  208890:	48 63 04 81          	movslq (%rcx,%rax,4),%rax
  208894:	48 01 c8             	add    %rcx,%rax
  208897:	ff e0                	jmpq   *%rax
  208899:	48 8b 7c 24 30       	mov    0x30(%rsp),%rdi
                                                 Ordering::SeqCst);
  20889e:	c6 44 24 4f 04       	movb   $0x4,0x4f(%rsp)
            status = self.state.compare_and_swap(INCOMPLETE,
  2088a3:	31 c0                	xor    %eax,%eax
  2088a5:	89 c6                	mov    %eax,%esi
  2088a7:	ba 01 00 00 00       	mov    $0x1,%edx
  2088ac:	0f b6 4c 24 4f       	movzbl 0x4f(%rsp),%ecx
  2088b1:	e8 ea 02 02 00       	callq  228ba0 <_ZN4core4sync6atomic11AtomicUsize16compare_and_swap17hb896640bc65eb7abE>
  2088b6:	48 89 44 24 20       	mov    %rax,0x20(%rsp)
  2088bb:	48 8b 44 24 20       	mov    0x20(%rsp),%rax
  2088c0:	48 89 44 24 40       	mov    %rax,0x40(%rsp)
            if status == INCOMPLETE { // We init
  2088c5:	48 83 7c 24 40 00    	cmpq   $0x0,0x40(%rsp)
  2088cb:	75 a3                	jne    208870 <_ZN4spin4once13Once$LT$T$GT$9call_once17h4008a3be402ff095E+0x40>
  2088cd:	48 8b 44 24 30       	mov    0x30(%rsp),%rax
                let mut finish = Finish { state: &self.state, panicked: true };
  2088d2:	48 89 44 24 50       	mov    %rax,0x50(%rsp)
  2088d7:	c6 44 24 58 01       	movb   $0x1,0x58(%rsp)
                unsafe { *self.data.get() = Some(builder()) };
  2088dc:	c6 84 24 bf 00 00 00 	movb   $0x0,0xbf(%rsp)
  2088e3:	00 
  2088e4:	48 8d bc 24 90 00 00 	lea    0x90(%rsp),%rdi
  2088eb:	00 
  2088ec:	e8 df 2b 00 00       	callq  20b4d0 <_ZN4core3ops8function6FnOnce9call_once17h292df0ed92871557E>
  2088f1:	48 8d 7c 24 60       	lea    0x60(%rsp),%rdi
  2088f6:	48 83 c7 08          	add    $0x8,%rdi
  2088fa:	48 8d b4 24 90 00 00 	lea    0x90(%rsp),%rsi
  208901:	00 
  208902:	ba 28 00 00 00       	mov    $0x28,%edx
  208907:	e8 54 dc 02 00       	callq  236560 <memcpy>
  20890c:	48 8b 44 24 30       	mov    0x30(%rsp),%rax
  208911:	48 c7 44 24 60 01 00 	movq   $0x1,0x60(%rsp)
  208918:	00 00 
  20891a:	48 83 c0 08          	add    $0x8,%rax
  20891e:	48 89 84 24 d0 00 00 	mov    %rax,0xd0(%rsp)
  208925:	00 
  208926:	48 89 44 24 18       	mov    %rax,0x18(%rsp)
  20892b:	48 8b 7c 24 18       	mov    0x18(%rsp),%rdi
  208930:	e8 db 2e 00 00       	callq  20b810 <_ZN4core3ptr108drop_in_place$LT$core..option..Option$LT$spin..mutex..Mutex$LT$r3_kernel..acpi..madt..Processors$GT$$GT$$GT$17h4ebdd0951a05205bE>
  208935:	48 8b 7c 24 18       	mov    0x18(%rsp),%rdi
  20893a:	48 8d 74 24 60       	lea    0x60(%rsp),%rsi
  20893f:	ba 30 00 00 00       	mov    $0x30,%edx
  208944:	e8 17 dc 02 00       	callq  236560 <memcpy>
  208949:	48 8b 7c 24 30       	mov    0x30(%rsp),%rdi
                finish.panicked = false;
  20894e:	c6 44 24 58 00       	movb   $0x0,0x58(%rsp)
                status = COMPLETE;
  208953:	48 c7 44 24 40 02 00 	movq   $0x2,0x40(%rsp)
  20895a:	00 00 
                self.state.store(status, Ordering::SeqCst);
  20895c:	c6 84 24 bd 00 00 00 	movb   $0x4,0xbd(%rsp)
  208963:	04 
  208964:	be 02 00 00 00       	mov    $0x2,%esi
  208969:	0f b6 94 24 bd 00 00 	movzbl 0xbd(%rsp),%edx
  208970:	00 
  208971:	e8 8a 03 02 00       	callq  228d00 <_ZN4core4sync6atomic11AtomicUsize5store17h4c3fd8ca10ebd78dE>
  208976:	48 8b 7c 24 30       	mov    0x30(%rsp),%rdi
                return self.force_get();
  20897b:	e8 d0 15 00 00       	callq  209f50 <_ZN4spin4once13Once$LT$T$GT$9force_get17h34e6487dc76385d6E>
  208980:	48 89 44 24 10       	mov    %rax,0x10(%rsp)
  208985:	48 8b 44 24 10       	mov    0x10(%rsp),%rax
  20898a:	48 89 44 24 38       	mov    %rax,0x38(%rsp)
            }
  20898f:	48 8d 7c 24 50       	lea    0x50(%rsp),%rdi
  208994:	e8 97 2f 00 00       	callq  20b930 <_ZN4core3ptr39drop_in_place$LT$spin..once..Finish$GT$17h1e72272e055ed4abE>
    }
  208999:	f6 84 24 bf 00 00 00 	testb  $0x1,0xbf(%rsp)
  2089a0:	01 
  2089a1:	75 6c                	jne    208a0f <_ZN4spin4once13Once$LT$T$GT$9call_once17h4008a3be402ff095E+0x1df>
  2089a3:	eb 5d                	jmp    208a02 <_ZN4spin4once13Once$LT$T$GT$9call_once17h4008a3be402ff095E+0x1d2>
                _ => unsafe { unreachable() },
  2089a5:	e8 96 ed 00 00       	callq  217740 <_ZN4core4hint21unreachable_unchecked17h3d568e9cb7ce9039E>
  2089aa:	0f 0b                	ud2    
                INCOMPLETE => unreachable!(),
  2089ac:	48 8d 3d c0 7a ff ff 	lea    -0x8540(%rip),%rdi        # 200473 <str.0+0x173>
  2089b3:	48 8d 15 6e ec 02 00 	lea    0x2ec6e(%rip),%rdx        # 237628 <memcmp+0x1078>
  2089ba:	be 28 00 00 00       	mov    $0x28,%esi
  2089bf:	e8 9c aa 02 00       	callq  233460 <_ZN4core9panicking5panic17hb5e1b99c05020429E>
  2089c4:	0f 0b                	ud2    
                    cpu_relax();
  2089c6:	e8 c5 03 02 00       	callq  228d90 <_ZN4core4sync6atomic14spin_loop_hint17h2201e74ebeb209f7E>
  2089cb:	eb 44                	jmp    208a11 <_ZN4spin4once13Once$LT$T$GT$9call_once17h4008a3be402ff095E+0x1e1>
                PANICKED => panic!("Once has panicked"),
  2089cd:	48 8d 3d 38 7a ff ff 	lea    -0x85c8(%rip),%rdi        # 20040c <str.0+0x10c>
  2089d4:	48 8d 15 35 ec 02 00 	lea    0x2ec35(%rip),%rdx        # 237610 <memcmp+0x1060>
  2089db:	be 11 00 00 00       	mov    $0x11,%esi
  2089e0:	e8 7b aa 02 00       	callq  233460 <_ZN4core9panicking5panic17hb5e1b99c05020429E>
  2089e5:	0f 0b                	ud2    
  2089e7:	48 8b 7c 24 30       	mov    0x30(%rsp),%rdi
                COMPLETE => return self.force_get(),
  2089ec:	e8 5f 15 00 00       	callq  209f50 <_ZN4spin4once13Once$LT$T$GT$9force_get17h34e6487dc76385d6E>
  2089f1:	48 89 44 24 08       	mov    %rax,0x8(%rsp)
  2089f6:	48 8b 44 24 08       	mov    0x8(%rsp),%rax
  2089fb:	48 89 44 24 38       	mov    %rax,0x38(%rsp)
  208a00:	eb 97                	jmp    208999 <_ZN4spin4once13Once$LT$T$GT$9call_once17h4008a3be402ff095E+0x169>
    }
  208a02:	48 8b 44 24 38       	mov    0x38(%rsp),%rax
  208a07:	48 81 c4 d8 00 00 00 	add    $0xd8,%rsp
  208a0e:	c3                   	retq   
  208a0f:	eb f1                	jmp    208a02 <_ZN4spin4once13Once$LT$T$GT$9call_once17h4008a3be402ff095E+0x1d2>
  208a11:	48 8b 7c 24 30       	mov    0x30(%rsp),%rdi
                    status = self.state.load(Ordering::SeqCst)
  208a16:	c6 84 24 be 00 00 00 	movb   $0x4,0xbe(%rsp)
  208a1d:	04 
  208a1e:	0f b6 b4 24 be 00 00 	movzbl 0xbe(%rsp),%esi
  208a25:	00 
  208a26:	e8 95 02 02 00       	callq  228cc0 <_ZN4core4sync6atomic11AtomicUsize4load17h676aa25949b33a83E>
  208a2b:	48 89 04 24          	mov    %rax,(%rsp)
  208a2f:	48 8b 04 24          	mov    (%rsp),%rax
  208a33:	48 89 44 24 40       	mov    %rax,0x40(%rsp)
  208a38:	e9 33 fe ff ff       	jmpq   208870 <_ZN4spin4once13Once$LT$T$GT$9call_once17h4008a3be402ff095E+0x40>
  208a3d:	cc                   	int3   
  208a3e:	cc                   	int3   
  208a3f:	cc                   	int3   

0000000000208a40 <_ZN4spin4once13Once$LT$T$GT$9call_once17h438fc23cce978391E>:
    pub fn call_once<'a, F>(&'a self, builder: F) -> &'a T
  208a40:	48 81 ec b8 20 00 00 	sub    $0x20b8,%rsp
  208a47:	48 89 7c 24 30       	mov    %rdi,0x30(%rsp)
  208a4c:	48 89 bc 24 a0 20 00 	mov    %rdi,0x20a0(%rsp)
  208a53:	00 
        loop {
  208a54:	c6 84 24 9f 20 00 00 	movb   $0x0,0x209f(%rsp)
  208a5b:	00 
  208a5c:	c6 84 24 9f 20 00 00 	movb   $0x1,0x209f(%rsp)
  208a63:	01 
        let mut status = self.state.load(Ordering::SeqCst);
  208a64:	48 81 c7 20 10 00 00 	add    $0x1020,%rdi
  208a6b:	c6 44 24 4e 04       	movb   $0x4,0x4e(%rsp)
  208a70:	0f b6 74 24 4e       	movzbl 0x4e(%rsp),%esi
  208a75:	e8 46 02 02 00       	callq  228cc0 <_ZN4core4sync6atomic11AtomicUsize4load17h676aa25949b33a83E>
  208a7a:	48 89 44 24 40       	mov    %rax,0x40(%rsp)
        if status == INCOMPLETE {
  208a7f:	48 83 7c 24 40 00    	cmpq   $0x0,0x40(%rsp)
  208a85:	74 29                	je     208ab0 <_ZN4spin4once13Once$LT$T$GT$9call_once17h438fc23cce978391E+0x70>
            match status {
  208a87:	48 8b 44 24 40       	mov    0x40(%rsp),%rax
  208a8c:	48 89 44 24 28       	mov    %rax,0x28(%rsp)
  208a91:	48 83 e8 03          	sub    $0x3,%rax
  208a95:	0f 87 25 01 00 00    	ja     208bc0 <_ZN4spin4once13Once$LT$T$GT$9call_once17h438fc23cce978391E+0x180>
  208a9b:	48 8b 44 24 28       	mov    0x28(%rsp),%rax
  208aa0:	48 8d 0d c5 78 ff ff 	lea    -0x873b(%rip),%rcx        # 20036c <str.0+0x6c>
  208aa7:	48 63 04 81          	movslq (%rcx,%rax,4),%rax
  208aab:	48 01 c8             	add    %rcx,%rax
  208aae:	ff e0                	jmpq   *%rax
  208ab0:	48 8b 7c 24 30       	mov    0x30(%rsp),%rdi
            status = self.state.compare_and_swap(INCOMPLETE,
  208ab5:	48 81 c7 20 10 00 00 	add    $0x1020,%rdi
                                                 Ordering::SeqCst);
  208abc:	c6 44 24 4f 04       	movb   $0x4,0x4f(%rsp)
            status = self.state.compare_and_swap(INCOMPLETE,
  208ac1:	31 c0                	xor    %eax,%eax
  208ac3:	89 c6                	mov    %eax,%esi
  208ac5:	ba 01 00 00 00       	mov    $0x1,%edx
  208aca:	0f b6 4c 24 4f       	movzbl 0x4f(%rsp),%ecx
  208acf:	e8 cc 00 02 00       	callq  228ba0 <_ZN4core4sync6atomic11AtomicUsize16compare_and_swap17hb896640bc65eb7abE>
  208ad4:	48 89 44 24 20       	mov    %rax,0x20(%rsp)
  208ad9:	48 8b 44 24 20       	mov    0x20(%rsp),%rax
  208ade:	48 89 44 24 40       	mov    %rax,0x40(%rsp)
            if status == INCOMPLETE { // We init
  208ae3:	48 83 7c 24 40 00    	cmpq   $0x0,0x40(%rsp)
  208ae9:	75 9c                	jne    208a87 <_ZN4spin4once13Once$LT$T$GT$9call_once17h438fc23cce978391E+0x47>
  208aeb:	48 8b 44 24 30       	mov    0x30(%rsp),%rax
                let mut finish = Finish { state: &self.state, panicked: true };
  208af0:	48 05 20 10 00 00    	add    $0x1020,%rax
  208af6:	48 89 44 24 50       	mov    %rax,0x50(%rsp)
  208afb:	c6 44 24 58 01       	movb   $0x1,0x58(%rsp)
                unsafe { *self.data.get() = Some(builder()) };
  208b00:	c6 84 24 9f 20 00 00 	movb   $0x0,0x209f(%rsp)
  208b07:	00 
  208b08:	48 8d bc 24 80 10 00 	lea    0x1080(%rsp),%rdi
  208b0f:	00 
  208b10:	e8 3b 2a 00 00       	callq  20b550 <_ZN4core3ops8function6FnOnce9call_once17h2ba66678938adde7E>
  208b15:	48 8d 7c 24 60       	lea    0x60(%rsp),%rdi
  208b1a:	48 83 c7 10          	add    $0x10,%rdi
  208b1e:	48 8d b4 24 80 10 00 	lea    0x1080(%rsp),%rsi
  208b25:	00 
  208b26:	ba 10 10 00 00       	mov    $0x1010,%edx
  208b2b:	e8 30 da 02 00       	callq  236560 <memcpy>
  208b30:	48 8b 44 24 30       	mov    0x30(%rsp),%rax
  208b35:	c6 44 24 60 01       	movb   $0x1,0x60(%rsp)
  208b3a:	48 89 84 24 b0 20 00 	mov    %rax,0x20b0(%rsp)
  208b41:	00 
  208b42:	48 89 44 24 18       	mov    %rax,0x18(%rsp)
  208b47:	eb 00                	jmp    208b49 <_ZN4spin4once13Once$LT$T$GT$9call_once17h438fc23cce978391E+0x109>
  208b49:	48 8b 7c 24 18       	mov    0x18(%rsp),%rdi
  208b4e:	48 8d 74 24 60       	lea    0x60(%rsp),%rsi
  208b53:	ba 20 10 00 00       	mov    $0x1020,%edx
  208b58:	e8 03 da 02 00       	callq  236560 <memcpy>
  208b5d:	48 8b 7c 24 30       	mov    0x30(%rsp),%rdi
                finish.panicked = false;
  208b62:	c6 44 24 58 00       	movb   $0x0,0x58(%rsp)
                status = COMPLETE;
  208b67:	48 c7 44 24 40 02 00 	movq   $0x2,0x40(%rsp)
  208b6e:	00 00 
                self.state.store(status, Ordering::SeqCst);
  208b70:	48 81 c7 20 10 00 00 	add    $0x1020,%rdi
  208b77:	c6 84 24 9d 20 00 00 	movb   $0x4,0x209d(%rsp)
  208b7e:	04 
  208b7f:	be 02 00 00 00       	mov    $0x2,%esi
  208b84:	0f b6 94 24 9d 20 00 	movzbl 0x209d(%rsp),%edx
  208b8b:	00 
  208b8c:	e8 6f 01 02 00       	callq  228d00 <_ZN4core4sync6atomic11AtomicUsize5store17h4c3fd8ca10ebd78dE>
  208b91:	48 8b 7c 24 30       	mov    0x30(%rsp),%rdi
                return self.force_get();
  208b96:	e8 d5 14 00 00       	callq  20a070 <_ZN4spin4once13Once$LT$T$GT$9force_get17h71f12504522089a2E>
  208b9b:	48 89 44 24 10       	mov    %rax,0x10(%rsp)
  208ba0:	48 8b 44 24 10       	mov    0x10(%rsp),%rax
  208ba5:	48 89 44 24 38       	mov    %rax,0x38(%rsp)
            }
  208baa:	48 8d 7c 24 50       	lea    0x50(%rsp),%rdi
  208baf:	e8 7c 2d 00 00       	callq  20b930 <_ZN4core3ptr39drop_in_place$LT$spin..once..Finish$GT$17h1e72272e055ed4abE>
    }
  208bb4:	f6 84 24 9f 20 00 00 	testb  $0x1,0x209f(%rsp)
  208bbb:	01 
  208bbc:	75 6c                	jne    208c2a <_ZN4spin4once13Once$LT$T$GT$9call_once17h438fc23cce978391E+0x1ea>
  208bbe:	eb 5d                	jmp    208c1d <_ZN4spin4once13Once$LT$T$GT$9call_once17h438fc23cce978391E+0x1dd>
                _ => unsafe { unreachable() },
  208bc0:	e8 7b eb 00 00       	callq  217740 <_ZN4core4hint21unreachable_unchecked17h3d568e9cb7ce9039E>
  208bc5:	0f 0b                	ud2    
                INCOMPLETE => unreachable!(),
  208bc7:	48 8d 3d a5 78 ff ff 	lea    -0x875b(%rip),%rdi        # 200473 <str.0+0x173>
  208bce:	48 8d 15 53 ea 02 00 	lea    0x2ea53(%rip),%rdx        # 237628 <memcmp+0x1078>
  208bd5:	be 28 00 00 00       	mov    $0x28,%esi
  208bda:	e8 81 a8 02 00       	callq  233460 <_ZN4core9panicking5panic17hb5e1b99c05020429E>
  208bdf:	0f 0b                	ud2    
                    cpu_relax();
  208be1:	e8 aa 01 02 00       	callq  228d90 <_ZN4core4sync6atomic14spin_loop_hint17h2201e74ebeb209f7E>
  208be6:	eb 44                	jmp    208c2c <_ZN4spin4once13Once$LT$T$GT$9call_once17h438fc23cce978391E+0x1ec>
                PANICKED => panic!("Once has panicked"),
  208be8:	48 8d 3d 1d 78 ff ff 	lea    -0x87e3(%rip),%rdi        # 20040c <str.0+0x10c>
  208bef:	48 8d 15 1a ea 02 00 	lea    0x2ea1a(%rip),%rdx        # 237610 <memcmp+0x1060>
  208bf6:	be 11 00 00 00       	mov    $0x11,%esi
  208bfb:	e8 60 a8 02 00       	callq  233460 <_ZN4core9panicking5panic17hb5e1b99c05020429E>
  208c00:	0f 0b                	ud2    
  208c02:	48 8b 7c 24 30       	mov    0x30(%rsp),%rdi
                COMPLETE => return self.force_get(),
  208c07:	e8 64 14 00 00       	callq  20a070 <_ZN4spin4once13Once$LT$T$GT$9force_get17h71f12504522089a2E>
  208c0c:	48 89 44 24 08       	mov    %rax,0x8(%rsp)
  208c11:	48 8b 44 24 08       	mov    0x8(%rsp),%rax
  208c16:	48 89 44 24 38       	mov    %rax,0x38(%rsp)
  208c1b:	eb 97                	jmp    208bb4 <_ZN4spin4once13Once$LT$T$GT$9call_once17h438fc23cce978391E+0x174>
    }
  208c1d:	48 8b 44 24 38       	mov    0x38(%rsp),%rax
  208c22:	48 81 c4 b8 20 00 00 	add    $0x20b8,%rsp
  208c29:	c3                   	retq   
  208c2a:	eb f1                	jmp    208c1d <_ZN4spin4once13Once$LT$T$GT$9call_once17h438fc23cce978391E+0x1dd>
  208c2c:	48 8b 7c 24 30       	mov    0x30(%rsp),%rdi
                    status = self.state.load(Ordering::SeqCst)
  208c31:	48 81 c7 20 10 00 00 	add    $0x1020,%rdi
  208c38:	c6 84 24 9e 20 00 00 	movb   $0x4,0x209e(%rsp)
  208c3f:	04 
  208c40:	0f b6 b4 24 9e 20 00 	movzbl 0x209e(%rsp),%esi
  208c47:	00 
  208c48:	e8 73 00 02 00       	callq  228cc0 <_ZN4core4sync6atomic11AtomicUsize4load17h676aa25949b33a83E>
  208c4d:	48 89 04 24          	mov    %rax,(%rsp)
  208c51:	48 8b 04 24          	mov    (%rsp),%rax
  208c55:	48 89 44 24 40       	mov    %rax,0x40(%rsp)
  208c5a:	e9 28 fe ff ff       	jmpq   208a87 <_ZN4spin4once13Once$LT$T$GT$9call_once17h438fc23cce978391E+0x47>
  208c5f:	cc                   	int3   

0000000000208c60 <_ZN4spin4once13Once$LT$T$GT$9call_once17h6f32702f4bd4a450E>:
    pub fn call_once<'a, F>(&'a self, builder: F) -> &'a T
  208c60:	48 81 ec 58 01 00 00 	sub    $0x158,%rsp
  208c67:	48 89 7c 24 30       	mov    %rdi,0x30(%rsp)
  208c6c:	48 89 bc 24 40 01 00 	mov    %rdi,0x140(%rsp)
  208c73:	00 
        loop {
  208c74:	c6 84 24 3f 01 00 00 	movb   $0x0,0x13f(%rsp)
  208c7b:	00 
  208c7c:	c6 84 24 3f 01 00 00 	movb   $0x1,0x13f(%rsp)
  208c83:	01 
        let mut status = self.state.load(Ordering::SeqCst);
  208c84:	c6 44 24 4e 04       	movb   $0x4,0x4e(%rsp)
  208c89:	0f b6 74 24 4e       	movzbl 0x4e(%rsp),%esi
  208c8e:	e8 2d 00 02 00       	callq  228cc0 <_ZN4core4sync6atomic11AtomicUsize4load17h676aa25949b33a83E>
  208c93:	48 89 44 24 40       	mov    %rax,0x40(%rsp)
        if status == INCOMPLETE {
  208c98:	48 83 7c 24 40 00    	cmpq   $0x0,0x40(%rsp)
  208c9e:	74 29                	je     208cc9 <_ZN4spin4once13Once$LT$T$GT$9call_once17h6f32702f4bd4a450E+0x69>
            match status {
  208ca0:	48 8b 44 24 40       	mov    0x40(%rsp),%rax
  208ca5:	48 89 44 24 28       	mov    %rax,0x28(%rsp)
  208caa:	48 83 e8 03          	sub    $0x3,%rax
  208cae:	0f 87 15 01 00 00    	ja     208dc9 <_ZN4spin4once13Once$LT$T$GT$9call_once17h6f32702f4bd4a450E+0x169>
  208cb4:	48 8b 44 24 28       	mov    0x28(%rsp),%rax
  208cb9:	48 8d 0d bc 76 ff ff 	lea    -0x8944(%rip),%rcx        # 20037c <str.0+0x7c>
  208cc0:	48 63 04 81          	movslq (%rcx,%rax,4),%rax
  208cc4:	48 01 c8             	add    %rcx,%rax
  208cc7:	ff e0                	jmpq   *%rax
  208cc9:	48 8b 7c 24 30       	mov    0x30(%rsp),%rdi
                                                 Ordering::SeqCst);
  208cce:	c6 44 24 4f 04       	movb   $0x4,0x4f(%rsp)
            status = self.state.compare_and_swap(INCOMPLETE,
  208cd3:	31 c0                	xor    %eax,%eax
  208cd5:	89 c6                	mov    %eax,%esi
  208cd7:	ba 01 00 00 00       	mov    $0x1,%edx
  208cdc:	0f b6 4c 24 4f       	movzbl 0x4f(%rsp),%ecx
  208ce1:	e8 ba fe 01 00       	callq  228ba0 <_ZN4core4sync6atomic11AtomicUsize16compare_and_swap17hb896640bc65eb7abE>
  208ce6:	48 89 44 24 20       	mov    %rax,0x20(%rsp)
  208ceb:	48 8b 44 24 20       	mov    0x20(%rsp),%rax
  208cf0:	48 89 44 24 40       	mov    %rax,0x40(%rsp)
            if status == INCOMPLETE { // We init
  208cf5:	48 83 7c 24 40 00    	cmpq   $0x0,0x40(%rsp)
  208cfb:	75 a3                	jne    208ca0 <_ZN4spin4once13Once$LT$T$GT$9call_once17h6f32702f4bd4a450E+0x40>
  208cfd:	48 8b 44 24 30       	mov    0x30(%rsp),%rax
                let mut finish = Finish { state: &self.state, panicked: true };
  208d02:	48 89 44 24 50       	mov    %rax,0x50(%rsp)
  208d07:	c6 44 24 58 01       	movb   $0x1,0x58(%rsp)
                unsafe { *self.data.get() = Some(builder()) };
  208d0c:	c6 84 24 3f 01 00 00 	movb   $0x0,0x13f(%rsp)
  208d13:	00 
  208d14:	48 8d bc 24 d0 00 00 	lea    0xd0(%rsp),%rdi
  208d1b:	00 
  208d1c:	e8 7f 2a 00 00       	callq  20b7a0 <_ZN4core3ops8function6FnOnce9call_once17hd8203fd94ba4d5e4E>
  208d21:	48 8d 7c 24 60       	lea    0x60(%rsp),%rdi
  208d26:	48 83 c7 01          	add    $0x1,%rdi
  208d2a:	48 8d b4 24 d0 00 00 	lea    0xd0(%rsp),%rsi
  208d31:	00 
  208d32:	ba 68 00 00 00       	mov    $0x68,%edx
  208d37:	e8 24 d8 02 00       	callq  236560 <memcpy>
  208d3c:	48 8b 44 24 30       	mov    0x30(%rsp),%rax
  208d41:	c6 44 24 60 01       	movb   $0x1,0x60(%rsp)
  208d46:	48 83 c0 08          	add    $0x8,%rax
  208d4a:	48 89 84 24 50 01 00 	mov    %rax,0x150(%rsp)
  208d51:	00 
  208d52:	48 89 44 24 18       	mov    %rax,0x18(%rsp)
  208d57:	eb 00                	jmp    208d59 <_ZN4spin4once13Once$LT$T$GT$9call_once17h6f32702f4bd4a450E+0xf9>
  208d59:	48 8b 7c 24 18       	mov    0x18(%rsp),%rdi
  208d5e:	48 8d 74 24 60       	lea    0x60(%rsp),%rsi
  208d63:	ba 69 00 00 00       	mov    $0x69,%edx
  208d68:	e8 f3 d7 02 00       	callq  236560 <memcpy>
  208d6d:	48 8b 7c 24 30       	mov    0x30(%rsp),%rdi
                finish.panicked = false;
  208d72:	c6 44 24 58 00       	movb   $0x0,0x58(%rsp)
                status = COMPLETE;
  208d77:	48 c7 44 24 40 02 00 	movq   $0x2,0x40(%rsp)
  208d7e:	00 00 
                self.state.store(status, Ordering::SeqCst);
  208d80:	c6 84 24 3d 01 00 00 	movb   $0x4,0x13d(%rsp)
  208d87:	04 
  208d88:	be 02 00 00 00       	mov    $0x2,%esi
  208d8d:	0f b6 94 24 3d 01 00 	movzbl 0x13d(%rsp),%edx
  208d94:	00 
  208d95:	e8 66 ff 01 00       	callq  228d00 <_ZN4core4sync6atomic11AtomicUsize5store17h4c3fd8ca10ebd78dE>
  208d9a:	48 8b 7c 24 30       	mov    0x30(%rsp),%rdi
                return self.force_get();
  208d9f:	e8 1c 13 00 00       	callq  20a0c0 <_ZN4spin4once13Once$LT$T$GT$9force_get17h72feba64f587094aE>
  208da4:	48 89 44 24 10       	mov    %rax,0x10(%rsp)
  208da9:	48 8b 44 24 10       	mov    0x10(%rsp),%rax
  208dae:	48 89 44 24 38       	mov    %rax,0x38(%rsp)
            }
  208db3:	48 8d 7c 24 50       	lea    0x50(%rsp),%rdi
  208db8:	e8 73 2b 00 00       	callq  20b930 <_ZN4core3ptr39drop_in_place$LT$spin..once..Finish$GT$17h1e72272e055ed4abE>
    }
  208dbd:	f6 84 24 3f 01 00 00 	testb  $0x1,0x13f(%rsp)
  208dc4:	01 
  208dc5:	75 6c                	jne    208e33 <_ZN4spin4once13Once$LT$T$GT$9call_once17h6f32702f4bd4a450E+0x1d3>
  208dc7:	eb 5d                	jmp    208e26 <_ZN4spin4once13Once$LT$T$GT$9call_once17h6f32702f4bd4a450E+0x1c6>
                _ => unsafe { unreachable() },
  208dc9:	e8 72 e9 00 00       	callq  217740 <_ZN4core4hint21unreachable_unchecked17h3d568e9cb7ce9039E>
  208dce:	0f 0b                	ud2    
                INCOMPLETE => unreachable!(),
  208dd0:	48 8d 3d 9c 76 ff ff 	lea    -0x8964(%rip),%rdi        # 200473 <str.0+0x173>
  208dd7:	48 8d 15 4a e8 02 00 	lea    0x2e84a(%rip),%rdx        # 237628 <memcmp+0x1078>
  208dde:	be 28 00 00 00       	mov    $0x28,%esi
  208de3:	e8 78 a6 02 00       	callq  233460 <_ZN4core9panicking5panic17hb5e1b99c05020429E>
  208de8:	0f 0b                	ud2    
                    cpu_relax();
  208dea:	e8 a1 ff 01 00       	callq  228d90 <_ZN4core4sync6atomic14spin_loop_hint17h2201e74ebeb209f7E>
  208def:	eb 44                	jmp    208e35 <_ZN4spin4once13Once$LT$T$GT$9call_once17h6f32702f4bd4a450E+0x1d5>
                PANICKED => panic!("Once has panicked"),
  208df1:	48 8d 3d 14 76 ff ff 	lea    -0x89ec(%rip),%rdi        # 20040c <str.0+0x10c>
  208df8:	48 8d 15 11 e8 02 00 	lea    0x2e811(%rip),%rdx        # 237610 <memcmp+0x1060>
  208dff:	be 11 00 00 00       	mov    $0x11,%esi
  208e04:	e8 57 a6 02 00       	callq  233460 <_ZN4core9panicking5panic17hb5e1b99c05020429E>
  208e09:	0f 0b                	ud2    
  208e0b:	48 8b 7c 24 30       	mov    0x30(%rsp),%rdi
                COMPLETE => return self.force_get(),
  208e10:	e8 ab 12 00 00       	callq  20a0c0 <_ZN4spin4once13Once$LT$T$GT$9force_get17h72feba64f587094aE>
  208e15:	48 89 44 24 08       	mov    %rax,0x8(%rsp)
  208e1a:	48 8b 44 24 08       	mov    0x8(%rsp),%rax
  208e1f:	48 89 44 24 38       	mov    %rax,0x38(%rsp)
  208e24:	eb 97                	jmp    208dbd <_ZN4spin4once13Once$LT$T$GT$9call_once17h6f32702f4bd4a450E+0x15d>
    }
  208e26:	48 8b 44 24 38       	mov    0x38(%rsp),%rax
  208e2b:	48 81 c4 58 01 00 00 	add    $0x158,%rsp
  208e32:	c3                   	retq   
  208e33:	eb f1                	jmp    208e26 <_ZN4spin4once13Once$LT$T$GT$9call_once17h6f32702f4bd4a450E+0x1c6>
  208e35:	48 8b 7c 24 30       	mov    0x30(%rsp),%rdi
                    status = self.state.load(Ordering::SeqCst)
  208e3a:	c6 84 24 3e 01 00 00 	movb   $0x4,0x13e(%rsp)
  208e41:	04 
  208e42:	0f b6 b4 24 3e 01 00 	movzbl 0x13e(%rsp),%esi
  208e49:	00 
  208e4a:	e8 71 fe 01 00       	callq  228cc0 <_ZN4core4sync6atomic11AtomicUsize4load17h676aa25949b33a83E>
  208e4f:	48 89 04 24          	mov    %rax,(%rsp)
  208e53:	48 8b 04 24          	mov    (%rsp),%rax
  208e57:	48 89 44 24 40       	mov    %rax,0x40(%rsp)
  208e5c:	e9 3f fe ff ff       	jmpq   208ca0 <_ZN4spin4once13Once$LT$T$GT$9call_once17h6f32702f4bd4a450E+0x40>
  208e61:	cc                   	int3   
  208e62:	cc                   	int3   
  208e63:	cc                   	int3   
  208e64:	cc                   	int3   
  208e65:	cc                   	int3   
  208e66:	cc                   	int3   
  208e67:	cc                   	int3   
  208e68:	cc                   	int3   
  208e69:	cc                   	int3   
  208e6a:	cc                   	int3   
  208e6b:	cc                   	int3   
  208e6c:	cc                   	int3   
  208e6d:	cc                   	int3   
  208e6e:	cc                   	int3   
  208e6f:	cc                   	int3   

0000000000208e70 <_ZN4spin4once13Once$LT$T$GT$9call_once17h8748ef93490369bcE>:
    pub fn call_once<'a, F>(&'a self, builder: F) -> &'a T
  208e70:	48 81 ec a8 10 00 00 	sub    $0x10a8,%rsp
  208e77:	48 89 7c 24 30       	mov    %rdi,0x30(%rsp)
  208e7c:	48 89 bc 24 90 10 00 	mov    %rdi,0x1090(%rsp)
  208e83:	00 
        loop {
  208e84:	c6 84 24 8f 10 00 00 	movb   $0x0,0x108f(%rsp)
  208e8b:	00 
  208e8c:	c6 84 24 8f 10 00 00 	movb   $0x1,0x108f(%rsp)
  208e93:	01 
        let mut status = self.state.load(Ordering::SeqCst);
  208e94:	c6 44 24 4e 04       	movb   $0x4,0x4e(%rsp)
  208e99:	0f b6 74 24 4e       	movzbl 0x4e(%rsp),%esi
  208e9e:	e8 1d fe 01 00       	callq  228cc0 <_ZN4core4sync6atomic11AtomicUsize4load17h676aa25949b33a83E>
  208ea3:	48 89 44 24 40       	mov    %rax,0x40(%rsp)
        if status == INCOMPLETE {
  208ea8:	48 83 7c 24 40 00    	cmpq   $0x0,0x40(%rsp)
  208eae:	74 29                	je     208ed9 <_ZN4spin4once13Once$LT$T$GT$9call_once17h8748ef93490369bcE+0x69>
            match status {
  208eb0:	48 8b 44 24 40       	mov    0x40(%rsp),%rax
  208eb5:	48 89 44 24 28       	mov    %rax,0x28(%rsp)
  208eba:	48 83 e8 03          	sub    $0x3,%rax
  208ebe:	0f 87 19 01 00 00    	ja     208fdd <_ZN4spin4once13Once$LT$T$GT$9call_once17h8748ef93490369bcE+0x16d>
  208ec4:	48 8b 44 24 28       	mov    0x28(%rsp),%rax
  208ec9:	48 8d 0d bc 74 ff ff 	lea    -0x8b44(%rip),%rcx        # 20038c <str.0+0x8c>
  208ed0:	48 63 04 81          	movslq (%rcx,%rax,4),%rax
  208ed4:	48 01 c8             	add    %rcx,%rax
  208ed7:	ff e0                	jmpq   *%rax
  208ed9:	48 8b 7c 24 30       	mov    0x30(%rsp),%rdi
                                                 Ordering::SeqCst);
  208ede:	c6 44 24 4f 04       	movb   $0x4,0x4f(%rsp)
            status = self.state.compare_and_swap(INCOMPLETE,
  208ee3:	31 c0                	xor    %eax,%eax
  208ee5:	89 c6                	mov    %eax,%esi
  208ee7:	ba 01 00 00 00       	mov    $0x1,%edx
  208eec:	0f b6 4c 24 4f       	movzbl 0x4f(%rsp),%ecx
  208ef1:	e8 aa fc 01 00       	callq  228ba0 <_ZN4core4sync6atomic11AtomicUsize16compare_and_swap17hb896640bc65eb7abE>
  208ef6:	48 89 44 24 20       	mov    %rax,0x20(%rsp)
  208efb:	48 8b 44 24 20       	mov    0x20(%rsp),%rax
  208f00:	48 89 44 24 40       	mov    %rax,0x40(%rsp)
            if status == INCOMPLETE { // We init
  208f05:	48 83 7c 24 40 00    	cmpq   $0x0,0x40(%rsp)
  208f0b:	75 a3                	jne    208eb0 <_ZN4spin4once13Once$LT$T$GT$9call_once17h8748ef93490369bcE+0x40>
  208f0d:	48 8b 44 24 30       	mov    0x30(%rsp),%rax
                let mut finish = Finish { state: &self.state, panicked: true };
  208f12:	48 89 44 24 50       	mov    %rax,0x50(%rsp)
  208f17:	c6 44 24 58 01       	movb   $0x1,0x58(%rsp)
                unsafe { *self.data.get() = Some(builder()) };
  208f1c:	c6 84 24 8f 10 00 00 	movb   $0x0,0x108f(%rsp)
  208f23:	00 
  208f24:	48 8d bc 24 78 08 00 	lea    0x878(%rsp),%rdi
  208f2b:	00 
  208f2c:	e8 2f 28 00 00       	callq  20b760 <_ZN4core3ops8function6FnOnce9call_once17hc979a394b9036ee6E>
  208f31:	48 8d 7c 24 60       	lea    0x60(%rsp),%rdi
  208f36:	48 83 c7 08          	add    $0x8,%rdi
  208f3a:	48 8d b4 24 78 08 00 	lea    0x878(%rsp),%rsi
  208f41:	00 
  208f42:	ba 10 08 00 00       	mov    $0x810,%edx
  208f47:	e8 14 d6 02 00       	callq  236560 <memcpy>
  208f4c:	48 8b 44 24 30       	mov    0x30(%rsp),%rax
  208f51:	48 c7 44 24 60 01 00 	movq   $0x1,0x60(%rsp)
  208f58:	00 00 
  208f5a:	48 83 c0 08          	add    $0x8,%rax
  208f5e:	48 89 84 24 a0 10 00 	mov    %rax,0x10a0(%rsp)
  208f65:	00 
  208f66:	48 89 44 24 18       	mov    %rax,0x18(%rsp)
  208f6b:	eb 00                	jmp    208f6d <_ZN4spin4once13Once$LT$T$GT$9call_once17h8748ef93490369bcE+0xfd>
  208f6d:	48 8b 7c 24 18       	mov    0x18(%rsp),%rdi
  208f72:	48 8d 74 24 60       	lea    0x60(%rsp),%rsi
  208f77:	ba 18 08 00 00       	mov    $0x818,%edx
  208f7c:	e8 df d5 02 00       	callq  236560 <memcpy>
  208f81:	48 8b 7c 24 30       	mov    0x30(%rsp),%rdi
                finish.panicked = false;
  208f86:	c6 44 24 58 00       	movb   $0x0,0x58(%rsp)
                status = COMPLETE;
  208f8b:	48 c7 44 24 40 02 00 	movq   $0x2,0x40(%rsp)
  208f92:	00 00 
                self.state.store(status, Ordering::SeqCst);
  208f94:	c6 84 24 8d 10 00 00 	movb   $0x4,0x108d(%rsp)
  208f9b:	04 
  208f9c:	be 02 00 00 00       	mov    $0x2,%esi
  208fa1:	0f b6 94 24 8d 10 00 	movzbl 0x108d(%rsp),%edx
  208fa8:	00 
  208fa9:	e8 52 fd 01 00       	callq  228d00 <_ZN4core4sync6atomic11AtomicUsize5store17h4c3fd8ca10ebd78dE>
  208fae:	48 8b 7c 24 30       	mov    0x30(%rsp),%rdi
                return self.force_get();
  208fb3:	e8 f8 0f 00 00       	callq  209fb0 <_ZN4spin4once13Once$LT$T$GT$9force_get17h43bface2ec8aaafdE>
  208fb8:	48 89 44 24 10       	mov    %rax,0x10(%rsp)
  208fbd:	48 8b 44 24 10       	mov    0x10(%rsp),%rax
  208fc2:	48 89 44 24 38       	mov    %rax,0x38(%rsp)
            }
  208fc7:	48 8d 7c 24 50       	lea    0x50(%rsp),%rdi
  208fcc:	e8 5f 29 00 00       	callq  20b930 <_ZN4core3ptr39drop_in_place$LT$spin..once..Finish$GT$17h1e72272e055ed4abE>
    }
  208fd1:	f6 84 24 8f 10 00 00 	testb  $0x1,0x108f(%rsp)
  208fd8:	01 
  208fd9:	75 6c                	jne    209047 <_ZN4spin4once13Once$LT$T$GT$9call_once17h8748ef93490369bcE+0x1d7>
  208fdb:	eb 5d                	jmp    20903a <_ZN4spin4once13Once$LT$T$GT$9call_once17h8748ef93490369bcE+0x1ca>
                _ => unsafe { unreachable() },
  208fdd:	e8 5e e7 00 00       	callq  217740 <_ZN4core4hint21unreachable_unchecked17h3d568e9cb7ce9039E>
  208fe2:	0f 0b                	ud2    
                INCOMPLETE => unreachable!(),
  208fe4:	48 8d 3d 88 74 ff ff 	lea    -0x8b78(%rip),%rdi        # 200473 <str.0+0x173>
  208feb:	48 8d 15 36 e6 02 00 	lea    0x2e636(%rip),%rdx        # 237628 <memcmp+0x1078>
  208ff2:	be 28 00 00 00       	mov    $0x28,%esi
  208ff7:	e8 64 a4 02 00       	callq  233460 <_ZN4core9panicking5panic17hb5e1b99c05020429E>
  208ffc:	0f 0b                	ud2    
                    cpu_relax();
  208ffe:	e8 8d fd 01 00       	callq  228d90 <_ZN4core4sync6atomic14spin_loop_hint17h2201e74ebeb209f7E>
  209003:	eb 44                	jmp    209049 <_ZN4spin4once13Once$LT$T$GT$9call_once17h8748ef93490369bcE+0x1d9>
                PANICKED => panic!("Once has panicked"),
  209005:	48 8d 3d 00 74 ff ff 	lea    -0x8c00(%rip),%rdi        # 20040c <str.0+0x10c>
  20900c:	48 8d 15 fd e5 02 00 	lea    0x2e5fd(%rip),%rdx        # 237610 <memcmp+0x1060>
  209013:	be 11 00 00 00       	mov    $0x11,%esi
  209018:	e8 43 a4 02 00       	callq  233460 <_ZN4core9panicking5panic17hb5e1b99c05020429E>
  20901d:	0f 0b                	ud2    
  20901f:	48 8b 7c 24 30       	mov    0x30(%rsp),%rdi
                COMPLETE => return self.force_get(),
  209024:	e8 87 0f 00 00       	callq  209fb0 <_ZN4spin4once13Once$LT$T$GT$9force_get17h43bface2ec8aaafdE>
  209029:	48 89 44 24 08       	mov    %rax,0x8(%rsp)
  20902e:	48 8b 44 24 08       	mov    0x8(%rsp),%rax
  209033:	48 89 44 24 38       	mov    %rax,0x38(%rsp)
  209038:	eb 97                	jmp    208fd1 <_ZN4spin4once13Once$LT$T$GT$9call_once17h8748ef93490369bcE+0x161>
    }
  20903a:	48 8b 44 24 38       	mov    0x38(%rsp),%rax
  20903f:	48 81 c4 a8 10 00 00 	add    $0x10a8,%rsp
  209046:	c3                   	retq   
  209047:	eb f1                	jmp    20903a <_ZN4spin4once13Once$LT$T$GT$9call_once17h8748ef93490369bcE+0x1ca>
  209049:	48 8b 7c 24 30       	mov    0x30(%rsp),%rdi
                    status = self.state.load(Ordering::SeqCst)
  20904e:	c6 84 24 8e 10 00 00 	movb   $0x4,0x108e(%rsp)
  209055:	04 
  209056:	0f b6 b4 24 8e 10 00 	movzbl 0x108e(%rsp),%esi
  20905d:	00 
  20905e:	e8 5d fc 01 00       	callq  228cc0 <_ZN4core4sync6atomic11AtomicUsize4load17h676aa25949b33a83E>
  209063:	48 89 04 24          	mov    %rax,(%rsp)
  209067:	48 8b 04 24          	mov    (%rsp),%rax
  20906b:	48 89 44 24 40       	mov    %rax,0x40(%rsp)
  209070:	e9 3b fe ff ff       	jmpq   208eb0 <_ZN4spin4once13Once$LT$T$GT$9call_once17h8748ef93490369bcE+0x40>
  209075:	cc                   	int3   
  209076:	cc                   	int3   
  209077:	cc                   	int3   
  209078:	cc                   	int3   
  209079:	cc                   	int3   
  20907a:	cc                   	int3   
  20907b:	cc                   	int3   
  20907c:	cc                   	int3   
  20907d:	cc                   	int3   
  20907e:	cc                   	int3   
  20907f:	cc                   	int3   

0000000000209080 <_ZN4spin4once13Once$LT$T$GT$9call_once17h94ca2a99b8405a3fE>:
    pub fn call_once<'a, F>(&'a self, builder: F) -> &'a T
  209080:	48 81 ec e8 00 00 00 	sub    $0xe8,%rsp
  209087:	48 89 7c 24 38       	mov    %rdi,0x38(%rsp)
  20908c:	48 89 bc 24 d0 00 00 	mov    %rdi,0xd0(%rsp)
  209093:	00 
        loop {
  209094:	c6 84 24 cf 00 00 00 	movb   $0x0,0xcf(%rsp)
  20909b:	00 
  20909c:	c6 84 24 cf 00 00 00 	movb   $0x1,0xcf(%rsp)
  2090a3:	01 
        let mut status = self.state.load(Ordering::SeqCst);
  2090a4:	c6 44 24 56 04       	movb   $0x4,0x56(%rsp)
  2090a9:	0f b6 74 24 56       	movzbl 0x56(%rsp),%esi
  2090ae:	e8 0d fc 01 00       	callq  228cc0 <_ZN4core4sync6atomic11AtomicUsize4load17h676aa25949b33a83E>
  2090b3:	48 89 44 24 48       	mov    %rax,0x48(%rsp)
        if status == INCOMPLETE {
  2090b8:	48 83 7c 24 48 00    	cmpq   $0x0,0x48(%rsp)
  2090be:	74 29                	je     2090e9 <_ZN4spin4once13Once$LT$T$GT$9call_once17h94ca2a99b8405a3fE+0x69>
            match status {
  2090c0:	48 8b 44 24 48       	mov    0x48(%rsp),%rax
  2090c5:	48 89 44 24 30       	mov    %rax,0x30(%rsp)
  2090ca:	48 83 e8 03          	sub    $0x3,%rax
  2090ce:	0f 87 0c 01 00 00    	ja     2091e0 <_ZN4spin4once13Once$LT$T$GT$9call_once17h94ca2a99b8405a3fE+0x160>
  2090d4:	48 8b 44 24 30       	mov    0x30(%rsp),%rax
  2090d9:	48 8d 0d bc 72 ff ff 	lea    -0x8d44(%rip),%rcx        # 20039c <str.0+0x9c>
  2090e0:	48 63 04 81          	movslq (%rcx,%rax,4),%rax
  2090e4:	48 01 c8             	add    %rcx,%rax
  2090e7:	ff e0                	jmpq   *%rax
  2090e9:	48 8b 7c 24 38       	mov    0x38(%rsp),%rdi
                                                 Ordering::SeqCst);
  2090ee:	c6 44 24 57 04       	movb   $0x4,0x57(%rsp)
            status = self.state.compare_and_swap(INCOMPLETE,
  2090f3:	31 c0                	xor    %eax,%eax
  2090f5:	89 c6                	mov    %eax,%esi
  2090f7:	ba 01 00 00 00       	mov    $0x1,%edx
  2090fc:	0f b6 4c 24 57       	movzbl 0x57(%rsp),%ecx
  209101:	e8 9a fa 01 00       	callq  228ba0 <_ZN4core4sync6atomic11AtomicUsize16compare_and_swap17hb896640bc65eb7abE>
  209106:	48 89 44 24 28       	mov    %rax,0x28(%rsp)
  20910b:	48 8b 44 24 28       	mov    0x28(%rsp),%rax
  209110:	48 89 44 24 48       	mov    %rax,0x48(%rsp)
            if status == INCOMPLETE { // We init
  209115:	48 83 7c 24 48 00    	cmpq   $0x0,0x48(%rsp)
  20911b:	75 a3                	jne    2090c0 <_ZN4spin4once13Once$LT$T$GT$9call_once17h94ca2a99b8405a3fE+0x40>
  20911d:	48 8b 44 24 38       	mov    0x38(%rsp),%rax
                let mut finish = Finish { state: &self.state, panicked: true };
  209122:	48 89 44 24 58       	mov    %rax,0x58(%rsp)
  209127:	c6 44 24 60 01       	movb   $0x1,0x60(%rsp)
                unsafe { *self.data.get() = Some(builder()) };
  20912c:	c6 84 24 cf 00 00 00 	movb   $0x0,0xcf(%rsp)
  209133:	00 
  209134:	48 8d bc 24 98 00 00 	lea    0x98(%rsp),%rdi
  20913b:	00 
  20913c:	e8 4f 24 00 00       	callq  20b590 <_ZN4core3ops8function6FnOnce9call_once17h35dfcc7c677b1963E>
  209141:	48 8d 7c 24 68       	lea    0x68(%rsp),%rdi
  209146:	48 8d b4 24 98 00 00 	lea    0x98(%rsp),%rsi
  20914d:	00 
  20914e:	ba 30 00 00 00       	mov    $0x30,%edx
  209153:	e8 08 d4 02 00       	callq  236560 <memcpy>
  209158:	48 8b 44 24 38       	mov    0x38(%rsp),%rax
  20915d:	48 83 c0 08          	add    $0x8,%rax
  209161:	48 89 84 24 e0 00 00 	mov    %rax,0xe0(%rsp)
  209168:	00 
  209169:	48 89 44 24 20       	mov    %rax,0x20(%rsp)
  20916e:	eb 00                	jmp    209170 <_ZN4spin4once13Once$LT$T$GT$9call_once17h94ca2a99b8405a3fE+0xf0>
  209170:	48 8b 7c 24 20       	mov    0x20(%rsp),%rdi
  209175:	48 8d 74 24 68       	lea    0x68(%rsp),%rsi
  20917a:	ba 30 00 00 00       	mov    $0x30,%edx
  20917f:	e8 dc d3 02 00       	callq  236560 <memcpy>
  209184:	48 8b 7c 24 38       	mov    0x38(%rsp),%rdi
                finish.panicked = false;
  209189:	c6 44 24 60 00       	movb   $0x0,0x60(%rsp)
                status = COMPLETE;
  20918e:	48 c7 44 24 48 02 00 	movq   $0x2,0x48(%rsp)
  209195:	00 00 
                self.state.store(status, Ordering::SeqCst);
  209197:	c6 84 24 cd 00 00 00 	movb   $0x4,0xcd(%rsp)
  20919e:	04 
  20919f:	be 02 00 00 00       	mov    $0x2,%esi
  2091a4:	0f b6 94 24 cd 00 00 	movzbl 0xcd(%rsp),%edx
  2091ab:	00 
  2091ac:	e8 4f fb 01 00       	callq  228d00 <_ZN4core4sync6atomic11AtomicUsize5store17h4c3fd8ca10ebd78dE>
  2091b1:	48 8b 7c 24 38       	mov    0x38(%rsp),%rdi
                return self.force_get();
  2091b6:	e8 65 12 00 00       	callq  20a420 <_ZN4spin4once13Once$LT$T$GT$9force_get17hfe5052baa31a5a3cE>
  2091bb:	48 89 44 24 18       	mov    %rax,0x18(%rsp)
  2091c0:	48 8b 44 24 18       	mov    0x18(%rsp),%rax
  2091c5:	48 89 44 24 40       	mov    %rax,0x40(%rsp)
            }
  2091ca:	48 8d 7c 24 58       	lea    0x58(%rsp),%rdi
  2091cf:	e8 5c 27 00 00       	callq  20b930 <_ZN4core3ptr39drop_in_place$LT$spin..once..Finish$GT$17h1e72272e055ed4abE>
    }
  2091d4:	f6 84 24 cf 00 00 00 	testb  $0x1,0xcf(%rsp)
  2091db:	01 
  2091dc:	75 6c                	jne    20924a <_ZN4spin4once13Once$LT$T$GT$9call_once17h94ca2a99b8405a3fE+0x1ca>
  2091de:	eb 5d                	jmp    20923d <_ZN4spin4once13Once$LT$T$GT$9call_once17h94ca2a99b8405a3fE+0x1bd>
                _ => unsafe { unreachable() },
  2091e0:	e8 5b e5 00 00       	callq  217740 <_ZN4core4hint21unreachable_unchecked17h3d568e9cb7ce9039E>
  2091e5:	0f 0b                	ud2    
                INCOMPLETE => unreachable!(),
  2091e7:	48 8d 3d 85 72 ff ff 	lea    -0x8d7b(%rip),%rdi        # 200473 <str.0+0x173>
  2091ee:	48 8d 15 33 e4 02 00 	lea    0x2e433(%rip),%rdx        # 237628 <memcmp+0x1078>
  2091f5:	be 28 00 00 00       	mov    $0x28,%esi
  2091fa:	e8 61 a2 02 00       	callq  233460 <_ZN4core9panicking5panic17hb5e1b99c05020429E>
  2091ff:	0f 0b                	ud2    
                    cpu_relax();
  209201:	e8 8a fb 01 00       	callq  228d90 <_ZN4core4sync6atomic14spin_loop_hint17h2201e74ebeb209f7E>
  209206:	eb 44                	jmp    20924c <_ZN4spin4once13Once$LT$T$GT$9call_once17h94ca2a99b8405a3fE+0x1cc>
                PANICKED => panic!("Once has panicked"),
  209208:	48 8d 3d fd 71 ff ff 	lea    -0x8e03(%rip),%rdi        # 20040c <str.0+0x10c>
  20920f:	48 8d 15 fa e3 02 00 	lea    0x2e3fa(%rip),%rdx        # 237610 <memcmp+0x1060>
  209216:	be 11 00 00 00       	mov    $0x11,%esi
  20921b:	e8 40 a2 02 00       	callq  233460 <_ZN4core9panicking5panic17hb5e1b99c05020429E>
  209220:	0f 0b                	ud2    
  209222:	48 8b 7c 24 38       	mov    0x38(%rsp),%rdi
                COMPLETE => return self.force_get(),
  209227:	e8 f4 11 00 00       	callq  20a420 <_ZN4spin4once13Once$LT$T$GT$9force_get17hfe5052baa31a5a3cE>
  20922c:	48 89 44 24 10       	mov    %rax,0x10(%rsp)
  209231:	48 8b 44 24 10       	mov    0x10(%rsp),%rax
  209236:	48 89 44 24 40       	mov    %rax,0x40(%rsp)
  20923b:	eb 97                	jmp    2091d4 <_ZN4spin4once13Once$LT$T$GT$9call_once17h94ca2a99b8405a3fE+0x154>
    }
  20923d:	48 8b 44 24 40       	mov    0x40(%rsp),%rax
  209242:	48 81 c4 e8 00 00 00 	add    $0xe8,%rsp
  209249:	c3                   	retq   
  20924a:	eb f1                	jmp    20923d <_ZN4spin4once13Once$LT$T$GT$9call_once17h94ca2a99b8405a3fE+0x1bd>
  20924c:	48 8b 7c 24 38       	mov    0x38(%rsp),%rdi
                    status = self.state.load(Ordering::SeqCst)
  209251:	c6 84 24 ce 00 00 00 	movb   $0x4,0xce(%rsp)
  209258:	04 
  209259:	0f b6 b4 24 ce 00 00 	movzbl 0xce(%rsp),%esi
  209260:	00 
  209261:	e8 5a fa 01 00       	callq  228cc0 <_ZN4core4sync6atomic11AtomicUsize4load17h676aa25949b33a83E>
  209266:	48 89 44 24 08       	mov    %rax,0x8(%rsp)
  20926b:	48 8b 44 24 08       	mov    0x8(%rsp),%rax
  209270:	48 89 44 24 48       	mov    %rax,0x48(%rsp)
  209275:	e9 46 fe ff ff       	jmpq   2090c0 <_ZN4spin4once13Once$LT$T$GT$9call_once17h94ca2a99b8405a3fE+0x40>
  20927a:	cc                   	int3   
  20927b:	cc                   	int3   
  20927c:	cc                   	int3   
  20927d:	cc                   	int3   
  20927e:	cc                   	int3   
  20927f:	cc                   	int3   

0000000000209280 <_ZN4spin4once13Once$LT$T$GT$9call_once17h9716f54e37b25dc1E>:
    pub fn call_once<'a, F>(&'a self, builder: F) -> &'a T
  209280:	48 81 ec 48 01 00 00 	sub    $0x148,%rsp
  209287:	48 89 7c 24 30       	mov    %rdi,0x30(%rsp)
  20928c:	48 89 bc 24 30 01 00 	mov    %rdi,0x130(%rsp)
  209293:	00 
        loop {
  209294:	c6 84 24 2f 01 00 00 	movb   $0x0,0x12f(%rsp)
  20929b:	00 
  20929c:	c6 84 24 2f 01 00 00 	movb   $0x1,0x12f(%rsp)
  2092a3:	01 
        let mut status = self.state.load(Ordering::SeqCst);
  2092a4:	c6 44 24 4e 04       	movb   $0x4,0x4e(%rsp)
  2092a9:	0f b6 74 24 4e       	movzbl 0x4e(%rsp),%esi
  2092ae:	e8 0d fa 01 00       	callq  228cc0 <_ZN4core4sync6atomic11AtomicUsize4load17h676aa25949b33a83E>
  2092b3:	48 89 44 24 40       	mov    %rax,0x40(%rsp)
        if status == INCOMPLETE {
  2092b8:	48 83 7c 24 40 00    	cmpq   $0x0,0x40(%rsp)
  2092be:	74 29                	je     2092e9 <_ZN4spin4once13Once$LT$T$GT$9call_once17h9716f54e37b25dc1E+0x69>
            match status {
  2092c0:	48 8b 44 24 40       	mov    0x40(%rsp),%rax
  2092c5:	48 89 44 24 28       	mov    %rax,0x28(%rsp)
  2092ca:	48 83 e8 03          	sub    $0x3,%rax
  2092ce:	0f 87 19 01 00 00    	ja     2093ed <_ZN4spin4once13Once$LT$T$GT$9call_once17h9716f54e37b25dc1E+0x16d>
  2092d4:	48 8b 44 24 28       	mov    0x28(%rsp),%rax
  2092d9:	48 8d 0d cc 70 ff ff 	lea    -0x8f34(%rip),%rcx        # 2003ac <str.0+0xac>
  2092e0:	48 63 04 81          	movslq (%rcx,%rax,4),%rax
  2092e4:	48 01 c8             	add    %rcx,%rax
  2092e7:	ff e0                	jmpq   *%rax
  2092e9:	48 8b 7c 24 30       	mov    0x30(%rsp),%rdi
                                                 Ordering::SeqCst);
  2092ee:	c6 44 24 4f 04       	movb   $0x4,0x4f(%rsp)
            status = self.state.compare_and_swap(INCOMPLETE,
  2092f3:	31 c0                	xor    %eax,%eax
  2092f5:	89 c6                	mov    %eax,%esi
  2092f7:	ba 01 00 00 00       	mov    $0x1,%edx
  2092fc:	0f b6 4c 24 4f       	movzbl 0x4f(%rsp),%ecx
  209301:	e8 9a f8 01 00       	callq  228ba0 <_ZN4core4sync6atomic11AtomicUsize16compare_and_swap17hb896640bc65eb7abE>
  209306:	48 89 44 24 20       	mov    %rax,0x20(%rsp)
  20930b:	48 8b 44 24 20       	mov    0x20(%rsp),%rax
  209310:	48 89 44 24 40       	mov    %rax,0x40(%rsp)
            if status == INCOMPLETE { // We init
  209315:	48 83 7c 24 40 00    	cmpq   $0x0,0x40(%rsp)
  20931b:	75 a3                	jne    2092c0 <_ZN4spin4once13Once$LT$T$GT$9call_once17h9716f54e37b25dc1E+0x40>
  20931d:	48 8b 44 24 30       	mov    0x30(%rsp),%rax
                let mut finish = Finish { state: &self.state, panicked: true };
  209322:	48 89 44 24 50       	mov    %rax,0x50(%rsp)
  209327:	c6 44 24 58 01       	movb   $0x1,0x58(%rsp)
                unsafe { *self.data.get() = Some(builder()) };
  20932c:	c6 84 24 2f 01 00 00 	movb   $0x0,0x12f(%rsp)
  209333:	00 
  209334:	48 8d bc 24 c8 00 00 	lea    0xc8(%rsp),%rdi
  20933b:	00 
  20933c:	e8 cf 21 00 00       	callq  20b510 <_ZN4core3ops8function6FnOnce9call_once17h2a57aa7eac2aa15bE>
  209341:	48 8d 7c 24 60       	lea    0x60(%rsp),%rdi
  209346:	48 83 c7 08          	add    $0x8,%rdi
  20934a:	48 8d b4 24 c8 00 00 	lea    0xc8(%rsp),%rsi
  209351:	00 
  209352:	ba 60 00 00 00       	mov    $0x60,%edx
  209357:	e8 04 d2 02 00       	callq  236560 <memcpy>
  20935c:	48 8b 44 24 30       	mov    0x30(%rsp),%rax
  209361:	48 c7 44 24 60 01 00 	movq   $0x1,0x60(%rsp)
  209368:	00 00 
  20936a:	48 83 c0 08          	add    $0x8,%rax
  20936e:	48 89 84 24 40 01 00 	mov    %rax,0x140(%rsp)
  209375:	00 
  209376:	48 89 44 24 18       	mov    %rax,0x18(%rsp)
  20937b:	eb 00                	jmp    20937d <_ZN4spin4once13Once$LT$T$GT$9call_once17h9716f54e37b25dc1E+0xfd>
  20937d:	48 8b 7c 24 18       	mov    0x18(%rsp),%rdi
  209382:	48 8d 74 24 60       	lea    0x60(%rsp),%rsi
  209387:	ba 68 00 00 00       	mov    $0x68,%edx
  20938c:	e8 cf d1 02 00       	callq  236560 <memcpy>
  209391:	48 8b 7c 24 30       	mov    0x30(%rsp),%rdi
                finish.panicked = false;
  209396:	c6 44 24 58 00       	movb   $0x0,0x58(%rsp)
                status = COMPLETE;
  20939b:	48 c7 44 24 40 02 00 	movq   $0x2,0x40(%rsp)
  2093a2:	00 00 
                self.state.store(status, Ordering::SeqCst);
  2093a4:	c6 84 24 2d 01 00 00 	movb   $0x4,0x12d(%rsp)
  2093ab:	04 
  2093ac:	be 02 00 00 00       	mov    $0x2,%esi
  2093b1:	0f b6 94 24 2d 01 00 	movzbl 0x12d(%rsp),%edx
  2093b8:	00 
  2093b9:	e8 42 f9 01 00       	callq  228d00 <_ZN4core4sync6atomic11AtomicUsize5store17h4c3fd8ca10ebd78dE>
  2093be:	48 8b 7c 24 30       	mov    0x30(%rsp),%rdi
                return self.force_get();
  2093c3:	e8 78 0e 00 00       	callq  20a240 <_ZN4spin4once13Once$LT$T$GT$9force_get17h8b454fdcf7e8277bE>
  2093c8:	48 89 44 24 10       	mov    %rax,0x10(%rsp)
  2093cd:	48 8b 44 24 10       	mov    0x10(%rsp),%rax
  2093d2:	48 89 44 24 38       	mov    %rax,0x38(%rsp)
            }
  2093d7:	48 8d 7c 24 50       	lea    0x50(%rsp),%rdi
  2093dc:	e8 4f 25 00 00       	callq  20b930 <_ZN4core3ptr39drop_in_place$LT$spin..once..Finish$GT$17h1e72272e055ed4abE>
    }
  2093e1:	f6 84 24 2f 01 00 00 	testb  $0x1,0x12f(%rsp)
  2093e8:	01 
  2093e9:	75 6c                	jne    209457 <_ZN4spin4once13Once$LT$T$GT$9call_once17h9716f54e37b25dc1E+0x1d7>
  2093eb:	eb 5d                	jmp    20944a <_ZN4spin4once13Once$LT$T$GT$9call_once17h9716f54e37b25dc1E+0x1ca>
                _ => unsafe { unreachable() },
  2093ed:	e8 4e e3 00 00       	callq  217740 <_ZN4core4hint21unreachable_unchecked17h3d568e9cb7ce9039E>
  2093f2:	0f 0b                	ud2    
                INCOMPLETE => unreachable!(),
  2093f4:	48 8d 3d 78 70 ff ff 	lea    -0x8f88(%rip),%rdi        # 200473 <str.0+0x173>
  2093fb:	48 8d 15 26 e2 02 00 	lea    0x2e226(%rip),%rdx        # 237628 <memcmp+0x1078>
  209402:	be 28 00 00 00       	mov    $0x28,%esi
  209407:	e8 54 a0 02 00       	callq  233460 <_ZN4core9panicking5panic17hb5e1b99c05020429E>
  20940c:	0f 0b                	ud2    
                    cpu_relax();
  20940e:	e8 7d f9 01 00       	callq  228d90 <_ZN4core4sync6atomic14spin_loop_hint17h2201e74ebeb209f7E>
  209413:	eb 44                	jmp    209459 <_ZN4spin4once13Once$LT$T$GT$9call_once17h9716f54e37b25dc1E+0x1d9>
                PANICKED => panic!("Once has panicked"),
  209415:	48 8d 3d f0 6f ff ff 	lea    -0x9010(%rip),%rdi        # 20040c <str.0+0x10c>
  20941c:	48 8d 15 ed e1 02 00 	lea    0x2e1ed(%rip),%rdx        # 237610 <memcmp+0x1060>
  209423:	be 11 00 00 00       	mov    $0x11,%esi
  209428:	e8 33 a0 02 00       	callq  233460 <_ZN4core9panicking5panic17hb5e1b99c05020429E>
  20942d:	0f 0b                	ud2    
  20942f:	48 8b 7c 24 30       	mov    0x30(%rsp),%rdi
                COMPLETE => return self.force_get(),
  209434:	e8 07 0e 00 00       	callq  20a240 <_ZN4spin4once13Once$LT$T$GT$9force_get17h8b454fdcf7e8277bE>
  209439:	48 89 44 24 08       	mov    %rax,0x8(%rsp)
  20943e:	48 8b 44 24 08       	mov    0x8(%rsp),%rax
  209443:	48 89 44 24 38       	mov    %rax,0x38(%rsp)
  209448:	eb 97                	jmp    2093e1 <_ZN4spin4once13Once$LT$T$GT$9call_once17h9716f54e37b25dc1E+0x161>
    }
  20944a:	48 8b 44 24 38       	mov    0x38(%rsp),%rax
  20944f:	48 81 c4 48 01 00 00 	add    $0x148,%rsp
  209456:	c3                   	retq   
  209457:	eb f1                	jmp    20944a <_ZN4spin4once13Once$LT$T$GT$9call_once17h9716f54e37b25dc1E+0x1ca>
  209459:	48 8b 7c 24 30       	mov    0x30(%rsp),%rdi
                    status = self.state.load(Ordering::SeqCst)
  20945e:	c6 84 24 2e 01 00 00 	movb   $0x4,0x12e(%rsp)
  209465:	04 
  209466:	0f b6 b4 24 2e 01 00 	movzbl 0x12e(%rsp),%esi
  20946d:	00 
  20946e:	e8 4d f8 01 00       	callq  228cc0 <_ZN4core4sync6atomic11AtomicUsize4load17h676aa25949b33a83E>
  209473:	48 89 04 24          	mov    %rax,(%rsp)
  209477:	48 8b 04 24          	mov    (%rsp),%rax
  20947b:	48 89 44 24 40       	mov    %rax,0x40(%rsp)
  209480:	e9 3b fe ff ff       	jmpq   2092c0 <_ZN4spin4once13Once$LT$T$GT$9call_once17h9716f54e37b25dc1E+0x40>
  209485:	cc                   	int3   
  209486:	cc                   	int3   
  209487:	cc                   	int3   
  209488:	cc                   	int3   
  209489:	cc                   	int3   
  20948a:	cc                   	int3   
  20948b:	cc                   	int3   
  20948c:	cc                   	int3   
  20948d:	cc                   	int3   
  20948e:	cc                   	int3   
  20948f:	cc                   	int3   

0000000000209490 <_ZN4spin4once13Once$LT$T$GT$9call_once17h9aeb61bc244497efE>:
    pub fn call_once<'a, F>(&'a self, builder: F) -> &'a T
  209490:	48 81 ec f8 00 00 00 	sub    $0xf8,%rsp
  209497:	48 89 7c 24 38       	mov    %rdi,0x38(%rsp)
  20949c:	48 89 bc 24 e0 00 00 	mov    %rdi,0xe0(%rsp)
  2094a3:	00 
        loop {
  2094a4:	c6 84 24 df 00 00 00 	movb   $0x0,0xdf(%rsp)
  2094ab:	00 
  2094ac:	c6 84 24 df 00 00 00 	movb   $0x1,0xdf(%rsp)
  2094b3:	01 
        let mut status = self.state.load(Ordering::SeqCst);
  2094b4:	c6 44 24 56 04       	movb   $0x4,0x56(%rsp)
  2094b9:	0f b6 74 24 56       	movzbl 0x56(%rsp),%esi
  2094be:	e8 fd f7 01 00       	callq  228cc0 <_ZN4core4sync6atomic11AtomicUsize4load17h676aa25949b33a83E>
  2094c3:	48 89 44 24 48       	mov    %rax,0x48(%rsp)
        if status == INCOMPLETE {
  2094c8:	48 83 7c 24 48 00    	cmpq   $0x0,0x48(%rsp)
  2094ce:	74 29                	je     2094f9 <_ZN4spin4once13Once$LT$T$GT$9call_once17h9aeb61bc244497efE+0x69>
            match status {
  2094d0:	48 8b 44 24 48       	mov    0x48(%rsp),%rax
  2094d5:	48 89 44 24 30       	mov    %rax,0x30(%rsp)
  2094da:	48 83 e8 03          	sub    $0x3,%rax
  2094de:	0f 87 0c 01 00 00    	ja     2095f0 <_ZN4spin4once13Once$LT$T$GT$9call_once17h9aeb61bc244497efE+0x160>
  2094e4:	48 8b 44 24 30       	mov    0x30(%rsp),%rax
  2094e9:	48 8d 0d cc 6e ff ff 	lea    -0x9134(%rip),%rcx        # 2003bc <str.0+0xbc>
  2094f0:	48 63 04 81          	movslq (%rcx,%rax,4),%rax
  2094f4:	48 01 c8             	add    %rcx,%rax
  2094f7:	ff e0                	jmpq   *%rax
  2094f9:	48 8b 7c 24 38       	mov    0x38(%rsp),%rdi
                                                 Ordering::SeqCst);
  2094fe:	c6 44 24 57 04       	movb   $0x4,0x57(%rsp)
            status = self.state.compare_and_swap(INCOMPLETE,
  209503:	31 c0                	xor    %eax,%eax
  209505:	89 c6                	mov    %eax,%esi
  209507:	ba 01 00 00 00       	mov    $0x1,%edx
  20950c:	0f b6 4c 24 57       	movzbl 0x57(%rsp),%ecx
  209511:	e8 8a f6 01 00       	callq  228ba0 <_ZN4core4sync6atomic11AtomicUsize16compare_and_swap17hb896640bc65eb7abE>
  209516:	48 89 44 24 28       	mov    %rax,0x28(%rsp)
  20951b:	48 8b 44 24 28       	mov    0x28(%rsp),%rax
  209520:	48 89 44 24 48       	mov    %rax,0x48(%rsp)
            if status == INCOMPLETE { // We init
  209525:	48 83 7c 24 48 00    	cmpq   $0x0,0x48(%rsp)
  20952b:	75 a3                	jne    2094d0 <_ZN4spin4once13Once$LT$T$GT$9call_once17h9aeb61bc244497efE+0x40>
  20952d:	48 8b 44 24 38       	mov    0x38(%rsp),%rax
                let mut finish = Finish { state: &self.state, panicked: true };
  209532:	48 89 44 24 58       	mov    %rax,0x58(%rsp)
  209537:	c6 44 24 60 01       	movb   $0x1,0x60(%rsp)
                unsafe { *self.data.get() = Some(builder()) };
  20953c:	c6 84 24 df 00 00 00 	movb   $0x0,0xdf(%rsp)
  209543:	00 
  209544:	48 8d bc 24 a0 00 00 	lea    0xa0(%rsp),%rdi
  20954b:	00 
  20954c:	e8 3f 21 00 00       	callq  20b690 <_ZN4core3ops8function6FnOnce9call_once17h904af9fc8ad763bdE>
  209551:	48 8d 7c 24 68       	lea    0x68(%rsp),%rdi
  209556:	48 8d b4 24 a0 00 00 	lea    0xa0(%rsp),%rsi
  20955d:	00 
  20955e:	ba 38 00 00 00       	mov    $0x38,%edx
  209563:	e8 f8 cf 02 00       	callq  236560 <memcpy>
  209568:	48 8b 44 24 38       	mov    0x38(%rsp),%rax
  20956d:	48 83 c0 08          	add    $0x8,%rax
  209571:	48 89 84 24 f0 00 00 	mov    %rax,0xf0(%rsp)
  209578:	00 
  209579:	48 89 44 24 20       	mov    %rax,0x20(%rsp)
  20957e:	eb 00                	jmp    209580 <_ZN4spin4once13Once$LT$T$GT$9call_once17h9aeb61bc244497efE+0xf0>
  209580:	48 8b 7c 24 20       	mov    0x20(%rsp),%rdi
  209585:	48 8d 74 24 68       	lea    0x68(%rsp),%rsi
  20958a:	ba 38 00 00 00       	mov    $0x38,%edx
  20958f:	e8 cc cf 02 00       	callq  236560 <memcpy>
  209594:	48 8b 7c 24 38       	mov    0x38(%rsp),%rdi
                finish.panicked = false;
  209599:	c6 44 24 60 00       	movb   $0x0,0x60(%rsp)
                status = COMPLETE;
  20959e:	48 c7 44 24 48 02 00 	movq   $0x2,0x48(%rsp)
  2095a5:	00 00 
                self.state.store(status, Ordering::SeqCst);
  2095a7:	c6 84 24 dd 00 00 00 	movb   $0x4,0xdd(%rsp)
  2095ae:	04 
  2095af:	be 02 00 00 00       	mov    $0x2,%esi
  2095b4:	0f b6 94 24 dd 00 00 	movzbl 0xdd(%rsp),%edx
  2095bb:	00 
  2095bc:	e8 3f f7 01 00       	callq  228d00 <_ZN4core4sync6atomic11AtomicUsize5store17h4c3fd8ca10ebd78dE>
  2095c1:	48 8b 7c 24 38       	mov    0x38(%rsp),%rdi
                return self.force_get();
  2095c6:	e8 35 0d 00 00       	callq  20a300 <_ZN4spin4once13Once$LT$T$GT$9force_get17hac39404499bc3531E>
  2095cb:	48 89 44 24 18       	mov    %rax,0x18(%rsp)
  2095d0:	48 8b 44 24 18       	mov    0x18(%rsp),%rax
  2095d5:	48 89 44 24 40       	mov    %rax,0x40(%rsp)
            }
  2095da:	48 8d 7c 24 58       	lea    0x58(%rsp),%rdi
  2095df:	e8 4c 23 00 00       	callq  20b930 <_ZN4core3ptr39drop_in_place$LT$spin..once..Finish$GT$17h1e72272e055ed4abE>
    }
  2095e4:	f6 84 24 df 00 00 00 	testb  $0x1,0xdf(%rsp)
  2095eb:	01 
  2095ec:	75 6c                	jne    20965a <_ZN4spin4once13Once$LT$T$GT$9call_once17h9aeb61bc244497efE+0x1ca>
  2095ee:	eb 5d                	jmp    20964d <_ZN4spin4once13Once$LT$T$GT$9call_once17h9aeb61bc244497efE+0x1bd>
                _ => unsafe { unreachable() },
  2095f0:	e8 4b e1 00 00       	callq  217740 <_ZN4core4hint21unreachable_unchecked17h3d568e9cb7ce9039E>
  2095f5:	0f 0b                	ud2    
                INCOMPLETE => unreachable!(),
  2095f7:	48 8d 3d 75 6e ff ff 	lea    -0x918b(%rip),%rdi        # 200473 <str.0+0x173>
  2095fe:	48 8d 15 23 e0 02 00 	lea    0x2e023(%rip),%rdx        # 237628 <memcmp+0x1078>
  209605:	be 28 00 00 00       	mov    $0x28,%esi
  20960a:	e8 51 9e 02 00       	callq  233460 <_ZN4core9panicking5panic17hb5e1b99c05020429E>
  20960f:	0f 0b                	ud2    
                    cpu_relax();
  209611:	e8 7a f7 01 00       	callq  228d90 <_ZN4core4sync6atomic14spin_loop_hint17h2201e74ebeb209f7E>
  209616:	eb 44                	jmp    20965c <_ZN4spin4once13Once$LT$T$GT$9call_once17h9aeb61bc244497efE+0x1cc>
                PANICKED => panic!("Once has panicked"),
  209618:	48 8d 3d ed 6d ff ff 	lea    -0x9213(%rip),%rdi        # 20040c <str.0+0x10c>
  20961f:	48 8d 15 ea df 02 00 	lea    0x2dfea(%rip),%rdx        # 237610 <memcmp+0x1060>
  209626:	be 11 00 00 00       	mov    $0x11,%esi
  20962b:	e8 30 9e 02 00       	callq  233460 <_ZN4core9panicking5panic17hb5e1b99c05020429E>
  209630:	0f 0b                	ud2    
  209632:	48 8b 7c 24 38       	mov    0x38(%rsp),%rdi
                COMPLETE => return self.force_get(),
  209637:	e8 c4 0c 00 00       	callq  20a300 <_ZN4spin4once13Once$LT$T$GT$9force_get17hac39404499bc3531E>
  20963c:	48 89 44 24 10       	mov    %rax,0x10(%rsp)
  209641:	48 8b 44 24 10       	mov    0x10(%rsp),%rax
  209646:	48 89 44 24 40       	mov    %rax,0x40(%rsp)
  20964b:	eb 97                	jmp    2095e4 <_ZN4spin4once13Once$LT$T$GT$9call_once17h9aeb61bc244497efE+0x154>
    }
  20964d:	48 8b 44 24 40       	mov    0x40(%rsp),%rax
  209652:	48 81 c4 f8 00 00 00 	add    $0xf8,%rsp
  209659:	c3                   	retq   
  20965a:	eb f1                	jmp    20964d <_ZN4spin4once13Once$LT$T$GT$9call_once17h9aeb61bc244497efE+0x1bd>
  20965c:	48 8b 7c 24 38       	mov    0x38(%rsp),%rdi
                    status = self.state.load(Ordering::SeqCst)
  209661:	c6 84 24 de 00 00 00 	movb   $0x4,0xde(%rsp)
  209668:	04 
  209669:	0f b6 b4 24 de 00 00 	movzbl 0xde(%rsp),%esi
  209670:	00 
  209671:	e8 4a f6 01 00       	callq  228cc0 <_ZN4core4sync6atomic11AtomicUsize4load17h676aa25949b33a83E>
  209676:	48 89 44 24 08       	mov    %rax,0x8(%rsp)
  20967b:	48 8b 44 24 08       	mov    0x8(%rsp),%rax
  209680:	48 89 44 24 48       	mov    %rax,0x48(%rsp)
  209685:	e9 46 fe ff ff       	jmpq   2094d0 <_ZN4spin4once13Once$LT$T$GT$9call_once17h9aeb61bc244497efE+0x40>
  20968a:	cc                   	int3   
  20968b:	cc                   	int3   
  20968c:	cc                   	int3   
  20968d:	cc                   	int3   
  20968e:	cc                   	int3   
  20968f:	cc                   	int3   

0000000000209690 <_ZN4spin4once13Once$LT$T$GT$9call_once17hb642ad19db6dfdd1E>:
    pub fn call_once<'a, F>(&'a self, builder: F) -> &'a T
  209690:	48 81 ec 18 01 00 00 	sub    $0x118,%rsp
  209697:	48 89 7c 24 30       	mov    %rdi,0x30(%rsp)
  20969c:	48 89 bc 24 00 01 00 	mov    %rdi,0x100(%rsp)
  2096a3:	00 
        loop {
  2096a4:	c6 84 24 ff 00 00 00 	movb   $0x0,0xff(%rsp)
  2096ab:	00 
  2096ac:	c6 84 24 ff 00 00 00 	movb   $0x1,0xff(%rsp)
  2096b3:	01 
        let mut status = self.state.load(Ordering::SeqCst);
  2096b4:	c6 44 24 4e 04       	movb   $0x4,0x4e(%rsp)
  2096b9:	0f b6 74 24 4e       	movzbl 0x4e(%rsp),%esi
  2096be:	e8 fd f5 01 00       	callq  228cc0 <_ZN4core4sync6atomic11AtomicUsize4load17h676aa25949b33a83E>
  2096c3:	48 89 44 24 40       	mov    %rax,0x40(%rsp)
        if status == INCOMPLETE {
  2096c8:	48 83 7c 24 40 00    	cmpq   $0x0,0x40(%rsp)
  2096ce:	74 29                	je     2096f9 <_ZN4spin4once13Once$LT$T$GT$9call_once17hb642ad19db6dfdd1E+0x69>
            match status {
  2096d0:	48 8b 44 24 40       	mov    0x40(%rsp),%rax
  2096d5:	48 89 44 24 28       	mov    %rax,0x28(%rsp)
  2096da:	48 83 e8 03          	sub    $0x3,%rax
  2096de:	0f 87 19 01 00 00    	ja     2097fd <_ZN4spin4once13Once$LT$T$GT$9call_once17hb642ad19db6dfdd1E+0x16d>
  2096e4:	48 8b 44 24 28       	mov    0x28(%rsp),%rax
  2096e9:	48 8d 0d dc 6c ff ff 	lea    -0x9324(%rip),%rcx        # 2003cc <str.0+0xcc>
  2096f0:	48 63 04 81          	movslq (%rcx,%rax,4),%rax
  2096f4:	48 01 c8             	add    %rcx,%rax
  2096f7:	ff e0                	jmpq   *%rax
  2096f9:	48 8b 7c 24 30       	mov    0x30(%rsp),%rdi
                                                 Ordering::SeqCst);
  2096fe:	c6 44 24 4f 04       	movb   $0x4,0x4f(%rsp)
            status = self.state.compare_and_swap(INCOMPLETE,
  209703:	31 c0                	xor    %eax,%eax
  209705:	89 c6                	mov    %eax,%esi
  209707:	ba 01 00 00 00       	mov    $0x1,%edx
  20970c:	0f b6 4c 24 4f       	movzbl 0x4f(%rsp),%ecx
  209711:	e8 8a f4 01 00       	callq  228ba0 <_ZN4core4sync6atomic11AtomicUsize16compare_and_swap17hb896640bc65eb7abE>
  209716:	48 89 44 24 20       	mov    %rax,0x20(%rsp)
  20971b:	48 8b 44 24 20       	mov    0x20(%rsp),%rax
  209720:	48 89 44 24 40       	mov    %rax,0x40(%rsp)
            if status == INCOMPLETE { // We init
  209725:	48 83 7c 24 40 00    	cmpq   $0x0,0x40(%rsp)
  20972b:	75 a3                	jne    2096d0 <_ZN4spin4once13Once$LT$T$GT$9call_once17hb642ad19db6dfdd1E+0x40>
  20972d:	48 8b 44 24 30       	mov    0x30(%rsp),%rax
                let mut finish = Finish { state: &self.state, panicked: true };
  209732:	48 89 44 24 50       	mov    %rax,0x50(%rsp)
  209737:	c6 44 24 58 01       	movb   $0x1,0x58(%rsp)
                unsafe { *self.data.get() = Some(builder()) };
  20973c:	c6 84 24 ff 00 00 00 	movb   $0x0,0xff(%rsp)
  209743:	00 
  209744:	48 8d bc 24 b0 00 00 	lea    0xb0(%rsp),%rdi
  20974b:	00 
  20974c:	e8 5f 1f 00 00       	callq  20b6b0 <_ZN4core3ops8function6FnOnce9call_once17h9b71252915a475a7E>
  209751:	48 8d 7c 24 60       	lea    0x60(%rsp),%rdi
  209756:	48 83 c7 08          	add    $0x8,%rdi
  20975a:	48 8d b4 24 b0 00 00 	lea    0xb0(%rsp),%rsi
  209761:	00 
  209762:	ba 48 00 00 00       	mov    $0x48,%edx
  209767:	e8 f4 cd 02 00       	callq  236560 <memcpy>
  20976c:	48 8b 44 24 30       	mov    0x30(%rsp),%rax
  209771:	48 c7 44 24 60 01 00 	movq   $0x1,0x60(%rsp)
  209778:	00 00 
  20977a:	48 83 c0 08          	add    $0x8,%rax
  20977e:	48 89 84 24 10 01 00 	mov    %rax,0x110(%rsp)
  209785:	00 
  209786:	48 89 44 24 18       	mov    %rax,0x18(%rsp)
  20978b:	eb 00                	jmp    20978d <_ZN4spin4once13Once$LT$T$GT$9call_once17hb642ad19db6dfdd1E+0xfd>
  20978d:	48 8b 7c 24 18       	mov    0x18(%rsp),%rdi
  209792:	48 8d 74 24 60       	lea    0x60(%rsp),%rsi
  209797:	ba 50 00 00 00       	mov    $0x50,%edx
  20979c:	e8 bf cd 02 00       	callq  236560 <memcpy>
  2097a1:	48 8b 7c 24 30       	mov    0x30(%rsp),%rdi
                finish.panicked = false;
  2097a6:	c6 44 24 58 00       	movb   $0x0,0x58(%rsp)
                status = COMPLETE;
  2097ab:	48 c7 44 24 40 02 00 	movq   $0x2,0x40(%rsp)
  2097b2:	00 00 
                self.state.store(status, Ordering::SeqCst);
  2097b4:	c6 84 24 fd 00 00 00 	movb   $0x4,0xfd(%rsp)
  2097bb:	04 
  2097bc:	be 02 00 00 00       	mov    $0x2,%esi
  2097c1:	0f b6 94 24 fd 00 00 	movzbl 0xfd(%rsp),%edx
  2097c8:	00 
  2097c9:	e8 32 f5 01 00       	callq  228d00 <_ZN4core4sync6atomic11AtomicUsize5store17h4c3fd8ca10ebd78dE>
  2097ce:	48 8b 7c 24 30       	mov    0x30(%rsp),%rdi
                return self.force_get();
  2097d3:	e8 18 07 00 00       	callq  209ef0 <_ZN4spin4once13Once$LT$T$GT$9force_get17h2a8c61e85a9b8965E>
  2097d8:	48 89 44 24 10       	mov    %rax,0x10(%rsp)
  2097dd:	48 8b 44 24 10       	mov    0x10(%rsp),%rax
  2097e2:	48 89 44 24 38       	mov    %rax,0x38(%rsp)
            }
  2097e7:	48 8d 7c 24 50       	lea    0x50(%rsp),%rdi
  2097ec:	e8 3f 21 00 00       	callq  20b930 <_ZN4core3ptr39drop_in_place$LT$spin..once..Finish$GT$17h1e72272e055ed4abE>
    }
  2097f1:	f6 84 24 ff 00 00 00 	testb  $0x1,0xff(%rsp)
  2097f8:	01 
  2097f9:	75 6c                	jne    209867 <_ZN4spin4once13Once$LT$T$GT$9call_once17hb642ad19db6dfdd1E+0x1d7>
  2097fb:	eb 5d                	jmp    20985a <_ZN4spin4once13Once$LT$T$GT$9call_once17hb642ad19db6dfdd1E+0x1ca>
                _ => unsafe { unreachable() },
  2097fd:	e8 3e df 00 00       	callq  217740 <_ZN4core4hint21unreachable_unchecked17h3d568e9cb7ce9039E>
  209802:	0f 0b                	ud2    
                INCOMPLETE => unreachable!(),
  209804:	48 8d 3d 68 6c ff ff 	lea    -0x9398(%rip),%rdi        # 200473 <str.0+0x173>
  20980b:	48 8d 15 16 de 02 00 	lea    0x2de16(%rip),%rdx        # 237628 <memcmp+0x1078>
  209812:	be 28 00 00 00       	mov    $0x28,%esi
  209817:	e8 44 9c 02 00       	callq  233460 <_ZN4core9panicking5panic17hb5e1b99c05020429E>
  20981c:	0f 0b                	ud2    
                    cpu_relax();
  20981e:	e8 6d f5 01 00       	callq  228d90 <_ZN4core4sync6atomic14spin_loop_hint17h2201e74ebeb209f7E>
  209823:	eb 44                	jmp    209869 <_ZN4spin4once13Once$LT$T$GT$9call_once17hb642ad19db6dfdd1E+0x1d9>
                PANICKED => panic!("Once has panicked"),
  209825:	48 8d 3d e0 6b ff ff 	lea    -0x9420(%rip),%rdi        # 20040c <str.0+0x10c>
  20982c:	48 8d 15 dd dd 02 00 	lea    0x2dddd(%rip),%rdx        # 237610 <memcmp+0x1060>
  209833:	be 11 00 00 00       	mov    $0x11,%esi
  209838:	e8 23 9c 02 00       	callq  233460 <_ZN4core9panicking5panic17hb5e1b99c05020429E>
  20983d:	0f 0b                	ud2    
  20983f:	48 8b 7c 24 30       	mov    0x30(%rsp),%rdi
                COMPLETE => return self.force_get(),
  209844:	e8 a7 06 00 00       	callq  209ef0 <_ZN4spin4once13Once$LT$T$GT$9force_get17h2a8c61e85a9b8965E>
  209849:	48 89 44 24 08       	mov    %rax,0x8(%rsp)
  20984e:	48 8b 44 24 08       	mov    0x8(%rsp),%rax
  209853:	48 89 44 24 38       	mov    %rax,0x38(%rsp)
  209858:	eb 97                	jmp    2097f1 <_ZN4spin4once13Once$LT$T$GT$9call_once17hb642ad19db6dfdd1E+0x161>
    }
  20985a:	48 8b 44 24 38       	mov    0x38(%rsp),%rax
  20985f:	48 81 c4 18 01 00 00 	add    $0x118,%rsp
  209866:	c3                   	retq   
  209867:	eb f1                	jmp    20985a <_ZN4spin4once13Once$LT$T$GT$9call_once17hb642ad19db6dfdd1E+0x1ca>
  209869:	48 8b 7c 24 30       	mov    0x30(%rsp),%rdi
                    status = self.state.load(Ordering::SeqCst)
  20986e:	c6 84 24 fe 00 00 00 	movb   $0x4,0xfe(%rsp)
  209875:	04 
  209876:	0f b6 b4 24 fe 00 00 	movzbl 0xfe(%rsp),%esi
  20987d:	00 
  20987e:	e8 3d f4 01 00       	callq  228cc0 <_ZN4core4sync6atomic11AtomicUsize4load17h676aa25949b33a83E>
  209883:	48 89 04 24          	mov    %rax,(%rsp)
  209887:	48 8b 04 24          	mov    (%rsp),%rax
  20988b:	48 89 44 24 40       	mov    %rax,0x40(%rsp)
  209890:	e9 3b fe ff ff       	jmpq   2096d0 <_ZN4spin4once13Once$LT$T$GT$9call_once17hb642ad19db6dfdd1E+0x40>
  209895:	cc                   	int3   
  209896:	cc                   	int3   
  209897:	cc                   	int3   
  209898:	cc                   	int3   
  209899:	cc                   	int3   
  20989a:	cc                   	int3   
  20989b:	cc                   	int3   
  20989c:	cc                   	int3   
  20989d:	cc                   	int3   
  20989e:	cc                   	int3   
  20989f:	cc                   	int3   

00000000002098a0 <_ZN4spin4once13Once$LT$T$GT$9call_once17hb8b90b753d0bfe00E>:
    pub fn call_once<'a, F>(&'a self, builder: F) -> &'a T
  2098a0:	48 81 ec 28 01 00 00 	sub    $0x128,%rsp
  2098a7:	48 89 7c 24 30       	mov    %rdi,0x30(%rsp)
