
kbin/x86_64/debug/r3_kernel:     file format elf64-x86-64


Disassembly of section .text:

0000000000203350 <_ZN43_$LT$u16$u20$as$u20$bit_field..BitField$GT$7set_bit17h4f6f716800d15974E>:
                // shift away low bits
                bits >> range.start
            }

            #[inline]
            fn set_bit(&mut self, bit: usize, value: bool) -> &mut Self {
  203350:	48 83 ec 38          	sub    $0x38,%rsp
  203354:	48 89 74 24 08       	mov    %rsi,0x8(%rsp)
  203359:	48 89 7c 24 10       	mov    %rdi,0x10(%rsp)
  20335e:	88 d0                	mov    %dl,%al
  203360:	88 44 24 1f          	mov    %al,0x1f(%rsp)
  203364:	48 89 7c 24 20       	mov    %rdi,0x20(%rsp)
  203369:	48 89 74 24 28       	mov    %rsi,0x28(%rsp)
  20336e:	24 01                	and    $0x1,%al
  203370:	88 44 24 37          	mov    %al,0x37(%rsp)
                assert!(bit < Self::BIT_LENGTH);
  203374:	48 83 fe 10          	cmp    $0x10,%rsi
  203378:	0f 92 c0             	setb   %al
  20337b:	34 ff                	xor    $0xff,%al
  20337d:	a8 01                	test   $0x1,%al
  20337f:	75 0a                	jne    20338b <_ZN43_$LT$u16$u20$as$u20$bit_field..BitField$GT$7set_bit17h4f6f716800d15974E+0x3b>
  203381:	8a 44 24 1f          	mov    0x1f(%rsp),%al

                if value {
  203385:	a8 01                	test   $0x1,%al
  203387:	75 45                	jne    2033ce <_ZN43_$LT$u16$u20$as$u20$bit_field..BitField$GT$7set_bit17h4f6f716800d15974E+0x7e>
  203389:	eb 1a                	jmp    2033a5 <_ZN43_$LT$u16$u20$as$u20$bit_field..BitField$GT$7set_bit17h4f6f716800d15974E+0x55>
                assert!(bit < Self::BIT_LENGTH);
  20338b:	48 8d 3d 6e ce ff ff 	lea    -0x3192(%rip),%rdi        # 200200 <str.0-0x90>
  203392:	48 8d 15 77 f5 00 00 	lea    0xf577(%rip),%rdx        # 212910 <memset+0x1030>
  203399:	be 28 00 00 00       	mov    $0x28,%esi
  20339e:	e8 ed ba 00 00       	callq  20ee90 <_ZN4core9panicking5panic17hb5e1b99c05020429E>
  2033a3:	0f 0b                	ud2    
  2033a5:	48 8b 4c 24 08       	mov    0x8(%rsp),%rcx
                    *self |= 1 << bit;
                } else {
                    *self &= !(1 << bit);
  2033aa:	48 89 c8             	mov    %rcx,%rax
  2033ad:	48 83 e0 f0          	and    $0xfffffffffffffff0,%rax
  2033b1:	48 83 f8 00          	cmp    $0x0,%rax
  2033b5:	0f 95 c0             	setne  %al
  2033b8:	66 83 e1 0f          	and    $0xf,%cx
  2033bc:	66 ba 01 00          	mov    $0x1,%dx
  2033c0:	66 d3 e2             	shl    %cl,%dx
  2033c3:	66 89 54 24 06       	mov    %dx,0x6(%rsp)
  2033c8:	a8 01                	test   $0x1,%al
  2033ca:	75 75                	jne    203441 <_ZN43_$LT$u16$u20$as$u20$bit_field..BitField$GT$7set_bit17h4f6f716800d15974E+0xf1>
  2033cc:	eb 5d                	jmp    20342b <_ZN43_$LT$u16$u20$as$u20$bit_field..BitField$GT$7set_bit17h4f6f716800d15974E+0xdb>
  2033ce:	48 8b 4c 24 08       	mov    0x8(%rsp),%rcx
                    *self |= 1 << bit;
  2033d3:	48 89 c8             	mov    %rcx,%rax
  2033d6:	48 83 e0 f0          	and    $0xfffffffffffffff0,%rax
  2033da:	48 83 f8 00          	cmp    $0x0,%rax
  2033de:	0f 95 c0             	setne  %al
  2033e1:	66 83 e1 0f          	and    $0xf,%cx
  2033e5:	66 ba 01 00          	mov    $0x1,%dx
  2033e9:	66 d3 e2             	shl    %cl,%dx
  2033ec:	66 89 54 24 04       	mov    %dx,0x4(%rsp)
  2033f1:	a8 01                	test   $0x1,%al
  2033f3:	75 12                	jne    203407 <_ZN43_$LT$u16$u20$as$u20$bit_field..BitField$GT$7set_bit17h4f6f716800d15974E+0xb7>
  2033f5:	48 8b 44 24 10       	mov    0x10(%rsp),%rax
  2033fa:	66 8b 4c 24 04       	mov    0x4(%rsp),%cx
  2033ff:	66 0b 08             	or     (%rax),%cx
  203402:	66 89 08             	mov    %cx,(%rax)
                if value {
  203405:	eb 1a                	jmp    203421 <_ZN43_$LT$u16$u20$as$u20$bit_field..BitField$GT$7set_bit17h4f6f716800d15974E+0xd1>
                    *self |= 1 << bit;
  203407:	48 8d 3d 82 ce ff ff 	lea    -0x317e(%rip),%rdi        # 200290 <str.0>
  20340e:	48 8d 15 fb f4 00 00 	lea    0xf4fb(%rip),%rdx        # 212910 <memset+0x1030>
  203415:	be 23 00 00 00       	mov    $0x23,%esi
  20341a:	e8 71 ba 00 00       	callq  20ee90 <_ZN4core9panicking5panic17hb5e1b99c05020429E>
  20341f:	0f 0b                	ud2    
  203421:	48 8b 44 24 10       	mov    0x10(%rsp),%rax
                }

                self
            }
  203426:	48 83 c4 38          	add    $0x38,%rsp
  20342a:	c3                   	retq   
  20342b:	48 8b 44 24 10       	mov    0x10(%rsp),%rax
  203430:	66 8b 4c 24 06       	mov    0x6(%rsp),%cx
                    *self &= !(1 << bit);
  203435:	66 83 f1 ff          	xor    $0xffff,%cx
  203439:	66 23 08             	and    (%rax),%cx
  20343c:	66 89 08             	mov    %cx,(%rax)
                if value {
  20343f:	eb e0                	jmp    203421 <_ZN43_$LT$u16$u20$as$u20$bit_field..BitField$GT$7set_bit17h4f6f716800d15974E+0xd1>
                    *self &= !(1 << bit);
  203441:	48 8d 3d 48 ce ff ff 	lea    -0x31b8(%rip),%rdi        # 200290 <str.0>
  203448:	48 8d 15 c1 f4 00 00 	lea    0xf4c1(%rip),%rdx        # 212910 <memset+0x1030>
  20344f:	be 23 00 00 00       	mov    $0x23,%esi
  203454:	e8 37 ba 00 00       	callq  20ee90 <_ZN4core9panicking5panic17hb5e1b99c05020429E>
  203459:	0f 0b                	ud2    
  20345b:	cc                   	int3   
  20345c:	cc                   	int3   
  20345d:	cc                   	int3   
  20345e:	cc                   	int3   
  20345f:	cc                   	int3   

0000000000203460 <_ZN9r3_kernel3cpu8segments4lgdt17ha22c06219a02a0cfE>:
}

// core assembly functions:

// Loads the GDT, after this, the segment register must be reloaded.
fn lgdt(ptr: &GDTPointer) {
  203460:	50                   	push   %rax
  203461:	48 89 3c 24          	mov    %rdi,(%rsp)
    unsafe {
        asm!(
  203465:	0f 01 17             	lgdt   (%rdi)
            "lgdt [{0}]", in(reg) ptr,
            options(readonly, nostack, preserves_flags)
        )
    }
}
  203468:	58                   	pop    %rax
  203469:	c3                   	retq   
  20346a:	cc                   	int3   
  20346b:	cc                   	int3   
  20346c:	cc                   	int3   
  20346d:	cc                   	int3   
  20346e:	cc                   	int3   
  20346f:	cc                   	int3   

0000000000203470 <_ZN9r3_kernel3cpu8segments14special_set_cs17hf7c6b88a693a19b8E>:

// CS register cannot be reloaded with the new value like
// other DS, ES, SS, FS or GS registeres. So this is a special case.
fn special_set_cs(value: u16) {
  203470:	48 83 ec 18          	sub    $0x18,%rsp
  203474:	66 89 f8             	mov    %di,%ax
  203477:	66 89 44 24 16       	mov    %ax,0x16(%rsp)
            "push {sel}",
            "lea {tmp}, [1f + rip]",
            "push {tmp}",
            "retfq",
            "1:",
            sel = in(reg) u64::from(value),
  20347c:	0f b7 f8             	movzwl %ax,%edi
  20347f:	e8 dc 8a 00 00       	callq  20bf60 <_ZN4core7convert3num64_$LT$impl$u20$core..convert..From$LT$u16$GT$$u20$for$u20$u64$GT$4from17h0f0bf1c063626619E>
  203484:	48 89 44 24 08       	mov    %rax,0x8(%rsp)
  203489:	48 8b 44 24 08       	mov    0x8(%rsp),%rax
        asm!(
  20348e:	50                   	push   %rax
  20348f:	48 8d 05 03 00 00 00 	lea    0x3(%rip),%rax        # 203499 <_ZN9r3_kernel3cpu8segments14special_set_cs17hf7c6b88a693a19b8E+0x29>
  203496:	50                   	push   %rax
  203497:	48 cb                	lretq  
            tmp = lateout(reg) _,
            options(preserves_flags),
        );
    }
}
  203499:	48 83 c4 18          	add    $0x18,%rsp
  20349d:	c3                   	retq   
  20349e:	cc                   	int3   
  20349f:	cc                   	int3   

00000000002034a0 <_ZN9r3_kernel3cpu8segments8load_tss17h2c868d95eb8693b2E>:

fn load_tss(value: u16) {
  2034a0:	48 83 ec 02          	sub    $0x2,%rsp
  2034a4:	66 89 f8             	mov    %di,%ax
  2034a7:	66 89 04 24          	mov    %ax,(%rsp)
    unsafe {
        asm! (
  2034ab:	0f 00 d8             	ltr    %ax
            "ltr {:x}", in(reg) value,
            options(nomem, nostack, preserves_flags)
        );
    }
}
  2034ae:	48 83 c4 02          	add    $0x2,%rsp
  2034b2:	c3                   	retq   
  2034b3:	cc                   	int3   
  2034b4:	cc                   	int3   
  2034b5:	cc                   	int3   
  2034b6:	cc                   	int3   
  2034b7:	cc                   	int3   
  2034b8:	cc                   	int3   
  2034b9:	cc                   	int3   
  2034ba:	cc                   	int3   
  2034bb:	cc                   	int3   
  2034bc:	cc                   	int3   
  2034bd:	cc                   	int3   
  2034be:	cc                   	int3   
  2034bf:	cc                   	int3   

00000000002034c0 <_ZN9r3_kernel3cpu8segments15SegmentSelector3new17h1b50231228efbbc3E>:
#[derive(Debug)]
pub struct SegmentSelector(pub u16);

impl SegmentSelector {
    #[inline]
    pub fn new(index: u16, ring: PrivilegeLevel) -> SegmentSelector {
  2034c0:	48 83 ec 0a          	sub    $0xa,%rsp
  2034c4:	40 88 f1             	mov    %sil,%cl
  2034c7:	88 4c 24 01          	mov    %cl,0x1(%rsp)
  2034cb:	66 89 f8             	mov    %di,%ax
  2034ce:	66 89 44 24 06       	mov    %ax,0x6(%rsp)
  2034d3:	88 4c 24 09          	mov    %cl,0x9(%rsp)
        SegmentSelector(index << 3 | (ring as u16))
  2034d7:	66 c1 e0 03          	shl    $0x3,%ax
  2034db:	66 89 44 24 02       	mov    %ax,0x2(%rsp)
  2034e0:	66 8b 44 24 02       	mov    0x2(%rsp),%ax
  2034e5:	8a 4c 24 01          	mov    0x1(%rsp),%cl
  2034e9:	0f b6 c9             	movzbl %cl,%ecx
  2034ec:	66 09 c8             	or     %cx,%ax
  2034ef:	66 89 44 24 04       	mov    %ax,0x4(%rsp)
    }
  2034f4:	66 8b 44 24 04       	mov    0x4(%rsp),%ax
  2034f9:	48 83 c4 0a          	add    $0xa,%rsp
  2034fd:	c3                   	retq   
  2034fe:	cc                   	int3   
  2034ff:	cc                   	int3   

0000000000203500 <_ZN9r3_kernel3cpu8segments15SegmentRegister3set17hd55eb3fbfc8ddbefE>:
    FS,
    GS,
}

impl SegmentRegister {
    pub fn set(&self, value: u16) {
  203500:	48 83 ec 28          	sub    $0x28,%rsp
  203504:	66 89 f0             	mov    %si,%ax
  203507:	66 89 44 24 0e       	mov    %ax,0xe(%rsp)
  20350c:	48 89 7c 24 18       	mov    %rdi,0x18(%rsp)
  203511:	66 89 44 24 26       	mov    %ax,0x26(%rsp)
        match self {
  203516:	0f b6 07             	movzbl (%rdi),%eax
  203519:	48 89 44 24 10       	mov    %rax,0x10(%rsp)
  20351e:	48 8b 44 24 10       	mov    0x10(%rsp),%rax
  203523:	48 8d 0d 8a cd ff ff 	lea    -0x3276(%rip),%rcx        # 2002b4 <str.0+0x24>
  20352a:	48 63 04 81          	movslq (%rcx,%rax,4),%rax
  20352e:	48 01 c8             	add    %rcx,%rax
  203531:	ff e0                	jmpq   *%rax
  203533:	0f 0b                	ud2    
  203535:	66 8b 44 24 0e       	mov    0xe(%rsp),%ax
            SegmentRegister::CS => special_set_cs(value),
  20353a:	0f b7 f8             	movzwl %ax,%edi
  20353d:	e8 2e ff ff ff       	callq  203470 <_ZN9r3_kernel3cpu8segments14special_set_cs17hf7c6b88a693a19b8E>
  203542:	eb 30                	jmp    203574 <_ZN9r3_kernel3cpu8segments15SegmentRegister3set17hd55eb3fbfc8ddbefE+0x74>
  203544:	66 8b 44 24 0e       	mov    0xe(%rsp),%ax
                    "mov gs, {:x}", in(reg) value,
                    options(nostack, preserves_flags)
                )
            },
            SegmentRegister::SS => unsafe {
                asm!(
  203549:	66 8e d0             	mov    %ax,%ss
  20354c:	eb 26                	jmp    203574 <_ZN9r3_kernel3cpu8segments15SegmentRegister3set17hd55eb3fbfc8ddbefE+0x74>
  20354e:	66 8b 44 24 0e       	mov    0xe(%rsp),%ax
                asm!(
  203553:	66 8e d8             	mov    %ax,%ds
  203556:	eb 1c                	jmp    203574 <_ZN9r3_kernel3cpu8segments15SegmentRegister3set17hd55eb3fbfc8ddbefE+0x74>
  203558:	66 8b 44 24 0e       	mov    0xe(%rsp),%ax
                asm!(
  20355d:	66 8e c0             	mov    %ax,%es
  203560:	eb 12                	jmp    203574 <_ZN9r3_kernel3cpu8segments15SegmentRegister3set17hd55eb3fbfc8ddbefE+0x74>
  203562:	66 8b 44 24 0e       	mov    0xe(%rsp),%ax
                asm!(
  203567:	66 8e e0             	mov    %ax,%fs
  20356a:	eb 08                	jmp    203574 <_ZN9r3_kernel3cpu8segments15SegmentRegister3set17hd55eb3fbfc8ddbefE+0x74>
  20356c:	66 8b 44 24 0e       	mov    0xe(%rsp),%ax
                asm!(
  203571:	66 8e e8             	mov    %ax,%gs
                    "mov ss, {:x}", in(reg) value,
                    options(nostack, preserves_flags)
                )
            },
        }
    }
  203574:	48 83 c4 28          	add    $0x28,%rsp
  203578:	c3                   	retq   
  203579:	cc                   	int3   
  20357a:	cc                   	int3   
  20357b:	cc                   	int3   
  20357c:	cc                   	int3   
  20357d:	cc                   	int3   
  20357e:	cc                   	int3   
  20357f:	cc                   	int3   

0000000000203580 <_ZN9r3_kernel3cpu8segments15SegmentRegister3get17h9ff0d933d57839d7E>:

    pub fn get(&self) -> u16 {
  203580:	48 83 ec 18          	sub    $0x18,%rsp
  203584:	48 89 7c 24 10       	mov    %rdi,0x10(%rsp)
        let value: u16;
        match self {
  203589:	0f b6 07             	movzbl (%rdi),%eax
  20358c:	48 89 04 24          	mov    %rax,(%rsp)
  203590:	48 8b 04 24          	mov    (%rsp),%rax
  203594:	48 8d 0d 31 cd ff ff 	lea    -0x32cf(%rip),%rcx        # 2002cc <str.0+0x3c>
  20359b:	48 63 04 81          	movslq (%rcx,%rax,4),%rax
  20359f:	48 01 c8             	add    %rcx,%rax
  2035a2:	ff e0                	jmpq   *%rax
  2035a4:	0f 0b                	ud2    
            SegmentRegister::CS => unsafe {
                asm!(
  2035a6:	8c c8                	mov    %cs,%eax
  2035a8:	66 89 44 24 0e       	mov    %ax,0xe(%rsp)
  2035ad:	eb 2b                	jmp    2035da <_ZN9r3_kernel3cpu8segments15SegmentRegister3get17h9ff0d933d57839d7E+0x5a>
                    "mov {:x}, gs", out(reg) value,
                    options(nomem, nostack, preserves_flags)
                )
            },
            SegmentRegister::SS => unsafe {
                asm!(
  2035af:	8c d0                	mov    %ss,%eax
  2035b1:	66 89 44 24 0e       	mov    %ax,0xe(%rsp)
  2035b6:	eb 22                	jmp    2035da <_ZN9r3_kernel3cpu8segments15SegmentRegister3get17h9ff0d933d57839d7E+0x5a>
                asm!(
  2035b8:	8c d8                	mov    %ds,%eax
  2035ba:	66 89 44 24 0e       	mov    %ax,0xe(%rsp)
  2035bf:	eb 19                	jmp    2035da <_ZN9r3_kernel3cpu8segments15SegmentRegister3get17h9ff0d933d57839d7E+0x5a>
                asm!(
  2035c1:	8c c0                	mov    %es,%eax
  2035c3:	66 89 44 24 0e       	mov    %ax,0xe(%rsp)
  2035c8:	eb 10                	jmp    2035da <_ZN9r3_kernel3cpu8segments15SegmentRegister3get17h9ff0d933d57839d7E+0x5a>
                asm!(
  2035ca:	8c e0                	mov    %fs,%eax
  2035cc:	66 89 44 24 0e       	mov    %ax,0xe(%rsp)
  2035d1:	eb 07                	jmp    2035da <_ZN9r3_kernel3cpu8segments15SegmentRegister3get17h9ff0d933d57839d7E+0x5a>
                asm!(
  2035d3:	8c e8                	mov    %gs,%eax
  2035d5:	66 89 44 24 0e       	mov    %ax,0xe(%rsp)
                )
            },
        }

        return value;
    }
  2035da:	66 8b 44 24 0e       	mov    0xe(%rsp),%ax
  2035df:	48 83 c4 18          	add    $0x18,%rsp
  2035e3:	c3                   	retq   
  2035e4:	cc                   	int3   
  2035e5:	cc                   	int3   
  2035e6:	cc                   	int3   
  2035e7:	cc                   	int3   
  2035e8:	cc                   	int3   
  2035e9:	cc                   	int3   
  2035ea:	cc                   	int3   
  2035eb:	cc                   	int3   
  2035ec:	cc                   	int3   
  2035ed:	cc                   	int3   
  2035ee:	cc                   	int3   
  2035ef:	cc                   	int3   

00000000002035f0 <_ZN9r3_kernel3cpu8segments15SegmentRegister10assert_reg17h4c2cdea3b5b4a683E>:

    pub fn assert_reg(&self, value: u16) {
  2035f0:	48 83 ec 78          	sub    $0x78,%rsp
  2035f4:	66 89 f0             	mov    %si,%ax
  2035f7:	66 89 44 24 14       	mov    %ax,0x14(%rsp)
  2035fc:	48 89 7c 24 60       	mov    %rdi,0x60(%rsp)
        let read_value = self.get();
  203601:	e8 7a ff ff ff       	callq  203580 <_ZN9r3_kernel3cpu8segments15SegmentRegister3get17h9ff0d933d57839d7E>
  203606:	66 89 44 24 16       	mov    %ax,0x16(%rsp)
        assert_eq!(read_value, value);
  20360b:	48 8d 44 24 16       	lea    0x16(%rsp),%rax
  203610:	48 89 44 24 18       	mov    %rax,0x18(%rsp)
  203615:	48 8d 44 24 14       	lea    0x14(%rsp),%rax
  20361a:	48 89 44 24 20       	mov    %rax,0x20(%rsp)
  20361f:	48 8b 44 24 18       	mov    0x18(%rsp),%rax
  203624:	48 89 04 24          	mov    %rax,(%rsp)
  203628:	48 89 44 24 68       	mov    %rax,0x68(%rsp)
  20362d:	48 8b 4c 24 20       	mov    0x20(%rsp),%rcx
  203632:	48 89 4c 24 08       	mov    %rcx,0x8(%rsp)
  203637:	48 89 4c 24 70       	mov    %rcx,0x70(%rsp)
  20363c:	66 8b 00             	mov    (%rax),%ax
  20363f:	66 3b 01             	cmp    (%rcx),%ax
  203642:	0f 94 c0             	sete   %al
  203645:	34 ff                	xor    $0xff,%al
  203647:	a8 01                	test   $0x1,%al
  203649:	75 05                	jne    203650 <_ZN9r3_kernel3cpu8segments15SegmentRegister10assert_reg17h4c2cdea3b5b4a683E+0x60>
    }
  20364b:	48 83 c4 78          	add    $0x78,%rsp
  20364f:	c3                   	retq   
  203650:	48 8b 54 24 08       	mov    0x8(%rsp),%rdx
  203655:	48 8b 34 24          	mov    (%rsp),%rsi
        assert_eq!(read_value, value);
  203659:	c6 44 24 2f 00       	movb   $0x0,0x2f(%rsp)
  20365e:	48 c7 44 24 30 00 00 	movq   $0x0,0x30(%rsp)
  203665:	00 00 
  203667:	4c 8d 05 ba f2 00 00 	lea    0xf2ba(%rip),%r8        # 212928 <memset+0x1048>
  20366e:	31 ff                	xor    %edi,%edi
  203670:	48 8d 4c 24 30       	lea    0x30(%rsp),%rcx
  203675:	e8 36 48 00 00       	callq  207eb0 <_ZN4core9panicking13assert_failed17hf745d0fc64896bf3E>
  20367a:	0f 0b                	ud2    
  20367c:	cc                   	int3   
  20367d:	cc                   	int3   
  20367e:	cc                   	int3   
  20367f:	cc                   	int3   

0000000000203680 <_ZN9r3_kernel3cpu8segments16TaskStateSegment5empty17he7cacc0fe7603b71E>:
    pub reserved_4: u16,
    pub iomap_base: u16,
}

impl TaskStateSegment {
    pub fn empty() -> Self {
  203680:	48 83 ec 68          	sub    $0x68,%rsp
  203684:	48 89 7c 24 08       	mov    %rdi,0x8(%rsp)
  203689:	48 89 7c 24 10       	mov    %rdi,0x10(%rsp)
        TaskStateSegment {
            reserved_1: 0,
            privilege_stack_table: [0; 3],
  20368e:	48 8d 7c 24 18       	lea    0x18(%rsp),%rdi
  203693:	31 f6                	xor    %esi,%esi
  203695:	ba 18 00 00 00       	mov    $0x18,%edx
  20369a:	e8 41 e2 00 00       	callq  2118e0 <memset>
            reserved_2: 0,
            interrupt_stack_table: [0; 7],
  20369f:	48 8d 7c 24 30       	lea    0x30(%rsp),%rdi
  2036a4:	31 f6                	xor    %esi,%esi
  2036a6:	ba 38 00 00 00       	mov    $0x38,%edx
  2036ab:	e8 30 e2 00 00       	callq  2118e0 <memset>
  2036b0:	48 8b 7c 24 08       	mov    0x8(%rsp),%rdi
        TaskStateSegment {
  2036b5:	c7 07 00 00 00 00    	movl   $0x0,(%rdi)
  2036bb:	48 8b 44 24 18       	mov    0x18(%rsp),%rax
  2036c0:	48 89 47 04          	mov    %rax,0x4(%rdi)
  2036c4:	48 8b 44 24 20       	mov    0x20(%rsp),%rax
  2036c9:	48 89 47 0c          	mov    %rax,0xc(%rdi)
  2036cd:	48 8b 44 24 28       	mov    0x28(%rsp),%rax
  2036d2:	48 89 47 14          	mov    %rax,0x14(%rdi)
  2036d6:	48 c7 47 1c 00 00 00 	movq   $0x0,0x1c(%rdi)
  2036dd:	00 
  2036de:	48 83 c7 24          	add    $0x24,%rdi
  2036e2:	48 8d 74 24 30       	lea    0x30(%rsp),%rsi
  2036e7:	ba 38 00 00 00       	mov    $0x38,%edx
  2036ec:	e8 cf e1 00 00       	callq  2118c0 <memcpy>
  2036f1:	48 8b 7c 24 08       	mov    0x8(%rsp),%rdi
  2036f6:	48 8b 44 24 10       	mov    0x10(%rsp),%rax
  2036fb:	48 c7 47 5c 00 00 00 	movq   $0x0,0x5c(%rdi)
  203702:	00 
  203703:	66 c7 47 64 00 00    	movw   $0x0,0x64(%rdi)
  203709:	66 c7 47 66 00 00    	movw   $0x0,0x66(%rdi)
            reserved_3: 0,
            reserved_4: 0,
            iomap_base: 0,
        }
    }
  20370f:	48 83 c4 68          	add    $0x68,%rsp
  203713:	c3                   	retq   
  203714:	cc                   	int3   
  203715:	cc                   	int3   
  203716:	cc                   	int3   
  203717:	cc                   	int3   
  203718:	cc                   	int3   
  203719:	cc                   	int3   
  20371a:	cc                   	int3   
  20371b:	cc                   	int3   
  20371c:	cc                   	int3   
  20371d:	cc                   	int3   
  20371e:	cc                   	int3   
  20371f:	cc                   	int3   

0000000000203720 <_ZN9r3_kernel3cpu8segments19TaskStateDescriptor3new17he136b44a4bb59dc2E>:
    pub high: u64,
    pub low: u64,
}

impl TaskStateDescriptor {
    pub fn new(tss: &'static TaskStateSegment) -> Self {
  203720:	48 81 ec 98 01 00 00 	sub    $0x198,%rsp
  203727:	48 89 bc 24 70 01 00 	mov    %rdi,0x170(%rsp)
  20372e:	00 
        let mut low: u64 = SEGMENT_PRESENT;
  20372f:	48 b8 00 00 00 00 00 	movabs $0x800000000000,%rax
  203736:	80 00 00 
  203739:	48 89 44 24 60       	mov    %rax,0x60(%rsp)
        let tss_addr = (tss as *const _) as u64;
  20373e:	48 89 7c 24 68       	mov    %rdi,0x68(%rsp)

        low.set_bits(16..40, tss_addr.get_bits(0..24));
  203743:	48 c7 44 24 70 10 00 	movq   $0x10,0x70(%rsp)
  20374a:	00 00 
  20374c:	48 c7 44 24 78 28 00 	movq   $0x28,0x78(%rsp)
  203753:	00 00 
  203755:	48 c7 84 24 80 00 00 	movq   $0x0,0x80(%rsp)
  20375c:	00 00 00 00 00 
  203761:	48 c7 84 24 88 00 00 	movq   $0x18,0x88(%rsp)
  203768:	00 18 00 00 00 
  20376d:	48 8b b4 24 80 00 00 	mov    0x80(%rsp),%rsi
  203774:	00 
  203775:	48 8b 94 24 88 00 00 	mov    0x88(%rsp),%rdx
  20377c:	00 
  20377d:	48 8d 7c 24 68       	lea    0x68(%rsp),%rdi
  203782:	e8 69 4d 00 00       	callq  2084f0 <_ZN43_$LT$u64$u20$as$u20$bit_field..BitField$GT$8get_bits17h1f3955de0bf3912cE>
  203787:	48 89 44 24 48       	mov    %rax,0x48(%rsp)
  20378c:	48 8b 4c 24 48       	mov    0x48(%rsp),%rcx
  203791:	48 8b 74 24 70       	mov    0x70(%rsp),%rsi
  203796:	48 8b 54 24 78       	mov    0x78(%rsp),%rdx
  20379b:	48 8d 7c 24 60       	lea    0x60(%rsp),%rdi
  2037a0:	e8 6b 4f 00 00       	callq  208710 <_ZN43_$LT$u64$u20$as$u20$bit_field..BitField$GT$8set_bits17h7c6c0ba821b4456cE>
        low.set_bits(56..64, tss_addr.get_bits(24..32));
  2037a5:	48 c7 84 24 90 00 00 	movq   $0x38,0x90(%rsp)
  2037ac:	00 38 00 00 00 
  2037b1:	48 c7 84 24 98 00 00 	movq   $0x40,0x98(%rsp)
  2037b8:	00 40 00 00 00 
  2037bd:	48 c7 84 24 a0 00 00 	movq   $0x18,0xa0(%rsp)
  2037c4:	00 18 00 00 00 
  2037c9:	48 c7 84 24 a8 00 00 	movq   $0x20,0xa8(%rsp)
  2037d0:	00 20 00 00 00 
  2037d5:	48 8b b4 24 a0 00 00 	mov    0xa0(%rsp),%rsi
  2037dc:	00 
  2037dd:	48 8b 94 24 a8 00 00 	mov    0xa8(%rsp),%rdx
  2037e4:	00 
  2037e5:	48 8d 7c 24 68       	lea    0x68(%rsp),%rdi
  2037ea:	e8 01 4d 00 00       	callq  2084f0 <_ZN43_$LT$u64$u20$as$u20$bit_field..BitField$GT$8get_bits17h1f3955de0bf3912cE>
  2037ef:	48 89 44 24 40       	mov    %rax,0x40(%rsp)
  2037f4:	48 8b 4c 24 40       	mov    0x40(%rsp),%rcx
  2037f9:	48 8b b4 24 90 00 00 	mov    0x90(%rsp),%rsi
  203800:	00 
  203801:	48 8b 94 24 98 00 00 	mov    0x98(%rsp),%rdx
  203808:	00 
  203809:	48 8d 7c 24 60       	lea    0x60(%rsp),%rdi
  20380e:	e8 fd 4e 00 00       	callq  208710 <_ZN43_$LT$u64$u20$as$u20$bit_field..BitField$GT$8set_bits17h7c6c0ba821b4456cE>
        // limit (the `-1` in needed since the bound is inclusive)
        low.set_bits(0..16, (mem::size_of::<TaskStateSegment>() - 1) as u64);
  203813:	48 c7 84 24 b0 00 00 	movq   $0x0,0xb0(%rsp)
  20381a:	00 00 00 00 00 
  20381f:	48 c7 84 24 b8 00 00 	movq   $0x10,0xb8(%rsp)
  203826:	00 10 00 00 00 
  20382b:	b8 68 00 00 00       	mov    $0x68,%eax
  203830:	48 83 e8 01          	sub    $0x1,%rax
  203834:	48 89 44 24 38       	mov    %rax,0x38(%rsp)
  203839:	0f 92 c0             	setb   %al
  20383c:	a8 01                	test   $0x1,%al
  20383e:	75 21                	jne    203861 <_ZN9r3_kernel3cpu8segments19TaskStateDescriptor3new17he136b44a4bb59dc2E+0x141>
  203840:	48 8b 4c 24 38       	mov    0x38(%rsp),%rcx
  203845:	48 8b b4 24 b0 00 00 	mov    0xb0(%rsp),%rsi
  20384c:	00 
  20384d:	48 8b 94 24 b8 00 00 	mov    0xb8(%rsp),%rdx
  203854:	00 
  203855:	48 8d 7c 24 60       	lea    0x60(%rsp),%rdi
  20385a:	e8 b1 4e 00 00       	callq  208710 <_ZN43_$LT$u64$u20$as$u20$bit_field..BitField$GT$8set_bits17h7c6c0ba821b4456cE>
  20385f:	eb 1a                	jmp    20387b <_ZN9r3_kernel3cpu8segments19TaskStateDescriptor3new17he136b44a4bb59dc2E+0x15b>
  203861:	48 8d 3d 98 ca ff ff 	lea    -0x3568(%rip),%rdi        # 200300 <str.0>
  203868:	48 8d 15 d1 f0 00 00 	lea    0xf0d1(%rip),%rdx        # 212940 <memset+0x1060>
  20386f:	be 21 00 00 00       	mov    $0x21,%esi
  203874:	e8 17 b6 00 00       	callq  20ee90 <_ZN4core9panicking5panic17hb5e1b99c05020429E>
  203879:	0f 0b                	ud2    
        // type (0b1001 = available 64-bit tss)
        low.set_bits(40..44, 0b1001);
  20387b:	48 c7 84 24 c0 00 00 	movq   $0x28,0xc0(%rsp)
  203882:	00 28 00 00 00 
  203887:	48 c7 84 24 c8 00 00 	movq   $0x2c,0xc8(%rsp)
  20388e:	00 2c 00 00 00 
  203893:	48 8b b4 24 c0 00 00 	mov    0xc0(%rsp),%rsi
  20389a:	00 
  20389b:	48 8b 94 24 c8 00 00 	mov    0xc8(%rsp),%rdx
  2038a2:	00 
  2038a3:	48 8d 7c 24 60       	lea    0x60(%rsp),%rdi
  2038a8:	b9 09 00 00 00       	mov    $0x9,%ecx
  2038ad:	e8 5e 4e 00 00       	callq  208710 <_ZN43_$LT$u64$u20$as$u20$bit_field..BitField$GT$8set_bits17h7c6c0ba821b4456cE>

        let mut high = 0;
  2038b2:	48 c7 84 24 d0 00 00 	movq   $0x0,0xd0(%rsp)
  2038b9:	00 00 00 00 00 
        high.set_bits(0..32, tss_addr.get_bits(32..64));
  2038be:	48 c7 84 24 d8 00 00 	movq   $0x0,0xd8(%rsp)
  2038c5:	00 00 00 00 00 
  2038ca:	48 c7 84 24 e0 00 00 	movq   $0x20,0xe0(%rsp)
  2038d1:	00 20 00 00 00 
  2038d6:	48 c7 84 24 e8 00 00 	movq   $0x20,0xe8(%rsp)
  2038dd:	00 20 00 00 00 
  2038e2:	48 c7 84 24 f0 00 00 	movq   $0x40,0xf0(%rsp)
  2038e9:	00 40 00 00 00 
  2038ee:	48 8b b4 24 e8 00 00 	mov    0xe8(%rsp),%rsi
  2038f5:	00 
  2038f6:	48 8b 94 24 f0 00 00 	mov    0xf0(%rsp),%rdx
  2038fd:	00 
  2038fe:	48 8d 7c 24 68       	lea    0x68(%rsp),%rdi
  203903:	e8 e8 4b 00 00       	callq  2084f0 <_ZN43_$LT$u64$u20$as$u20$bit_field..BitField$GT$8get_bits17h1f3955de0bf3912cE>
  203908:	48 89 44 24 30       	mov    %rax,0x30(%rsp)
  20390d:	48 8b 4c 24 30       	mov    0x30(%rsp),%rcx
  203912:	48 8b b4 24 d8 00 00 	mov    0xd8(%rsp),%rsi
  203919:	00 
  20391a:	48 8b 94 24 e0 00 00 	mov    0xe0(%rsp),%rdx
  203921:	00 
  203922:	48 8d bc 24 d0 00 00 	lea    0xd0(%rsp),%rdi
  203929:	00 
  20392a:	e8 e1 4d 00 00       	callq  208710 <_ZN43_$LT$u64$u20$as$u20$bit_field..BitField$GT$8set_bits17h7c6c0ba821b4456cE>

        log::debug!("TSS descriptor high=0x{:x}, low=0x{:x}", high, low);
  20392f:	48 c7 84 24 f8 00 00 	movq   $0x4,0xf8(%rsp)
  203936:	00 04 00 00 00 
  20393b:	48 8d bc 24 f8 00 00 	lea    0xf8(%rsp),%rdi
  203942:	00 
  203943:	48 8d 35 ee c9 ff ff 	lea    -0x3612(%rip),%rsi        # 200338 <str.0+0x38>
  20394a:	e8 f1 12 00 00       	callq  204c40 <_ZN76_$LT$log..Level$u20$as$u20$core..cmp..PartialOrd$LT$log..LevelFilter$GT$$GT$2le17h378b9a848e58149aE>
  20394f:	88 44 24 2f          	mov    %al,0x2f(%rsp)
  203953:	8a 44 24 2f          	mov    0x2f(%rsp),%al
  203957:	a8 01                	test   $0x1,%al
  203959:	75 0c                	jne    203967 <_ZN9r3_kernel3cpu8segments19TaskStateDescriptor3new17he136b44a4bb59dc2E+0x247>
  20395b:	eb 00                	jmp    20395d <_ZN9r3_kernel3cpu8segments19TaskStateDescriptor3new17he136b44a4bb59dc2E+0x23d>
  20395d:	c6 84 24 07 01 00 00 	movb   $0x0,0x107(%rsp)
  203964:	00 
  203965:	eb 5a                	jmp    2039c1 <_ZN9r3_kernel3cpu8segments19TaskStateDescriptor3new17he136b44a4bb59dc2E+0x2a1>
    // this transmute is sound if and only if `MAX_LOG_LEVEL_FILTER`
    // is set to a usize that is a valid discriminant for `LevelFilter`.
    // Since `MAX_LOG_LEVEL_FILTER` is private, the only time it's set
    // is by `set_max_level` above, i.e. by casting a `LevelFilter` to `usize`.
    // So any usize stored in `MAX_LOG_LEVEL_FILTER` is a valid discriminant.
    unsafe { mem::transmute(MAX_LOG_LEVEL_FILTER.load(Ordering::Relaxed)) }
  203967:	c6 84 24 8f 01 00 00 	movb   $0x0,0x18f(%rsp)
  20396e:	00 
  20396f:	48 8b 3d 72 01 01 00 	mov    0x10172(%rip),%rdi        # 213ae8 <anon.3bd2d5117e953c23f99d470f07b1e03a.2.llvm.2324975589069524467+0x60>
  203976:	0f b6 b4 24 8f 01 00 	movzbl 0x18f(%rsp),%esi
  20397d:	00 
  20397e:	e8 4d 6f 00 00       	callq  20a8d0 <_ZN4core4sync6atomic11AtomicUsize4load17habd50e9a578bb37bE>
  203983:	48 89 84 24 90 01 00 	mov    %rax,0x190(%rsp)
  20398a:	00 
  20398b:	48 8b 84 24 90 01 00 	mov    0x190(%rsp),%rax
  203992:	00 
  203993:	48 89 84 24 08 01 00 	mov    %rax,0x108(%rsp)
  20399a:	00 
  20399b:	48 8d bc 24 f8 00 00 	lea    0xf8(%rsp),%rdi
  2039a2:	00 
  2039a3:	48 8d b4 24 08 01 00 	lea    0x108(%rsp),%rsi
  2039aa:	00 
  2039ab:	e8 90 12 00 00       	callq  204c40 <_ZN76_$LT$log..Level$u20$as$u20$core..cmp..PartialOrd$LT$log..LevelFilter$GT$$GT$2le17h378b9a848e58149aE>
  2039b0:	88 44 24 2e          	mov    %al,0x2e(%rsp)
  2039b4:	8a 44 24 2e          	mov    0x2e(%rsp),%al
  2039b8:	24 01                	and    $0x1,%al
  2039ba:	88 84 24 07 01 00 00 	mov    %al,0x107(%rsp)
  2039c1:	f6 84 24 07 01 00 00 	testb  $0x1,0x107(%rsp)
  2039c8:	01 
  2039c9:	75 29                	jne    2039f4 <_ZN9r3_kernel3cpu8segments19TaskStateDescriptor3new17he136b44a4bb59dc2E+0x2d4>

        TaskStateDescriptor { high, low }
  2039cb:	48 8b 8c 24 d0 00 00 	mov    0xd0(%rsp),%rcx
  2039d2:	00 
  2039d3:	48 8b 44 24 60       	mov    0x60(%rsp),%rax
  2039d8:	48 89 4c 24 50       	mov    %rcx,0x50(%rsp)
  2039dd:	48 89 44 24 58       	mov    %rax,0x58(%rsp)
    }
  2039e2:	48 8b 44 24 50       	mov    0x50(%rsp),%rax
  2039e7:	48 8b 54 24 58       	mov    0x58(%rsp),%rdx
  2039ec:	48 81 c4 98 01 00 00 	add    $0x198,%rsp
  2039f3:	c3                   	retq   
        log::debug!("TSS descriptor high=0x{:x}, low=0x{:x}", high, low);
  2039f4:	48 8d 84 24 d0 00 00 	lea    0xd0(%rsp),%rax
  2039fb:	00 
  2039fc:	48 89 84 24 60 01 00 	mov    %rax,0x160(%rsp)
  203a03:	00 
  203a04:	48 8d 44 24 60       	lea    0x60(%rsp),%rax
  203a09:	48 89 84 24 68 01 00 	mov    %rax,0x168(%rsp)
  203a10:	00 
  203a11:	48 8b bc 24 60 01 00 	mov    0x160(%rsp),%rdi
  203a18:	00 
  203a19:	48 89 bc 24 78 01 00 	mov    %rdi,0x178(%rsp)
  203a20:	00 
  203a21:	48 8b 84 24 68 01 00 	mov    0x168(%rsp),%rax
  203a28:	00 
  203a29:	48 89 44 24 10       	mov    %rax,0x10(%rsp)
  203a2e:	48 89 84 24 80 01 00 	mov    %rax,0x180(%rsp)
  203a35:	00 
  203a36:	48 8b 35 b3 00 01 00 	mov    0x100b3(%rip),%rsi        # 213af0 <anon.3bd2d5117e953c23f99d470f07b1e03a.2.llvm.2324975589069524467+0x68>
  203a3d:	e8 3e 74 00 00       	callq  20ae80 <_ZN4core3fmt10ArgumentV13new17hed39039da1d20c39E>
  203a42:	48 89 44 24 18       	mov    %rax,0x18(%rsp)
  203a47:	48 89 54 24 20       	mov    %rdx,0x20(%rsp)
  203a4c:	48 8b 7c 24 10       	mov    0x10(%rsp),%rdi
  203a51:	48 8b 35 98 00 01 00 	mov    0x10098(%rip),%rsi        # 213af0 <anon.3bd2d5117e953c23f99d470f07b1e03a.2.llvm.2324975589069524467+0x68>
  203a58:	e8 23 74 00 00       	callq  20ae80 <_ZN4core3fmt10ArgumentV13new17hed39039da1d20c39E>
  203a5d:	48 89 04 24          	mov    %rax,(%rsp)
  203a61:	48 89 54 24 08       	mov    %rdx,0x8(%rsp)
  203a66:	48 8b 44 24 08       	mov    0x8(%rsp),%rax
  203a6b:	48 8b 0c 24          	mov    (%rsp),%rcx
  203a6f:	48 8b 54 24 20       	mov    0x20(%rsp),%rdx
  203a74:	48 8b 74 24 18       	mov    0x18(%rsp),%rsi
  203a79:	48 89 b4 24 40 01 00 	mov    %rsi,0x140(%rsp)
  203a80:	00 
  203a81:	48 89 94 24 48 01 00 	mov    %rdx,0x148(%rsp)
  203a88:	00 
  203a89:	48 89 8c 24 50 01 00 	mov    %rcx,0x150(%rsp)
  203a90:	00 
  203a91:	48 89 84 24 58 01 00 	mov    %rax,0x158(%rsp)
  203a98:	00 
  203a99:	48 8d 8c 24 40 01 00 	lea    0x140(%rsp),%rcx
  203aa0:	00 
  203aa1:	48 8d bc 24 10 01 00 	lea    0x110(%rsp),%rdi
  203aa8:	00 
  203aa9:	48 8d 35 a8 ee 00 00 	lea    0xeea8(%rip),%rsi        # 212958 <memset+0x1078>
  203ab0:	41 b8 02 00 00 00    	mov    $0x2,%r8d
  203ab6:	4c 89 c2             	mov    %r8,%rdx
  203ab9:	e8 52 0c 00 00       	callq  204710 <_ZN4core3fmt9Arguments6new_v117h9654568d76c8366eE>
  203abe:	48 8b b4 24 f8 00 00 	mov    0xf8(%rsp),%rsi
  203ac5:	00 
  203ac6:	48 8d bc 24 10 01 00 	lea    0x110(%rsp),%rdi
  203acd:	00 
  203ace:	48 8d 15 a3 ee 00 00 	lea    0xeea3(%rip),%rdx        # 212978 <memset+0x1098>
  203ad5:	e8 56 8c 00 00       	callq  20c730 <_ZN3log17__private_api_log17ha4b636ffcba62793E>
  203ada:	e9 ec fe ff ff       	jmpq   2039cb <_ZN9r3_kernel3cpu8segments19TaskStateDescriptor3new17he136b44a4bb59dc2E+0x2ab>
  203adf:	cc                   	int3   

0000000000203ae0 <_ZN9r3_kernel3cpu8segments20GlobalDescritorTable5empty17hc6ad18ad40b39fccE>:
    // contains the current index to be filled. [0 - first entry]
    pub filled: usize,
}

impl GlobalDescritorTable {
    pub fn empty() -> GlobalDescritorTable {
  203ae0:	48 83 ec 58          	sub    $0x58,%rsp
  203ae4:	48 89 7c 24 08       	mov    %rdi,0x8(%rsp)
  203ae9:	48 89 7c 24 10       	mov    %rdi,0x10(%rsp)
        GlobalDescritorTable {
            entries: [0; 8],
  203aee:	48 8d 7c 24 18       	lea    0x18(%rsp),%rdi
  203af3:	31 f6                	xor    %esi,%esi
  203af5:	ba 40 00 00 00       	mov    $0x40,%edx
  203afa:	e8 e1 dd 00 00       	callq  2118e0 <memset>
  203aff:	48 8b 7c 24 08       	mov    0x8(%rsp),%rdi
        GlobalDescritorTable {
  203b04:	48 8d 74 24 18       	lea    0x18(%rsp),%rsi
  203b09:	ba 40 00 00 00       	mov    $0x40,%edx
  203b0e:	e8 ad dd 00 00       	callq  2118c0 <memcpy>
  203b13:	48 8b 7c 24 08       	mov    0x8(%rsp),%rdi
  203b18:	48 8b 44 24 10       	mov    0x10(%rsp),%rax
  203b1d:	48 c7 47 40 01 00 00 	movq   $0x1,0x40(%rdi)
  203b24:	00 
            filled: 1,
        }
    }
  203b25:	48 83 c4 58          	add    $0x58,%rsp
  203b29:	c3                   	retq   
  203b2a:	cc                   	int3   
  203b2b:	cc                   	int3   
  203b2c:	cc                   	int3   
  203b2d:	cc                   	int3   
  203b2e:	cc                   	int3   
  203b2f:	cc                   	int3   

0000000000203b30 <_ZN9r3_kernel3cpu8segments20GlobalDescritorTable10as_pointer17hbe358bc20744f52cE>:
        }

        Ok(GlobalDescritorTable { entries, filled })
    }

    pub fn as_pointer(&self) -> GDTPointer {
  203b30:	48 83 ec 48          	sub    $0x48,%rsp
  203b34:	48 89 7c 24 20       	mov    %rdi,0x20(%rsp)
  203b39:	48 89 7c 24 40       	mov    %rdi,0x40(%rsp)
        GDTPointer {
            base_addr: self.entries.as_ptr() as u64,
  203b3e:	be 08 00 00 00       	mov    $0x8,%esi
  203b43:	e8 f8 80 00 00       	callq  20bc40 <_ZN4core5slice29_$LT$impl$u20$$u5b$T$u5d$$GT$6as_ptr17h5cc1f53bc66c4beaE>
  203b48:	48 89 44 24 28       	mov    %rax,0x28(%rsp)
  203b4d:	48 8b 44 24 20       	mov    0x20(%rsp),%rax
            size_limit: (self.filled * mem::size_of::<u64>() - 1) as u16,
  203b52:	48 8b 40 40          	mov    0x40(%rax),%rax
  203b56:	48 89 44 24 18       	mov    %rax,0x18(%rsp)
  203b5b:	48 8b 44 24 18       	mov    0x18(%rsp),%rax
  203b60:	b9 08 00 00 00       	mov    $0x8,%ecx
  203b65:	48 f7 e1             	mul    %rcx
  203b68:	48 89 44 24 10       	mov    %rax,0x10(%rsp)
  203b6d:	0f 90 c0             	seto   %al
  203b70:	a8 01                	test   $0x1,%al
  203b72:	75 17                	jne    203b8b <_ZN9r3_kernel3cpu8segments20GlobalDescritorTable10as_pointer17hbe358bc20744f52cE+0x5b>
  203b74:	48 8b 44 24 10       	mov    0x10(%rsp),%rax
  203b79:	48 83 e8 01          	sub    $0x1,%rax
  203b7d:	48 89 44 24 08       	mov    %rax,0x8(%rsp)
  203b82:	0f 92 c0             	setb   %al
  203b85:	a8 01                	test   $0x1,%al
  203b87:	75 41                	jne    203bca <_ZN9r3_kernel3cpu8segments20GlobalDescritorTable10as_pointer17hbe358bc20744f52cE+0x9a>
  203b89:	eb 1a                	jmp    203ba5 <_ZN9r3_kernel3cpu8segments20GlobalDescritorTable10as_pointer17hbe358bc20744f52cE+0x75>
  203b8b:	48 8d 3d ee c7 ff ff 	lea    -0x3812(%rip),%rdi        # 200380 <str.1>
  203b92:	48 8d 15 17 ee 00 00 	lea    0xee17(%rip),%rdx        # 2129b0 <memset+0x10d0>
  203b99:	be 21 00 00 00       	mov    $0x21,%esi
  203b9e:	e8 ed b2 00 00       	callq  20ee90 <_ZN4core9panicking5panic17hb5e1b99c05020429E>
  203ba3:	0f 0b                	ud2    
  203ba5:	48 8b 44 24 28       	mov    0x28(%rsp),%rax
  203baa:	48 8b 4c 24 08       	mov    0x8(%rsp),%rcx
        GDTPointer {
  203baf:	66 89 4c 24 30       	mov    %cx,0x30(%rsp)
  203bb4:	48 89 44 24 32       	mov    %rax,0x32(%rsp)
        }
    }
  203bb9:	0f b7 44 24 38       	movzwl 0x38(%rsp),%eax
  203bbe:	89 c2                	mov    %eax,%edx
  203bc0:	48 8b 44 24 30       	mov    0x30(%rsp),%rax
  203bc5:	48 83 c4 48          	add    $0x48,%rsp
  203bc9:	c3                   	retq   
            size_limit: (self.filled * mem::size_of::<u64>() - 1) as u16,
  203bca:	48 8d 3d 2f c7 ff ff 	lea    -0x38d1(%rip),%rdi        # 200300 <str.0>
  203bd1:	48 8d 15 f0 ed 00 00 	lea    0xedf0(%rip),%rdx        # 2129c8 <memset+0x10e8>
  203bd8:	be 21 00 00 00       	mov    $0x21,%esi
  203bdd:	e8 ae b2 00 00       	callq  20ee90 <_ZN4core9panicking5panic17hb5e1b99c05020429E>
  203be2:	0f 0b                	ud2    
  203be4:	cc                   	int3   
  203be5:	cc                   	int3   
  203be6:	cc                   	int3   
  203be7:	cc                   	int3   
  203be8:	cc                   	int3   
  203be9:	cc                   	int3   
  203bea:	cc                   	int3   
  203beb:	cc                   	int3   
  203bec:	cc                   	int3   
  203bed:	cc                   	int3   
  203bee:	cc                   	int3   
  203bef:	cc                   	int3   

0000000000203bf0 <_ZN9r3_kernel3cpu8segments20GlobalDescritorTable13load_into_cpu17h6757b776799da27dE>:

    pub fn load_into_cpu(&'static self) {
  203bf0:	48 83 ec 28          	sub    $0x28,%rsp
  203bf4:	48 89 7c 24 10       	mov    %rdi,0x10(%rsp)
        let gdt_pointer = self.as_pointer();
  203bf9:	e8 32 ff ff ff       	callq  203b30 <_ZN9r3_kernel3cpu8segments20GlobalDescritorTable10as_pointer17hbe358bc20744f52cE>
  203bfe:	48 89 44 24 18       	mov    %rax,0x18(%rsp)
  203c03:	66 89 d0             	mov    %dx,%ax
  203c06:	66 89 44 24 20       	mov    %ax,0x20(%rsp)
  203c0b:	48 8b 44 24 18       	mov    0x18(%rsp),%rax
  203c10:	48 89 04 24          	mov    %rax,(%rsp)
  203c14:	66 8b 44 24 20       	mov    0x20(%rsp),%ax
  203c19:	66 89 44 24 08       	mov    %ax,0x8(%rsp)
        lgdt(&gdt_pointer);
  203c1e:	48 89 e7             	mov    %rsp,%rdi
  203c21:	e8 3a f8 ff ff       	callq  203460 <_ZN9r3_kernel3cpu8segments4lgdt17ha22c06219a02a0cfE>
    }
  203c26:	48 83 c4 28          	add    $0x28,%rsp
  203c2a:	c3                   	retq   
  203c2b:	cc                   	int3   
  203c2c:	cc                   	int3   
  203c2d:	cc                   	int3   
  203c2e:	cc                   	int3   
  203c2f:	cc                   	int3   

0000000000203c30 <_ZN9r3_kernel3cpu8segments20GlobalDescritorTable17get_user_seg_ring17h59cb55dc101d0f9bE>:

    #[inline]
    fn get_user_seg_ring(entry: u64) -> PrivilegeLevel {
  203c30:	48 83 ec 10          	sub    $0x10,%rsp
  203c34:	48 89 7c 24 08       	mov    %rdi,0x8(%rsp)
        // check if it is DPL3:
        if entry & RING_3_DPL_FLAG == RING_3_DPL_FLAG {
  203c39:	48 b8 00 00 00 00 00 	movabs $0x600000000000,%rax
  203c40:	60 00 00 
  203c43:	48 21 c7             	and    %rax,%rdi
  203c46:	48 b8 00 00 00 00 00 	movabs $0x600000000000,%rax
  203c4d:	60 00 00 
  203c50:	48 39 c7             	cmp    %rax,%rdi
  203c53:	74 07                	je     203c5c <_ZN9r3_kernel3cpu8segments20GlobalDescritorTable17get_user_seg_ring17h59cb55dc101d0f9bE+0x2c>
            return PrivilegeLevel::Ring3;
        }

        PrivilegeLevel::Ring0
  203c55:	c6 44 24 07 00       	movb   $0x0,0x7(%rsp)
    }
  203c5a:	eb 05                	jmp    203c61 <_ZN9r3_kernel3cpu8segments20GlobalDescritorTable17get_user_seg_ring17h59cb55dc101d0f9bE+0x31>
            return PrivilegeLevel::Ring3;
  203c5c:	c6 44 24 07 03       	movb   $0x3,0x7(%rsp)
    }
  203c61:	8a 44 24 07          	mov    0x7(%rsp),%al
  203c65:	48 83 c4 10          	add    $0x10,%rsp
  203c69:	c3                   	retq   
  203c6a:	cc                   	int3   
  203c6b:	cc                   	int3   
  203c6c:	cc                   	int3   
  203c6d:	cc                   	int3   
  203c6e:	cc                   	int3   
  203c6f:	cc                   	int3   

0000000000203c70 <_ZN9r3_kernel3cpu8segments20GlobalDescritorTable16set_user_segment17h676ab5e24a711b49E>:

    pub fn set_user_segment(&mut self, entry: u64) -> Result<SegmentSelector, &'static str> {
  203c70:	48 83 ec 68          	sub    $0x68,%rsp
  203c74:	48 89 54 24 28       	mov    %rdx,0x28(%rsp)
  203c79:	48 89 74 24 30       	mov    %rsi,0x30(%rsp)
  203c7e:	48 89 7c 24 38       	mov    %rdi,0x38(%rsp)
  203c83:	48 89 7c 24 40       	mov    %rdi,0x40(%rsp)
  203c88:	48 89 74 24 48       	mov    %rsi,0x48(%rsp)
  203c8d:	48 89 54 24 50       	mov    %rdx,0x50(%rsp)
        if self.filled >= MAX_GDT_ENTRIES {
  203c92:	48 83 7e 40 08       	cmpq   $0x8,0x40(%rsi)
  203c97:	73 1b                	jae    203cb4 <_ZN9r3_kernel3cpu8segments20GlobalDescritorTable16set_user_segment17h676ab5e24a711b49E+0x44>
  203c99:	48 8b 44 24 30       	mov    0x30(%rsp),%rax
            return Err("GDT is already full, can't add new entry.");
        }

        // add a new entry:
        self.entries[self.filled] = entry;
  203c9e:	48 8b 40 40          	mov    0x40(%rax),%rax
  203ca2:	48 89 44 24 20       	mov    %rax,0x20(%rsp)
  203ca7:	48 83 f8 08          	cmp    $0x8,%rax
  203cab:	0f 92 c0             	setb   %al
  203cae:	a8 01                	test   $0x1,%al
  203cb0:	75 29                	jne    203cdb <_ZN9r3_kernel3cpu8segments20GlobalDescritorTable16set_user_segment17h676ab5e24a711b49E+0x6b>
  203cb2:	eb 5e                	jmp    203d12 <_ZN9r3_kernel3cpu8segments20GlobalDescritorTable16set_user_segment17h676ab5e24a711b49E+0xa2>
  203cb4:	48 8b 44 24 38       	mov    0x38(%rsp),%rax
            return Err("GDT is already full, can't add new entry.");
  203cb9:	48 8d 0d e1 c6 ff ff 	lea    -0x391f(%rip),%rcx        # 2003a1 <str.1+0x21>
  203cc0:	48 89 48 08          	mov    %rcx,0x8(%rax)
  203cc4:	48 c7 40 10 29 00 00 	movq   $0x29,0x10(%rax)
  203ccb:	00 
  203ccc:	66 c7 00 01 00       	movw   $0x1,(%rax)
  203cd1:	48 8b 44 24 40       	mov    0x40(%rsp),%rax
        let current_index = self.filled;
        self.filled += 1;

        let ring = GlobalDescritorTable::get_user_seg_ring(entry);
        Ok(SegmentSelector::new(current_index as u16, ring))
    }
  203cd6:	48 83 c4 68          	add    $0x68,%rsp
  203cda:	c3                   	retq   
  203cdb:	48 8b 44 24 30       	mov    0x30(%rsp),%rax
  203ce0:	48 8b 4c 24 20       	mov    0x20(%rsp),%rcx
  203ce5:	48 8b 54 24 28       	mov    0x28(%rsp),%rdx
        self.entries[self.filled] = entry;
  203cea:	48 89 14 c8          	mov    %rdx,(%rax,%rcx,8)
        let current_index = self.filled;
  203cee:	48 8b 48 40          	mov    0x40(%rax),%rcx
  203cf2:	48 89 4c 24 10       	mov    %rcx,0x10(%rsp)
  203cf7:	48 89 4c 24 58       	mov    %rcx,0x58(%rsp)
        self.filled += 1;
  203cfc:	48 8b 40 40          	mov    0x40(%rax),%rax
  203d00:	48 83 c0 01          	add    $0x1,%rax
  203d04:	48 89 44 24 18       	mov    %rax,0x18(%rsp)
  203d09:	0f 92 c0             	setb   %al
  203d0c:	a8 01                	test   $0x1,%al
  203d0e:	75 3c                	jne    203d4c <_ZN9r3_kernel3cpu8segments20GlobalDescritorTable16set_user_segment17h676ab5e24a711b49E+0xdc>
  203d10:	eb 18                	jmp    203d2a <_ZN9r3_kernel3cpu8segments20GlobalDescritorTable16set_user_segment17h676ab5e24a711b49E+0xba>
  203d12:	48 8b 7c 24 20       	mov    0x20(%rsp),%rdi
        self.entries[self.filled] = entry;
  203d17:	48 8d 15 c2 ec 00 00 	lea    0xecc2(%rip),%rdx        # 2129e0 <memset+0x1100>
  203d1e:	be 08 00 00 00       	mov    $0x8,%esi
  203d23:	e8 b8 b1 00 00       	callq  20eee0 <_ZN4core9panicking18panic_bounds_check17hf79d68bd70fd5de9E>
  203d28:	0f 0b                	ud2    
  203d2a:	48 8b 7c 24 28       	mov    0x28(%rsp),%rdi
  203d2f:	48 8b 44 24 30       	mov    0x30(%rsp),%rax
  203d34:	48 8b 4c 24 18       	mov    0x18(%rsp),%rcx
        self.filled += 1;
  203d39:	48 89 48 40          	mov    %rcx,0x40(%rax)
        let ring = GlobalDescritorTable::get_user_seg_ring(entry);
  203d3d:	e8 ee fe ff ff       	callq  203c30 <_ZN9r3_kernel3cpu8segments20GlobalDescritorTable17get_user_seg_ring17h59cb55dc101d0f9bE>
  203d42:	88 44 24 0f          	mov    %al,0xf(%rsp)
  203d46:	88 44 24 67          	mov    %al,0x67(%rsp)
  203d4a:	eb 1a                	jmp    203d66 <_ZN9r3_kernel3cpu8segments20GlobalDescritorTable16set_user_segment17h676ab5e24a711b49E+0xf6>
        self.filled += 1;
  203d4c:	48 8d 3d 7d c6 ff ff 	lea    -0x3983(%rip),%rdi        # 2003d0 <str.2>
  203d53:	48 8d 15 9e ec 00 00 	lea    0xec9e(%rip),%rdx        # 2129f8 <memset+0x1118>
  203d5a:	be 1c 00 00 00       	mov    $0x1c,%esi
  203d5f:	e8 2c b1 00 00       	callq  20ee90 <_ZN4core9panicking5panic17hb5e1b99c05020429E>
  203d64:	0f 0b                	ud2    
  203d66:	8a 44 24 0f          	mov    0xf(%rsp),%al
  203d6a:	48 8b 4c 24 10       	mov    0x10(%rsp),%rcx
        Ok(SegmentSelector::new(current_index as u16, ring))
  203d6f:	0f b7 f9             	movzwl %cx,%edi
  203d72:	0f b6 f0             	movzbl %al,%esi
  203d75:	e8 46 f7 ff ff       	callq  2034c0 <_ZN9r3_kernel3cpu8segments15SegmentSelector3new17h1b50231228efbbc3E>
  203d7a:	66 89 44 24 0c       	mov    %ax,0xc(%rsp)
  203d7f:	48 8b 44 24 38       	mov    0x38(%rsp),%rax
  203d84:	66 8b 4c 24 0c       	mov    0xc(%rsp),%cx
  203d89:	66 89 48 02          	mov    %cx,0x2(%rax)
  203d8d:	66 c7 00 00 00       	movw   $0x0,(%rax)
    }
  203d92:	e9 3a ff ff ff       	jmpq   203cd1 <_ZN9r3_kernel3cpu8segments20GlobalDescritorTable16set_user_segment17h676ab5e24a711b49E+0x61>
  203d97:	cc                   	int3   
  203d98:	cc                   	int3   
  203d99:	cc                   	int3   
  203d9a:	cc                   	int3   
  203d9b:	cc                   	int3   
  203d9c:	cc                   	int3   
  203d9d:	cc                   	int3   
  203d9e:	cc                   	int3   
  203d9f:	cc                   	int3   

0000000000203da0 <_ZN9r3_kernel3cpu8segments20GlobalDescritorTable18set_system_segment17hf006cca3ae9617c2E>:

    pub fn set_system_segment(
  203da0:	48 81 ec 88 00 00 00 	sub    $0x88,%rsp
  203da7:	48 89 4c 24 38       	mov    %rcx,0x38(%rsp)
  203dac:	48 89 54 24 40       	mov    %rdx,0x40(%rsp)
  203db1:	48 89 74 24 48       	mov    %rsi,0x48(%rsp)
  203db6:	48 89 7c 24 50       	mov    %rdi,0x50(%rsp)
  203dbb:	48 89 7c 24 58       	mov    %rdi,0x58(%rsp)
  203dc0:	48 89 74 24 68       	mov    %rsi,0x68(%rsp)
  203dc5:	48 89 54 24 70       	mov    %rdx,0x70(%rsp)
  203dca:	48 89 4c 24 78       	mov    %rcx,0x78(%rsp)
        &mut self,
        high: u64,
        low: u64,
    ) -> Result<SegmentSelector, &'static str> {
        if self.filled >= MAX_GDT_ENTRIES {
  203dcf:	48 83 7e 40 08       	cmpq   $0x8,0x40(%rsi)
  203dd4:	73 2c                	jae    203e02 <_ZN9r3_kernel3cpu8segments20GlobalDescritorTable18set_system_segment17hf006cca3ae9617c2E+0x62>
  203dd6:	48 8b 44 24 48       	mov    0x48(%rsp),%rax
            return Err("GDT is already full, can't add new entry.");
        }

        // add a low and high entries:
        let current_index = self.filled;
  203ddb:	48 8b 48 40          	mov    0x40(%rax),%rcx
  203ddf:	48 89 4c 24 28       	mov    %rcx,0x28(%rsp)
  203de4:	48 89 8c 24 80 00 00 	mov    %rcx,0x80(%rsp)
  203deb:	00 
        self.entries[self.filled] = low;
  203dec:	48 8b 40 40          	mov    0x40(%rax),%rax
  203df0:	48 89 44 24 30       	mov    %rax,0x30(%rsp)
  203df5:	48 83 f8 08          	cmp    $0x8,%rax
  203df9:	0f 92 c0             	setb   %al
  203dfc:	a8 01                	test   $0x1,%al
  203dfe:	75 2c                	jne    203e2c <_ZN9r3_kernel3cpu8segments20GlobalDescritorTable18set_system_segment17hf006cca3ae9617c2E+0x8c>
  203e00:	eb 53                	jmp    203e55 <_ZN9r3_kernel3cpu8segments20GlobalDescritorTable18set_system_segment17hf006cca3ae9617c2E+0xb5>
  203e02:	48 8b 44 24 50       	mov    0x50(%rsp),%rax
            return Err("GDT is already full, can't add new entry.");
  203e07:	48 8d 0d 93 c5 ff ff 	lea    -0x3a6d(%rip),%rcx        # 2003a1 <str.1+0x21>
  203e0e:	48 89 48 08          	mov    %rcx,0x8(%rax)
  203e12:	48 c7 40 10 29 00 00 	movq   $0x29,0x10(%rax)
  203e19:	00 
  203e1a:	66 c7 00 01 00       	movw   $0x1,(%rax)
  203e1f:	48 8b 44 24 58       	mov    0x58(%rsp),%rax

        Ok(SegmentSelector::new(
            current_index as u16,
            PrivilegeLevel::Ring0,
        ))
    }
  203e24:	48 81 c4 88 00 00 00 	add    $0x88,%rsp
  203e2b:	c3                   	retq   
  203e2c:	48 8b 44 24 48       	mov    0x48(%rsp),%rax
  203e31:	48 8b 4c 24 30       	mov    0x30(%rsp),%rcx
  203e36:	48 8b 54 24 38       	mov    0x38(%rsp),%rdx
        self.entries[self.filled] = low;
  203e3b:	48 89 14 c8          	mov    %rdx,(%rax,%rcx,8)
        self.filled += 1;
  203e3f:	48 8b 40 40          	mov    0x40(%rax),%rax
  203e43:	48 83 c0 01          	add    $0x1,%rax
  203e47:	48 89 44 24 20       	mov    %rax,0x20(%rsp)
  203e4c:	0f 92 c0             	setb   %al
  203e4f:	a8 01                	test   $0x1,%al
  203e51:	75 3e                	jne    203e91 <_ZN9r3_kernel3cpu8segments20GlobalDescritorTable18set_system_segment17hf006cca3ae9617c2E+0xf1>
  203e53:	eb 18                	jmp    203e6d <_ZN9r3_kernel3cpu8segments20GlobalDescritorTable18set_system_segment17hf006cca3ae9617c2E+0xcd>
  203e55:	48 8b 7c 24 30       	mov    0x30(%rsp),%rdi
        self.entries[self.filled] = low;
  203e5a:	48 8d 15 af eb 00 00 	lea    0xebaf(%rip),%rdx        # 212a10 <memset+0x1130>
  203e61:	be 08 00 00 00       	mov    $0x8,%esi
  203e66:	e8 75 b0 00 00       	callq  20eee0 <_ZN4core9panicking18panic_bounds_check17hf79d68bd70fd5de9E>
  203e6b:	0f 0b                	ud2    
  203e6d:	48 8b 44 24 48       	mov    0x48(%rsp),%rax
  203e72:	48 8b 4c 24 20       	mov    0x20(%rsp),%rcx
        self.filled += 1;
  203e77:	48 89 48 40          	mov    %rcx,0x40(%rax)
        self.entries[self.filled] = high;
  203e7b:	48 8b 40 40          	mov    0x40(%rax),%rax
  203e7f:	48 89 44 24 18       	mov    %rax,0x18(%rsp)
  203e84:	48 83 f8 08          	cmp    $0x8,%rax
  203e88:	0f 92 c0             	setb   %al
  203e8b:	a8 01                	test   $0x1,%al
  203e8d:	75 1c                	jne    203eab <_ZN9r3_kernel3cpu8segments20GlobalDescritorTable18set_system_segment17hf006cca3ae9617c2E+0x10b>
  203e8f:	eb 43                	jmp    203ed4 <_ZN9r3_kernel3cpu8segments20GlobalDescritorTable18set_system_segment17hf006cca3ae9617c2E+0x134>
        self.filled += 1;
  203e91:	48 8d 3d 38 c5 ff ff 	lea    -0x3ac8(%rip),%rdi        # 2003d0 <str.2>
  203e98:	48 8d 15 89 eb 00 00 	lea    0xeb89(%rip),%rdx        # 212a28 <memset+0x1148>
  203e9f:	be 1c 00 00 00       	mov    $0x1c,%esi
  203ea4:	e8 e7 af 00 00       	callq  20ee90 <_ZN4core9panicking5panic17hb5e1b99c05020429E>
  203ea9:	0f 0b                	ud2    
  203eab:	48 8b 44 24 48       	mov    0x48(%rsp),%rax
  203eb0:	48 8b 4c 24 18       	mov    0x18(%rsp),%rcx
  203eb5:	48 8b 54 24 40       	mov    0x40(%rsp),%rdx
        self.entries[self.filled] = high;
  203eba:	48 89 14 c8          	mov    %rdx,(%rax,%rcx,8)
        self.filled += 1;
  203ebe:	48 8b 40 40          	mov    0x40(%rax),%rax
  203ec2:	48 83 c0 01          	add    $0x1,%rax
  203ec6:	48 89 44 24 10       	mov    %rax,0x10(%rsp)
  203ecb:	0f 92 c0             	setb   %al
  203ece:	a8 01                	test   $0x1,%al
  203ed0:	75 46                	jne    203f18 <_ZN9r3_kernel3cpu8segments20GlobalDescritorTable18set_system_segment17hf006cca3ae9617c2E+0x178>
  203ed2:	eb 18                	jmp    203eec <_ZN9r3_kernel3cpu8segments20GlobalDescritorTable18set_system_segment17hf006cca3ae9617c2E+0x14c>
  203ed4:	48 8b 7c 24 18       	mov    0x18(%rsp),%rdi
        self.entries[self.filled] = high;
  203ed9:	48 8d 15 60 eb 00 00 	lea    0xeb60(%rip),%rdx        # 212a40 <memset+0x1160>
  203ee0:	be 08 00 00 00       	mov    $0x8,%esi
  203ee5:	e8 f6 af 00 00       	callq  20eee0 <_ZN4core9panicking18panic_bounds_check17hf79d68bd70fd5de9E>
  203eea:	0f 0b                	ud2    
  203eec:	48 8b 44 24 28       	mov    0x28(%rsp),%rax
  203ef1:	48 8b 4c 24 48       	mov    0x48(%rsp),%rcx
  203ef6:	48 8b 54 24 10       	mov    0x10(%rsp),%rdx
        self.filled += 1;
  203efb:	48 89 51 40          	mov    %rdx,0x40(%rcx)
            PrivilegeLevel::Ring0,
  203eff:	c6 44 24 67 00       	movb   $0x0,0x67(%rsp)
        Ok(SegmentSelector::new(
  203f04:	0f b7 f8             	movzwl %ax,%edi
  203f07:	0f b6 74 24 67       	movzbl 0x67(%rsp),%esi
  203f0c:	e8 af f5 ff ff       	callq  2034c0 <_ZN9r3_kernel3cpu8segments15SegmentSelector3new17h1b50231228efbbc3E>
  203f11:	66 89 44 24 0e       	mov    %ax,0xe(%rsp)
  203f16:	eb 1a                	jmp    203f32 <_ZN9r3_kernel3cpu8segments20GlobalDescritorTable18set_system_segment17hf006cca3ae9617c2E+0x192>
        self.filled += 1;
  203f18:	48 8d 3d b1 c4 ff ff 	lea    -0x3b4f(%rip),%rdi        # 2003d0 <str.2>
  203f1f:	48 8d 15 32 eb 00 00 	lea    0xeb32(%rip),%rdx        # 212a58 <memset+0x1178>
  203f26:	be 1c 00 00 00       	mov    $0x1c,%esi
  203f2b:	e8 60 af 00 00       	callq  20ee90 <_ZN4core9panicking5panic17hb5e1b99c05020429E>
  203f30:	0f 0b                	ud2    
  203f32:	48 8b 44 24 50       	mov    0x50(%rsp),%rax
  203f37:	66 8b 4c 24 0e       	mov    0xe(%rsp),%cx
        Ok(SegmentSelector::new(
  203f3c:	66 89 48 02          	mov    %cx,0x2(%rax)
  203f40:	66 c7 00 00 00       	movw   $0x0,(%rax)
    }
  203f45:	e9 d5 fe ff ff       	jmpq   203e1f <_ZN9r3_kernel3cpu8segments20GlobalDescritorTable18set_system_segment17hf006cca3ae9617c2E+0x7f>
  203f4a:	cc                   	int3   
  203f4b:	cc                   	int3   
  203f4c:	cc                   	int3   
  203f4d:	cc                   	int3   
  203f4e:	cc                   	int3   
  203f4f:	cc                   	int3   

0000000000203f50 <_ZN9r3_kernel3cpu8segments17create_tss_for_bp17h6ae7bbdd9ddc0561E>:
}

const STACK_SIZE: usize = 4096 * 5;
static mut TSS_STACK: [u8; STACK_SIZE] = [0; STACK_SIZE];

pub fn create_tss_for_bp() -> TaskStateSegment {
  203f50:	48 83 ec 28          	sub    $0x28,%rsp
  203f54:	48 89 7c 24 10       	mov    %rdi,0x10(%rsp)
  203f59:	48 89 f8             	mov    %rdi,%rax
  203f5c:	48 89 44 24 18       	mov    %rax,0x18(%rsp)
    let mut tss = TaskStateSegment::empty();
  203f61:	e8 1a f7 ff ff       	callq  203680 <_ZN9r3_kernel3cpu8segments16TaskStateSegment5empty17he7cacc0fe7603b71E>
    tss.interrupt_stack_table[0] = {
        let k_stack_start = (unsafe { &TSS_STACK } as *const _) as u64;
  203f66:	48 8d 05 43 0c 01 00 	lea    0x10c43(%rip),%rax        # 214bb0 <_ZN9r3_kernel3cpu8segments9TSS_STACK17h6f9475d03845fad0E>
  203f6d:	48 89 44 24 20       	mov    %rax,0x20(%rsp)
        k_stack_start + STACK_SIZE as u64
  203f72:	48 8d 05 37 0c 01 00 	lea    0x10c37(%rip),%rax        # 214bb0 <_ZN9r3_kernel3cpu8segments9TSS_STACK17h6f9475d03845fad0E>
  203f79:	48 05 00 50 00 00    	add    $0x5000,%rax
  203f7f:	48 89 44 24 08       	mov    %rax,0x8(%rsp)
  203f84:	0f 92 c0             	setb   %al
  203f87:	a8 01                	test   $0x1,%al
  203f89:	75 18                	jne    203fa3 <_ZN9r3_kernel3cpu8segments17create_tss_for_bp17h6ae7bbdd9ddc0561E+0x53>
  203f8b:	48 8b 44 24 18       	mov    0x18(%rsp),%rax
  203f90:	48 8b 4c 24 10       	mov    0x10(%rsp),%rcx
  203f95:	48 8b 54 24 08       	mov    0x8(%rsp),%rdx
    tss.interrupt_stack_table[0] = {
  203f9a:	48 89 51 24          	mov    %rdx,0x24(%rcx)
    };

    tss
}
  203f9e:	48 83 c4 28          	add    $0x28,%rsp
  203fa2:	c3                   	retq   
        k_stack_start + STACK_SIZE as u64
  203fa3:	48 8d 3d 26 c4 ff ff 	lea    -0x3bda(%rip),%rdi        # 2003d0 <str.2>
  203faa:	48 8d 15 bf ea 00 00 	lea    0xeabf(%rip),%rdx        # 212a70 <memset+0x1190>
  203fb1:	be 1c 00 00 00       	mov    $0x1c,%esi
  203fb6:	e8 d5 ae 00 00       	callq  20ee90 <_ZN4core9panicking5panic17hb5e1b99c05020429E>
  203fbb:	0f 0b                	ud2    
  203fbd:	cc                   	int3   
  203fbe:	cc                   	int3   
  203fbf:	cc                   	int3   

0000000000203fc0 <_ZN9r3_kernel3cpu8segments17create_gdt_for_bp17h9836393e5564ee0dE>:
lazy_static! {
    static ref KERNEL_TSS: TaskStateSegment = create_tss_for_bp();
}

// create GDT for the base processor:
pub fn create_gdt_for_bp() -> GDTContainer {
  203fc0:	48 81 ec 88 01 00 00 	sub    $0x188,%rsp
  203fc7:	48 89 7c 24 28       	mov    %rdi,0x28(%rsp)
  203fcc:	48 89 7c 24 30       	mov    %rdi,0x30(%rsp)
    // create a GDT with empty segment
    let mut gdt = GlobalDescritorTable::empty();
  203fd1:	48 8d 7c 24 38       	lea    0x38(%rsp),%rdi
  203fd6:	e8 05 fb ff ff       	callq  203ae0 <_ZN9r3_kernel3cpu8segments20GlobalDescritorTable5empty17hc6ad18ad40b39fccE>
    let k_code_segment_res = gdt.set_user_segment(LinuxKernelSegments::KernelCode as u64);
  203fdb:	48 8d bc 24 80 00 00 	lea    0x80(%rsp),%rdi
  203fe2:	00 
  203fe3:	48 8d 74 24 38       	lea    0x38(%rsp),%rsi
  203fe8:	48 ba ff ff 00 00 00 	movabs $0xaf9b000000ffff,%rdx
  203fef:	9b af 00 
  203ff2:	e8 79 fc ff ff       	callq  203c70 <_ZN9r3_kernel3cpu8segments20GlobalDescritorTable16set_user_segment17h676ab5e24a711b49E>
    if k_code_segment_res.is_err() {
  203ff7:	48 8d bc 24 80 00 00 	lea    0x80(%rsp),%rdi
  203ffe:	00 
  203fff:	e8 4c 64 00 00       	callq  20a450 <_ZN4core6result19Result$LT$T$C$E$GT$6is_err17h5662645dcbcbfa8dE>
  204004:	88 44 24 27          	mov    %al,0x27(%rsp)
  204008:	8a 44 24 27          	mov    0x27(%rsp),%al
  20400c:	a8 01                	test   $0x1,%al
  20400e:	75 15                	jne    204025 <_ZN9r3_kernel3cpu8segments17create_gdt_for_bp17h9836393e5564ee0dE+0x65>
  204010:	eb 00                	jmp    204012 <_ZN9r3_kernel3cpu8segments17create_gdt_for_bp17h9836393e5564ee0dE+0x52>
        panic!("{}", k_code_segment_res.unwrap_err());
    }

    let tss_descriptor = TaskStateDescriptor::new(&KERNEL_TSS);
  204012:	48 8d 3d 5e c4 ff ff 	lea    -0x3ba2(%rip),%rdi        # 200477 <_ZN9r3_kernel3cpu8segments10KERNEL_TSS17hb62bd72f0f4df038E>
  204019:	e8 32 06 00 00       	callq  204650 <_ZN80_$LT$r3_kernel..cpu..segments..KERNEL_TSS$u20$as$u20$core..ops..deref..Deref$GT$5deref17hc306cbd0648060a6E>
  20401e:	48 89 44 24 18       	mov    %rax,0x18(%rsp)
  204023:	eb 6a                	jmp    20408f <_ZN9r3_kernel3cpu8segments17create_gdt_for_bp17h9836393e5564ee0dE+0xcf>
        panic!("{}", k_code_segment_res.unwrap_err());
  204025:	48 8b 84 24 90 00 00 	mov    0x90(%rsp),%rax
  20402c:	00 
  20402d:	48 89 84 24 b8 00 00 	mov    %rax,0xb8(%rsp)
  204034:	00 
  204035:	48 8b 84 24 80 00 00 	mov    0x80(%rsp),%rax
  20403c:	00 
  20403d:	48 8b 8c 24 88 00 00 	mov    0x88(%rsp),%rcx
  204044:	00 
  204045:	48 89 8c 24 b0 00 00 	mov    %rcx,0xb0(%rsp)
  20404c:	00 
  20404d:	48 89 84 24 a8 00 00 	mov    %rax,0xa8(%rsp)
  204054:	00 
  204055:	48 8d 35 2c ea 00 00 	lea    0xea2c(%rip),%rsi        # 212a88 <memset+0x11a8>
  20405c:	48 8d bc 24 a8 00 00 	lea    0xa8(%rsp),%rdi
  204063:	00 
  204064:	e8 47 63 00 00       	callq  20a3b0 <_ZN4core6result19Result$LT$T$C$E$GT$10unwrap_err17hec166bfe633491fcE>
  204069:	48 89 94 24 a0 00 00 	mov    %rdx,0xa0(%rsp)
  204070:	00 
  204071:	48 89 84 24 98 00 00 	mov    %rax,0x98(%rsp)
  204078:	00 
  204079:	48 8d 35 20 ea 00 00 	lea    0xea20(%rip),%rsi        # 212aa0 <memset+0x11c0>
  204080:	48 8d bc 24 98 00 00 	lea    0x98(%rsp),%rdi
  204087:	00 
  204088:	e8 a3 3e 00 00       	callq  207f30 <_ZN4core9panicking13panic_display17h436238fbdc089216E>
  20408d:	0f 0b                	ud2    
  20408f:	48 8b 7c 24 18       	mov    0x18(%rsp),%rdi
    let tss_descriptor = TaskStateDescriptor::new(&KERNEL_TSS);
  204094:	e8 87 f6 ff ff       	callq  203720 <_ZN9r3_kernel3cpu8segments19TaskStateDescriptor3new17he136b44a4bb59dc2E>
  204099:	48 89 44 24 08       	mov    %rax,0x8(%rsp)
  20409e:	48 89 54 24 10       	mov    %rdx,0x10(%rsp)
  2040a3:	48 89 84 24 78 01 00 	mov    %rax,0x178(%rsp)
  2040aa:	00 
  2040ab:	48 89 94 24 80 01 00 	mov    %rdx,0x180(%rsp)
  2040b2:	00 
  2040b3:	48 8b 4c 24 10       	mov    0x10(%rsp),%rcx
  2040b8:	48 8b 54 24 08       	mov    0x8(%rsp),%rdx

    let k_tss_segment_result = gdt.set_system_segment(tss_descriptor.high, tss_descriptor.low);
  2040bd:	48 8d bc 24 c0 00 00 	lea    0xc0(%rsp),%rdi
  2040c4:	00 
  2040c5:	48 8d 74 24 38       	lea    0x38(%rsp),%rsi
  2040ca:	e8 d1 fc ff ff       	callq  203da0 <_ZN9r3_kernel3cpu8segments20GlobalDescritorTable18set_system_segment17hf006cca3ae9617c2E>
    if k_tss_segment_result.is_err() {
  2040cf:	48 8d bc 24 c0 00 00 	lea    0xc0(%rsp),%rdi
  2040d6:	00 
  2040d7:	e8 74 63 00 00       	callq  20a450 <_ZN4core6result19Result$LT$T$C$E$GT$6is_err17h5662645dcbcbfa8dE>
  2040dc:	88 44 24 07          	mov    %al,0x7(%rsp)
  2040e0:	8a 44 24 07          	mov    0x7(%rsp),%al
  2040e4:	a8 01                	test   $0x1,%al
  2040e6:	75 64                	jne    20414c <_ZN9r3_kernel3cpu8segments17create_gdt_for_bp17h9836393e5564ee0dE+0x18c>
  2040e8:	eb 00                	jmp    2040ea <_ZN9r3_kernel3cpu8segments17create_gdt_for_bp17h9836393e5564ee0dE+0x12a>
        panic!("{}", k_tss_segment_result.unwrap_err());
    }

    GDTContainer {
        gdt_table: gdt,
  2040ea:	48 8d bc 24 00 01 00 	lea    0x100(%rsp),%rdi
  2040f1:	00 
  2040f2:	48 8d 74 24 38       	lea    0x38(%rsp),%rsi
  2040f7:	ba 48 00 00 00       	mov    $0x48,%edx
  2040fc:	e8 bf d7 00 00       	callq  2118c0 <memcpy>
        kernel_code_selector: k_code_segment_res.unwrap(),
  204101:	48 8b 84 24 80 00 00 	mov    0x80(%rsp),%rax
  204108:	00 
  204109:	48 89 84 24 48 01 00 	mov    %rax,0x148(%rsp)
  204110:	00 
  204111:	48 8b 84 24 88 00 00 	mov    0x88(%rsp),%rax
  204118:	00 
  204119:	48 89 84 24 50 01 00 	mov    %rax,0x150(%rsp)
  204120:	00 
  204121:	48 8b 84 24 90 00 00 	mov    0x90(%rsp),%rax
  204128:	00 
  204129:	48 89 84 24 58 01 00 	mov    %rax,0x158(%rsp)
  204130:	00 
  204131:	48 8d bc 24 48 01 00 	lea    0x148(%rsp),%rdi
  204138:	00 
  204139:	48 8d 35 a8 e9 00 00 	lea    0xe9a8(%rip),%rsi        # 212ae8 <memset+0x1208>
  204140:	e8 8b 63 00 00       	callq  20a4d0 <_ZN4core6result19Result$LT$T$C$E$GT$6unwrap17hdce16b6c8bde96cdE>
  204145:	66 89 44 24 04       	mov    %ax,0x4(%rsp)
  20414a:	eb 6a                	jmp    2041b6 <_ZN9r3_kernel3cpu8segments17create_gdt_for_bp17h9836393e5564ee0dE+0x1f6>
        panic!("{}", k_tss_segment_result.unwrap_err());
  20414c:	48 8b 84 24 d0 00 00 	mov    0xd0(%rsp),%rax
  204153:	00 
  204154:	48 89 84 24 f8 00 00 	mov    %rax,0xf8(%rsp)
  20415b:	00 
  20415c:	48 8b 84 24 c0 00 00 	mov    0xc0(%rsp),%rax
  204163:	00 
  204164:	48 8b 8c 24 c8 00 00 	mov    0xc8(%rsp),%rcx
  20416b:	00 
  20416c:	48 89 8c 24 f0 00 00 	mov    %rcx,0xf0(%rsp)
  204173:	00 
  204174:	48 89 84 24 e8 00 00 	mov    %rax,0xe8(%rsp)
  20417b:	00 
  20417c:	48 8d 35 35 e9 00 00 	lea    0xe935(%rip),%rsi        # 212ab8 <memset+0x11d8>
  204183:	48 8d bc 24 e8 00 00 	lea    0xe8(%rsp),%rdi
  20418a:	00 
  20418b:	e8 20 62 00 00       	callq  20a3b0 <_ZN4core6result19Result$LT$T$C$E$GT$10unwrap_err17hec166bfe633491fcE>
  204190:	48 89 94 24 e0 00 00 	mov    %rdx,0xe0(%rsp)
  204197:	00 
  204198:	48 89 84 24 d8 00 00 	mov    %rax,0xd8(%rsp)
  20419f:	00 
  2041a0:	48 8d 35 29 e9 00 00 	lea    0xe929(%rip),%rsi        # 212ad0 <memset+0x11f0>
  2041a7:	48 8d bc 24 d8 00 00 	lea    0xd8(%rsp),%rdi
  2041ae:	00 
  2041af:	e8 7c 3d 00 00       	callq  207f30 <_ZN4core9panicking13panic_display17h436238fbdc089216E>
  2041b4:	0f 0b                	ud2    
        kernel_tss_selector: k_tss_segment_result.unwrap(),
  2041b6:	48 8b 84 24 c0 00 00 	mov    0xc0(%rsp),%rax
  2041bd:	00 
  2041be:	48 89 84 24 60 01 00 	mov    %rax,0x160(%rsp)
  2041c5:	00 
  2041c6:	48 8b 84 24 c8 00 00 	mov    0xc8(%rsp),%rax
  2041cd:	00 
  2041ce:	48 89 84 24 68 01 00 	mov    %rax,0x168(%rsp)
  2041d5:	00 
  2041d6:	48 8b 84 24 d0 00 00 	mov    0xd0(%rsp),%rax
  2041dd:	00 
  2041de:	48 89 84 24 70 01 00 	mov    %rax,0x170(%rsp)
  2041e5:	00 
  2041e6:	48 8d bc 24 60 01 00 	lea    0x160(%rsp),%rdi
  2041ed:	00 
  2041ee:	48 8d 35 0b e9 00 00 	lea    0xe90b(%rip),%rsi        # 212b00 <memset+0x1220>
  2041f5:	e8 d6 62 00 00       	callq  20a4d0 <_ZN4core6result19Result$LT$T$C$E$GT$6unwrap17hdce16b6c8bde96cdE>
  2041fa:	66 89 44 24 02       	mov    %ax,0x2(%rsp)
  2041ff:	48 8b 7c 24 28       	mov    0x28(%rsp),%rdi
    GDTContainer {
  204204:	48 8d b4 24 00 01 00 	lea    0x100(%rsp),%rsi
  20420b:	00 
  20420c:	ba 48 00 00 00       	mov    $0x48,%edx
  204211:	e8 aa d6 00 00       	callq  2118c0 <memcpy>
  204216:	66 8b 74 24 04       	mov    0x4(%rsp),%si
  20421b:	66 8b 54 24 02       	mov    0x2(%rsp),%dx
  204220:	48 8b 4c 24 28       	mov    0x28(%rsp),%rcx
  204225:	48 8b 44 24 30       	mov    0x30(%rsp),%rax
  20422a:	66 89 71 48          	mov    %si,0x48(%rcx)
  20422e:	66 89 51 4a          	mov    %dx,0x4a(%rcx)
    }
}
  204232:	48 81 c4 88 01 00 00 	add    $0x188,%rsp
  204239:	c3                   	retq   
  20423a:	cc                   	int3   
  20423b:	cc                   	int3   
  20423c:	cc                   	int3   
  20423d:	cc                   	int3   
  20423e:	cc                   	int3   
  20423f:	cc                   	int3   

0000000000204240 <_ZN9r3_kernel3cpu8segments8init_gdt17h9348fa95bcfcd487E>:
lazy_static! {
    static ref KERNEL_BASE_GDT: GDTContainer = create_gdt_for_bp();
}

// create the GDT
pub fn init_gdt() {
  204240:	48 81 ec 88 01 00 00 	sub    $0x188,%rsp
    let gdt_table = &KERNEL_BASE_GDT.gdt_table;
  204247:	48 8d 3d 29 c2 ff ff 	lea    -0x3dd7(%rip),%rdi        # 200477 <_ZN9r3_kernel3cpu8segments10KERNEL_TSS17hb62bd72f0f4df038E>
  20424e:	e8 2d 04 00 00       	callq  204680 <_ZN85_$LT$r3_kernel..cpu..segments..KERNEL_BASE_GDT$u20$as$u20$core..ops..deref..Deref$GT$5deref17h3761a377e6201903E>
  204253:	48 89 44 24 40       	mov    %rax,0x40(%rsp)
  204258:	48 8b 7c 24 40       	mov    0x40(%rsp),%rdi
  20425d:	48 89 bc 24 38 01 00 	mov    %rdi,0x138(%rsp)
  204264:	00 
    gdt_table.load_into_cpu();
  204265:	e8 86 f9 ff ff       	callq  203bf0 <_ZN9r3_kernel3cpu8segments20GlobalDescritorTable13load_into_cpu17h6757b776799da27dE>

    // set the code segment register
    let kernel_cs = &KERNEL_BASE_GDT.kernel_code_selector;
  20426a:	48 8d 3d 06 c2 ff ff 	lea    -0x3dfa(%rip),%rdi        # 200477 <_ZN9r3_kernel3cpu8segments10KERNEL_TSS17hb62bd72f0f4df038E>
  204271:	e8 0a 04 00 00       	callq  204680 <_ZN85_$LT$r3_kernel..cpu..segments..KERNEL_BASE_GDT$u20$as$u20$core..ops..deref..Deref$GT$5deref17h3761a377e6201903E>
  204276:	48 89 44 24 38       	mov    %rax,0x38(%rsp)
  20427b:	48 8b 44 24 38       	mov    0x38(%rsp),%rax
  204280:	48 89 c1             	mov    %rax,%rcx
  204283:	48 83 c1 48          	add    $0x48,%rcx
  204287:	48 89 4c 24 30       	mov    %rcx,0x30(%rsp)
  20428c:	48 89 8c 24 40 01 00 	mov    %rcx,0x140(%rsp)
  204293:	00 
    SegmentRegister::CS.set(kernel_cs.0);
  204294:	48 8d 3d 51 c1 ff ff 	lea    -0x3eaf(%rip),%rdi        # 2003ec <str.2+0x1c>
  20429b:	0f b7 70 48          	movzwl 0x48(%rax),%esi
  20429f:	e8 5c f2 ff ff       	callq  203500 <_ZN9r3_kernel3cpu8segments15SegmentRegister3set17hd55eb3fbfc8ddbefE>
  2042a4:	48 8b 44 24 30       	mov    0x30(%rsp),%rax

    // assert the register value:
    SegmentRegister::CS.assert_reg(kernel_cs.0);
  2042a9:	48 8d 3d 3c c1 ff ff 	lea    -0x3ec4(%rip),%rdi        # 2003ec <str.2+0x1c>
  2042b0:	0f b7 30             	movzwl (%rax),%esi
  2042b3:	e8 38 f3 ff ff       	callq  2035f0 <_ZN9r3_kernel3cpu8segments15SegmentRegister10assert_reg17h4c2cdea3b5b4a683E>
    log::debug!("Verified Code Segment Register value: 0x{:x}", kernel_cs.0);
  2042b8:	48 c7 44 24 48 04 00 	movq   $0x4,0x48(%rsp)
  2042bf:	00 00 
  2042c1:	48 8d 7c 24 48       	lea    0x48(%rsp),%rdi
  2042c6:	48 8d 35 6b c0 ff ff 	lea    -0x3f95(%rip),%rsi        # 200338 <str.0+0x38>
  2042cd:	e8 6e 09 00 00       	callq  204c40 <_ZN76_$LT$log..Level$u20$as$u20$core..cmp..PartialOrd$LT$log..LevelFilter$GT$$GT$2le17h378b9a848e58149aE>
  2042d2:	88 44 24 2f          	mov    %al,0x2f(%rsp)
  2042d6:	8a 44 24 2f          	mov    0x2f(%rsp),%al
  2042da:	a8 01                	test   $0x1,%al
  2042dc:	75 09                	jne    2042e7 <_ZN9r3_kernel3cpu8segments8init_gdt17h9348fa95bcfcd487E+0xa7>
  2042de:	eb 00                	jmp    2042e0 <_ZN9r3_kernel3cpu8segments8init_gdt17h9348fa95bcfcd487E+0xa0>
  2042e0:	c6 44 24 57 00       	movb   $0x0,0x57(%rsp)
  2042e5:	eb 4e                	jmp    204335 <_ZN9r3_kernel3cpu8segments8init_gdt17h9348fa95bcfcd487E+0xf5>
  2042e7:	c6 84 24 7f 01 00 00 	movb   $0x0,0x17f(%rsp)
  2042ee:	00 
  2042ef:	48 8b 3d f2 f7 00 00 	mov    0xf7f2(%rip),%rdi        # 213ae8 <anon.3bd2d5117e953c23f99d470f07b1e03a.2.llvm.2324975589069524467+0x60>
  2042f6:	0f b6 b4 24 7f 01 00 	movzbl 0x17f(%rsp),%esi
  2042fd:	00 
  2042fe:	e8 cd 65 00 00       	callq  20a8d0 <_ZN4core4sync6atomic11AtomicUsize4load17habd50e9a578bb37bE>
  204303:	48 89 84 24 80 01 00 	mov    %rax,0x180(%rsp)
  20430a:	00 
  20430b:	48 8b 84 24 80 01 00 	mov    0x180(%rsp),%rax
  204312:	00 
  204313:	48 89 44 24 58       	mov    %rax,0x58(%rsp)
  204318:	48 8d 7c 24 48       	lea    0x48(%rsp),%rdi
  20431d:	48 8d 74 24 58       	lea    0x58(%rsp),%rsi
  204322:	e8 19 09 00 00       	callq  204c40 <_ZN76_$LT$log..Level$u20$as$u20$core..cmp..PartialOrd$LT$log..LevelFilter$GT$$GT$2le17h378b9a848e58149aE>
  204327:	88 44 24 2e          	mov    %al,0x2e(%rsp)
  20432b:	8a 44 24 2e          	mov    0x2e(%rsp),%al
  20432f:	24 01                	and    $0x1,%al
  204331:	88 44 24 57          	mov    %al,0x57(%rsp)
  204335:	f6 44 24 57 01       	testb  $0x1,0x57(%rsp)
  20433a:	75 29                	jne    204365 <_ZN9r3_kernel3cpu8segments8init_gdt17h9348fa95bcfcd487E+0x125>
    log::info!("Initialized GDT.");
  20433c:	48 c7 84 24 a8 00 00 	movq   $0x3,0xa8(%rsp)
  204343:	00 03 00 00 00 
  204348:	48 8d bc 24 a8 00 00 	lea    0xa8(%rsp),%rdi
  20434f:	00 
  204350:	48 8d 35 e1 bf ff ff 	lea    -0x401f(%rip),%rsi        # 200338 <str.0+0x38>
  204357:	e8 e4 08 00 00       	callq  204c40 <_ZN76_$LT$log..Level$u20$as$u20$core..cmp..PartialOrd$LT$log..LevelFilter$GT$$GT$2le17h378b9a848e58149aE>
  20435c:	88 44 24 2d          	mov    %al,0x2d(%rsp)
  204360:	e9 8a 00 00 00       	jmpq   2043ef <_ZN9r3_kernel3cpu8segments8init_gdt17h9348fa95bcfcd487E+0x1af>
  204365:	48 8b 44 24 30       	mov    0x30(%rsp),%rax
    log::debug!("Verified Code Segment Register value: 0x{:x}", kernel_cs.0);
  20436a:	48 89 84 24 a0 00 00 	mov    %rax,0xa0(%rsp)
  204371:	00 
  204372:	48 8b bc 24 a0 00 00 	mov    0xa0(%rsp),%rdi
  204379:	00 
  20437a:	48 89 bc 24 48 01 00 	mov    %rdi,0x148(%rsp)
  204381:	00 
  204382:	48 8b 35 6f f7 00 00 	mov    0xf76f(%rip),%rsi        # 213af8 <anon.3bd2d5117e953c23f99d470f07b1e03a.2.llvm.2324975589069524467+0x70>
  204389:	e8 52 6b 00 00       	callq  20aee0 <_ZN4core3fmt10ArgumentV13new17hf01d32011d96aef4E>
  20438e:	48 89 44 24 18       	mov    %rax,0x18(%rsp)
  204393:	48 89 54 24 20       	mov    %rdx,0x20(%rsp)
  204398:	48 8b 44 24 20       	mov    0x20(%rsp),%rax
  20439d:	48 8b 4c 24 18       	mov    0x18(%rsp),%rcx
  2043a2:	48 89 8c 24 90 00 00 	mov    %rcx,0x90(%rsp)
  2043a9:	00 
  2043aa:	48 89 84 24 98 00 00 	mov    %rax,0x98(%rsp)
  2043b1:	00 
  2043b2:	48 8d 8c 24 90 00 00 	lea    0x90(%rsp),%rcx
  2043b9:	00 
  2043ba:	48 8d 7c 24 60       	lea    0x60(%rsp),%rdi
  2043bf:	48 8d 35 52 e7 00 00 	lea    0xe752(%rip),%rsi        # 212b18 <memset+0x1238>
  2043c6:	41 b8 01 00 00 00    	mov    $0x1,%r8d
  2043cc:	4c 89 c2             	mov    %r8,%rdx
  2043cf:	e8 3c 03 00 00       	callq  204710 <_ZN4core3fmt9Arguments6new_v117h9654568d76c8366eE>
  2043d4:	48 8b 74 24 48       	mov    0x48(%rsp),%rsi
  2043d9:	48 8d 7c 24 60       	lea    0x60(%rsp),%rdi
  2043de:	48 8d 15 43 e7 00 00 	lea    0xe743(%rip),%rdx        # 212b28 <memset+0x1248>
  2043e5:	e8 46 83 00 00       	callq  20c730 <_ZN3log17__private_api_log17ha4b636ffcba62793E>
  2043ea:	e9 4d ff ff ff       	jmpq   20433c <_ZN9r3_kernel3cpu8segments8init_gdt17h9348fa95bcfcd487E+0xfc>
  2043ef:	8a 44 24 2d          	mov    0x2d(%rsp),%al
    log::info!("Initialized GDT.");
  2043f3:	a8 01                	test   $0x1,%al
  2043f5:	75 0c                	jne    204403 <_ZN9r3_kernel3cpu8segments8init_gdt17h9348fa95bcfcd487E+0x1c3>
  2043f7:	eb 00                	jmp    2043f9 <_ZN9r3_kernel3cpu8segments8init_gdt17h9348fa95bcfcd487E+0x1b9>
  2043f9:	c6 84 24 b7 00 00 00 	movb   $0x0,0xb7(%rsp)
  204400:	00 
  204401:	eb 5a                	jmp    20445d <_ZN9r3_kernel3cpu8segments8init_gdt17h9348fa95bcfcd487E+0x21d>
  204403:	c6 84 24 6f 01 00 00 	movb   $0x0,0x16f(%rsp)
  20440a:	00 
  20440b:	48 8b 3d d6 f6 00 00 	mov    0xf6d6(%rip),%rdi        # 213ae8 <anon.3bd2d5117e953c23f99d470f07b1e03a.2.llvm.2324975589069524467+0x60>
  204412:	0f b6 b4 24 6f 01 00 	movzbl 0x16f(%rsp),%esi
  204419:	00 
  20441a:	e8 b1 64 00 00       	callq  20a8d0 <_ZN4core4sync6atomic11AtomicUsize4load17habd50e9a578bb37bE>
  20441f:	48 89 84 24 70 01 00 	mov    %rax,0x170(%rsp)
  204426:	00 
  204427:	48 8b 84 24 70 01 00 	mov    0x170(%rsp),%rax
  20442e:	00 
  20442f:	48 89 84 24 b8 00 00 	mov    %rax,0xb8(%rsp)
  204436:	00 
  204437:	48 8d bc 24 a8 00 00 	lea    0xa8(%rsp),%rdi
  20443e:	00 
  20443f:	48 8d b4 24 b8 00 00 	lea    0xb8(%rsp),%rsi
  204446:	00 
  204447:	e8 f4 07 00 00       	callq  204c40 <_ZN76_$LT$log..Level$u20$as$u20$core..cmp..PartialOrd$LT$log..LevelFilter$GT$$GT$2le17h378b9a848e58149aE>
  20444c:	88 44 24 17          	mov    %al,0x17(%rsp)
  204450:	8a 44 24 17          	mov    0x17(%rsp),%al
  204454:	24 01                	and    $0x1,%al
  204456:	88 84 24 b7 00 00 00 	mov    %al,0xb7(%rsp)
  20445d:	f6 84 24 b7 00 00 00 	testb  $0x1,0xb7(%rsp)
  204464:	01 
  204465:	75 13                	jne    20447a <_ZN9r3_kernel3cpu8segments8init_gdt17h9348fa95bcfcd487E+0x23a>

    let tss_sel = &KERNEL_BASE_GDT.kernel_tss_selector;
  204467:	48 8d 3d 09 c0 ff ff 	lea    -0x3ff7(%rip),%rdi        # 200477 <_ZN9r3_kernel3cpu8segments10KERNEL_TSS17hb62bd72f0f4df038E>
  20446e:	e8 0d 02 00 00       	callq  204680 <_ZN85_$LT$r3_kernel..cpu..segments..KERNEL_BASE_GDT$u20$as$u20$core..ops..deref..Deref$GT$5deref17h3761a377e6201903E>
  204473:	48 89 44 24 08       	mov    %rax,0x8(%rsp)
  204478:	eb 43                	jmp    2044bd <_ZN9r3_kernel3cpu8segments8init_gdt17h9348fa95bcfcd487E+0x27d>
    log::info!("Initialized GDT.");
  20447a:	48 8d bc 24 c0 00 00 	lea    0xc0(%rsp),%rdi
  204481:	00 
  204482:	48 8d 35 d7 e6 00 00 	lea    0xe6d7(%rip),%rsi        # 212b60 <memset+0x1280>
  204489:	ba 01 00 00 00       	mov    $0x1,%edx
  20448e:	48 8d 0d d3 bf ff ff 	lea    -0x402d(%rip),%rcx        # 200468 <str.2+0x98>
  204495:	31 c0                	xor    %eax,%eax
  204497:	41 89 c0             	mov    %eax,%r8d
  20449a:	e8 71 02 00 00       	callq  204710 <_ZN4core3fmt9Arguments6new_v117h9654568d76c8366eE>
  20449f:	48 8b b4 24 a8 00 00 	mov    0xa8(%rsp),%rsi
  2044a6:	00 
  2044a7:	48 8d bc 24 c0 00 00 	lea    0xc0(%rsp),%rdi
  2044ae:	00 
  2044af:	48 8d 15 ba e6 00 00 	lea    0xe6ba(%rip),%rdx        # 212b70 <memset+0x1290>
  2044b6:	e8 75 82 00 00       	callq  20c730 <_ZN3log17__private_api_log17ha4b636ffcba62793E>
  2044bb:	eb aa                	jmp    204467 <_ZN9r3_kernel3cpu8segments8init_gdt17h9348fa95bcfcd487E+0x227>
  2044bd:	48 8b 44 24 08       	mov    0x8(%rsp),%rax
    let tss_sel = &KERNEL_BASE_GDT.kernel_tss_selector;
  2044c2:	48 89 c1             	mov    %rax,%rcx
  2044c5:	48 83 c1 4a          	add    $0x4a,%rcx
  2044c9:	48 89 8c 24 50 01 00 	mov    %rcx,0x150(%rsp)
  2044d0:	00 
    load_tss(tss_sel.0);
  2044d1:	0f b7 78 4a          	movzwl 0x4a(%rax),%edi
  2044d5:	e8 c6 ef ff ff       	callq  2034a0 <_ZN9r3_kernel3cpu8segments8load_tss17h2c868d95eb8693b2E>
    log::info!("Initialized TSS.");
  2044da:	48 c7 84 24 f0 00 00 	movq   $0x3,0xf0(%rsp)
  2044e1:	00 03 00 00 00 
  2044e6:	48 8d bc 24 f0 00 00 	lea    0xf0(%rsp),%rdi
  2044ed:	00 
  2044ee:	48 8d 35 43 be ff ff 	lea    -0x41bd(%rip),%rsi        # 200338 <str.0+0x38>
  2044f5:	e8 46 07 00 00       	callq  204c40 <_ZN76_$LT$log..Level$u20$as$u20$core..cmp..PartialOrd$LT$log..LevelFilter$GT$$GT$2le17h378b9a848e58149aE>
  2044fa:	88 44 24 07          	mov    %al,0x7(%rsp)
  2044fe:	8a 44 24 07          	mov    0x7(%rsp),%al
  204502:	a8 01                	test   $0x1,%al
  204504:	75 0c                	jne    204512 <_ZN9r3_kernel3cpu8segments8init_gdt17h9348fa95bcfcd487E+0x2d2>
  204506:	eb 00                	jmp    204508 <_ZN9r3_kernel3cpu8segments8init_gdt17h9348fa95bcfcd487E+0x2c8>
  204508:	c6 84 24 ff 00 00 00 	movb   $0x0,0xff(%rsp)
  20450f:	00 
  204510:	eb 5a                	jmp    20456c <_ZN9r3_kernel3cpu8segments8init_gdt17h9348fa95bcfcd487E+0x32c>
  204512:	c6 84 24 5f 01 00 00 	movb   $0x0,0x15f(%rsp)
  204519:	00 
  20451a:	48 8b 3d c7 f5 00 00 	mov    0xf5c7(%rip),%rdi        # 213ae8 <anon.3bd2d5117e953c23f99d470f07b1e03a.2.llvm.2324975589069524467+0x60>
  204521:	0f b6 b4 24 5f 01 00 	movzbl 0x15f(%rsp),%esi
  204528:	00 
  204529:	e8 a2 63 00 00       	callq  20a8d0 <_ZN4core4sync6atomic11AtomicUsize4load17habd50e9a578bb37bE>
  20452e:	48 89 84 24 60 01 00 	mov    %rax,0x160(%rsp)
  204535:	00 
  204536:	48 8b 84 24 60 01 00 	mov    0x160(%rsp),%rax
  20453d:	00 
  20453e:	48 89 84 24 00 01 00 	mov    %rax,0x100(%rsp)
  204545:	00 
  204546:	48 8d bc 24 f0 00 00 	lea    0xf0(%rsp),%rdi
  20454d:	00 
  20454e:	48 8d b4 24 00 01 00 	lea    0x100(%rsp),%rsi
  204555:	00 
  204556:	e8 e5 06 00 00       	callq  204c40 <_ZN76_$LT$log..Level$u20$as$u20$core..cmp..PartialOrd$LT$log..LevelFilter$GT$$GT$2le17h378b9a848e58149aE>
  20455b:	88 44 24 06          	mov    %al,0x6(%rsp)
  20455f:	8a 44 24 06          	mov    0x6(%rsp),%al
  204563:	24 01                	and    $0x1,%al
  204565:	88 84 24 ff 00 00 00 	mov    %al,0xff(%rsp)
  20456c:	f6 84 24 ff 00 00 00 	testb  $0x1,0xff(%rsp)
  204573:	01 
  204574:	75 08                	jne    20457e <_ZN9r3_kernel3cpu8segments8init_gdt17h9348fa95bcfcd487E+0x33e>
}
  204576:	48 81 c4 88 01 00 00 	add    $0x188,%rsp
  20457d:	c3                   	retq   
    log::info!("Initialized TSS.");
  20457e:	48 8d bc 24 08 01 00 	lea    0x108(%rsp),%rdi
  204585:	00 
  204586:	48 8d 35 1b e6 00 00 	lea    0xe61b(%rip),%rsi        # 212ba8 <memset+0x12c8>
  20458d:	ba 01 00 00 00       	mov    $0x1,%edx
  204592:	48 8d 0d cf be ff ff 	lea    -0x4131(%rip),%rcx        # 200468 <str.2+0x98>
  204599:	31 c0                	xor    %eax,%eax
  20459b:	41 89 c0             	mov    %eax,%r8d
  20459e:	e8 6d 01 00 00       	callq  204710 <_ZN4core3fmt9Arguments6new_v117h9654568d76c8366eE>
  2045a3:	48 8b b4 24 f0 00 00 	mov    0xf0(%rsp),%rsi
  2045aa:	00 
  2045ab:	48 8d bc 24 08 01 00 	lea    0x108(%rsp),%rdi
  2045b2:	00 
  2045b3:	48 8d 15 fe e5 00 00 	lea    0xe5fe(%rip),%rdx        # 212bb8 <memset+0x12d8>
  2045ba:	e8 71 81 00 00       	callq  20c730 <_ZN3log17__private_api_log17ha4b636ffcba62793E>
  2045bf:	eb b5                	jmp    204576 <_ZN9r3_kernel3cpu8segments8init_gdt17h9348fa95bcfcd487E+0x336>
  2045c1:	cc                   	int3   
  2045c2:	cc                   	int3   
  2045c3:	cc                   	int3   
  2045c4:	cc                   	int3   
  2045c5:	cc                   	int3   
  2045c6:	cc                   	int3   
  2045c7:	cc                   	int3   
  2045c8:	cc                   	int3   
  2045c9:	cc                   	int3   
  2045ca:	cc                   	int3   
  2045cb:	cc                   	int3   
  2045cc:	cc                   	int3   
  2045cd:	cc                   	int3   
  2045ce:	cc                   	int3   
  2045cf:	cc                   	int3   

00000000002045d0 <_ZN78_$LT$r3_kernel..cpu..segments..SegmentSelector$u20$as$u20$core..fmt..Debug$GT$3fmt17hf7b4ee4cd1688ff2E>:
#[derive(Debug)]
  2045d0:	48 83 ec 58          	sub    $0x58,%rsp
  2045d4:	48 89 7c 24 10       	mov    %rdi,0x10(%rsp)
  2045d9:	48 89 7c 24 38       	mov    %rdi,0x38(%rsp)
  2045de:	48 89 74 24 40       	mov    %rsi,0x40(%rsp)
pub struct SegmentSelector(pub u16);
  2045e3:	48 89 7c 24 48       	mov    %rdi,0x48(%rsp)
#[derive(Debug)]
  2045e8:	48 8d 7c 24 18       	lea    0x18(%rsp),%rdi
  2045ed:	48 8d 15 74 be ff ff 	lea    -0x418c(%rip),%rdx        # 200468 <str.2+0x98>
  2045f4:	b9 0f 00 00 00       	mov    $0xf,%ecx
  2045f9:	e8 82 c7 00 00       	callq  210d80 <_ZN4core3fmt9Formatter11debug_tuple17hfe2def895ca5eae3E>
  2045fe:	48 8b 44 24 10       	mov    0x10(%rsp),%rax
  204603:	48 8d 4c 24 18       	lea    0x18(%rsp),%rcx
  204608:	48 89 4c 24 50       	mov    %rcx,0x50(%rsp)
pub struct SegmentSelector(pub u16);
  20460d:	48 89 44 24 30       	mov    %rax,0x30(%rsp)
  204612:	48 8d 74 24 30       	lea    0x30(%rsp),%rsi
#[derive(Debug)]
  204617:	48 8d 7c 24 18       	lea    0x18(%rsp),%rdi
  20461c:	48 8d 15 cd e5 00 00 	lea    0xe5cd(%rip),%rdx        # 212bf0 <memset+0x1310>
  204623:	e8 98 a2 00 00       	callq  20e8c0 <_ZN4core3fmt8builders10DebugTuple5field17h7e0c5705d7125d58E>
  204628:	48 8d 7c 24 18       	lea    0x18(%rsp),%rdi
  20462d:	e8 fe a3 00 00       	callq  20ea30 <_ZN4core3fmt8builders10DebugTuple6finish17h6a1f8b2eab7467deE>
  204632:	88 44 24 0f          	mov    %al,0xf(%rsp)
  204636:	8a 44 24 0f          	mov    0xf(%rsp),%al
  20463a:	24 01                	and    $0x1,%al
  20463c:	0f b6 c0             	movzbl %al,%eax
  20463f:	48 83 c4 58          	add    $0x58,%rsp
  204643:	c3                   	retq   
  204644:	cc                   	int3   
  204645:	cc                   	int3   
  204646:	cc                   	int3   
  204647:	cc                   	int3   
  204648:	cc                   	int3   
  204649:	cc                   	int3   
  20464a:	cc                   	int3   
  20464b:	cc                   	int3   
  20464c:	cc                   	int3   
  20464d:	cc                   	int3   
  20464e:	cc                   	int3   
  20464f:	cc                   	int3   

0000000000204650 <_ZN80_$LT$r3_kernel..cpu..segments..KERNEL_TSS$u20$as$u20$core..ops..deref..Deref$GT$5deref17hc306cbd0648060a6E>:
        lazy_static!($($t)*);
    };
    (@TAIL, $N:ident : $T:ty = $e:expr) => {
        impl $crate::__Deref for $N {
            type Target = $T;
            fn deref(&self) -> &$T {
  204650:	48 83 ec 18          	sub    $0x18,%rsp
  204654:	48 89 7c 24 08       	mov    %rdi,0x8(%rsp)
  204659:	48 8d 05 50 55 01 00 	lea    0x15550(%rip),%rax        # 219bb0 <_ZN80_$LT$r3_kernel..cpu..segments..KERNEL_TSS$u20$as$u20$core..ops..deref..Deref$GT$5deref11__stability4LAZY17hcc943e2095b446c4E>
  204660:	48 89 44 24 10       	mov    %rax,0x10(%rsp)

    #[inline(always)]
    pub fn get<F>(&'static self, builder: F) -> &T
        where F: FnOnce() -> T
    {
        self.0.call_once(builder)
  204665:	48 8d 3d 44 55 01 00 	lea    0x15544(%rip),%rdi        # 219bb0 <_ZN80_$LT$r3_kernel..cpu..segments..KERNEL_TSS$u20$as$u20$core..ops..deref..Deref$GT$5deref11__stability4LAZY17hcc943e2095b446c4E>
  20466c:	e8 df 2a 00 00       	callq  207150 <_ZN4spin4once13Once$LT$T$GT$9call_once17h52946531d93d03a6E>
  204671:	48 89 04 24          	mov    %rax,(%rsp)
  204675:	48 8b 04 24          	mov    (%rsp),%rax
                fn __stability() -> &'static $T {
                    __lazy_static_create!(LAZY, $T);
                    LAZY.get(__static_ref_initialize)
                }
                __stability()
            }
  204679:	48 83 c4 18          	add    $0x18,%rsp
  20467d:	c3                   	retq   
  20467e:	cc                   	int3   
  20467f:	cc                   	int3   

0000000000204680 <_ZN85_$LT$r3_kernel..cpu..segments..KERNEL_BASE_GDT$u20$as$u20$core..ops..deref..Deref$GT$5deref17h3761a377e6201903E>:
            fn deref(&self) -> &$T {
  204680:	48 83 ec 18          	sub    $0x18,%rsp
  204684:	48 89 7c 24 08       	mov    %rdi,0x8(%rsp)
  204689:	48 8d 05 98 55 01 00 	lea    0x15598(%rip),%rax        # 219c28 <_ZN85_$LT$r3_kernel..cpu..segments..KERNEL_BASE_GDT$u20$as$u20$core..ops..deref..Deref$GT$5deref11__stability4LAZY17h5e166e16dd8a77c2E>
  204690:	48 89 44 24 10       	mov    %rax,0x10(%rsp)
  204695:	48 8d 3d 8c 55 01 00 	lea    0x1558c(%rip),%rdi        # 219c28 <_ZN85_$LT$r3_kernel..cpu..segments..KERNEL_BASE_GDT$u20$as$u20$core..ops..deref..Deref$GT$5deref11__stability4LAZY17h5e166e16dd8a77c2E>
  20469c:	e8 ef 30 00 00       	callq  207790 <_ZN4spin4once13Once$LT$T$GT$9call_once17hf43756d4812a151fE>
  2046a1:	48 89 04 24          	mov    %rax,(%rsp)
  2046a5:	48 8b 04 24          	mov    (%rsp),%rax
            }
  2046a9:	48 83 c4 18          	add    $0x18,%rsp
  2046ad:	c3                   	retq   
  2046ae:	cc                   	int3   
  2046af:	cc                   	int3   

00000000002046b0 <_ZN4core3fmt9Arguments16new_v1_formatted17hbeddea28af1cc014E>:
    #[cfg(not(bootstrap))]
    #[doc(hidden)]
    #[inline]
    #[unstable(feature = "fmt_internals", reason = "internal to format_args!", issue = "none")]
    #[rustc_const_unstable(feature = "const_fmt_arguments_new", issue = "none")]
    pub const fn new_v1_formatted(
  2046b0:	48 83 ec 48          	sub    $0x48,%rsp
  2046b4:	4d 89 ca             	mov    %r9,%r10
  2046b7:	48 89 f8             	mov    %rdi,%rax
  2046ba:	4c 8b 4c 24 50       	mov    0x50(%rsp),%r9
  2046bf:	48 89 74 24 10       	mov    %rsi,0x10(%rsp)
  2046c4:	48 89 54 24 18       	mov    %rdx,0x18(%rsp)
  2046c9:	48 89 4c 24 20       	mov    %rcx,0x20(%rsp)
  2046ce:	4c 89 44 24 28       	mov    %r8,0x28(%rsp)
  2046d3:	4c 89 54 24 30       	mov    %r10,0x30(%rsp)
  2046d8:	4c 89 4c 24 38       	mov    %r9,0x38(%rsp)
        pieces: &'a [&'static str],
        args: &'a [ArgumentV1<'a>],
        fmt: &'a [rt::v1::Argument],
        _unsafe_arg: UnsafeArg,
    ) -> Arguments<'a> {
        Arguments { pieces, fmt: Some(fmt), args }
  2046dd:	4c 89 14 24          	mov    %r10,(%rsp)
  2046e1:	4c 89 4c 24 08       	mov    %r9,0x8(%rsp)
  2046e6:	48 89 37             	mov    %rsi,(%rdi)
  2046e9:	48 89 57 08          	mov    %rdx,0x8(%rdi)
  2046ed:	48 8b 34 24          	mov    (%rsp),%rsi
  2046f1:	48 8b 54 24 08       	mov    0x8(%rsp),%rdx
  2046f6:	48 89 77 10          	mov    %rsi,0x10(%rdi)
  2046fa:	48 89 57 18          	mov    %rdx,0x18(%rdi)
  2046fe:	48 89 4f 20          	mov    %rcx,0x20(%rdi)
  204702:	4c 89 47 28          	mov    %r8,0x28(%rdi)
    }
  204706:	48 83 c4 48          	add    $0x48,%rsp
  20470a:	c3                   	retq   
  20470b:	cc                   	int3   
  20470c:	cc                   	int3   
  20470d:	cc                   	int3   
  20470e:	cc                   	int3   
  20470f:	cc                   	int3   

0000000000204710 <_ZN4core3fmt9Arguments6new_v117h9654568d76c8366eE>:
    pub const fn new_v1(pieces: &'a [&'static str], args: &'a [ArgumentV1<'a>]) -> Arguments<'a> {
  204710:	48 83 ec 68          	sub    $0x68,%rsp
  204714:	4c 89 04 24          	mov    %r8,(%rsp)
  204718:	48 89 4c 24 08       	mov    %rcx,0x8(%rsp)
  20471d:	48 89 54 24 10       	mov    %rdx,0x10(%rsp)
  204722:	48 89 74 24 18       	mov    %rsi,0x18(%rsp)
  204727:	48 89 7c 24 20       	mov    %rdi,0x20(%rsp)
  20472c:	48 89 7c 24 28       	mov    %rdi,0x28(%rsp)
  204731:	48 89 74 24 48       	mov    %rsi,0x48(%rsp)
  204736:	48 89 54 24 50       	mov    %rdx,0x50(%rsp)
  20473b:	48 89 4c 24 58       	mov    %rcx,0x58(%rsp)
  204740:	4c 89 44 24 60       	mov    %r8,0x60(%rsp)
        if pieces.len() < args.len() || pieces.len() > args.len() + 1 {
  204745:	4c 39 c2             	cmp    %r8,%rdx
  204748:	72 1b                	jb     204765 <_ZN4core3fmt9Arguments6new_v117h9654568d76c8366eE+0x55>
  20474a:	48 8b 44 24 10       	mov    0x10(%rsp),%rax
  20474f:	48 8b 0c 24          	mov    (%rsp),%rcx
  204753:	48 83 c1 01          	add    $0x1,%rcx
  204757:	48 39 c8             	cmp    %rcx,%rax
  20475a:	0f 97 c0             	seta   %al
  20475d:	24 01                	and    $0x1,%al
  20475f:	88 44 24 37          	mov    %al,0x37(%rsp)
  204763:	eb 05                	jmp    20476a <_ZN4core3fmt9Arguments6new_v117h9654568d76c8366eE+0x5a>
  204765:	c6 44 24 37 01       	movb   $0x1,0x37(%rsp)
  20476a:	f6 44 24 37 01       	testb  $0x1,0x37(%rsp)
  20476f:	75 4c                	jne    2047bd <_ZN4core3fmt9Arguments6new_v117h9654568d76c8366eE+0xad>
  204771:	48 8b 44 24 28       	mov    0x28(%rsp),%rax
  204776:	48 8b 4c 24 20       	mov    0x20(%rsp),%rcx
  20477b:	48 8b 14 24          	mov    (%rsp),%rdx
  20477f:	48 8b 74 24 08       	mov    0x8(%rsp),%rsi
  204784:	48 8b 7c 24 10       	mov    0x10(%rsp),%rdi
  204789:	4c 8b 44 24 18       	mov    0x18(%rsp),%r8
        Arguments { pieces, fmt: None, args }
  20478e:	48 c7 44 24 38 00 00 	movq   $0x0,0x38(%rsp)
  204795:	00 00 
  204797:	4c 89 01             	mov    %r8,(%rcx)
  20479a:	48 89 79 08          	mov    %rdi,0x8(%rcx)
  20479e:	4c 8b 44 24 38       	mov    0x38(%rsp),%r8
  2047a3:	48 8b 7c 24 40       	mov    0x40(%rsp),%rdi
  2047a8:	4c 89 41 10          	mov    %r8,0x10(%rcx)
  2047ac:	48 89 79 18          	mov    %rdi,0x18(%rcx)
  2047b0:	48 89 71 20          	mov    %rsi,0x20(%rcx)
  2047b4:	48 89 51 28          	mov    %rdx,0x28(%rcx)
    }
  2047b8:	48 83 c4 68          	add    $0x68,%rsp
  2047bc:	c3                   	retq   
            panic!("invalid args");
  2047bd:	48 8d 3d b3 bc ff ff 	lea    -0x434d(%rip),%rdi        # 200477 <_ZN9r3_kernel3cpu8segments10KERNEL_TSS17hb62bd72f0f4df038E>
  2047c4:	48 8d 15 45 e4 00 00 	lea    0xe445(%rip),%rdx        # 212c10 <memset+0x1330>
  2047cb:	be 0c 00 00 00       	mov    $0xc,%esi
  2047d0:	e8 bb a6 00 00       	callq  20ee90 <_ZN4core9panicking5panic17hb5e1b99c05020429E>
  2047d5:	0f 0b                	ud2    
  2047d7:	cc                   	int3   
  2047d8:	cc                   	int3   
  2047d9:	cc                   	int3   
  2047da:	cc                   	int3   
  2047db:	cc                   	int3   
  2047dc:	cc                   	int3   
  2047dd:	cc                   	int3   
  2047de:	cc                   	int3   
  2047df:	cc                   	int3   

00000000002047e0 <_ZN4core5clone5impls54_$LT$impl$u20$core..clone..Clone$u20$for$u20$usize$GT$5clone17hb2fa8fb2c422790fE>:
        ($($t:ty)*) => {
            $(
                #[stable(feature = "rust1", since = "1.0.0")]
                impl Clone for $t {
                    #[inline]
                    fn clone(&self) -> Self {
  2047e0:	50                   	push   %rax
  2047e1:	48 89 3c 24          	mov    %rdi,(%rsp)
                        *self
  2047e5:	48 8b 07             	mov    (%rdi),%rax
                    }
  2047e8:	59                   	pop    %rcx
  2047e9:	c3                   	retq   
  2047ea:	cc                   	int3   
  2047eb:	cc                   	int3   
  2047ec:	cc                   	int3   
  2047ed:	cc                   	int3   
  2047ee:	cc                   	int3   
  2047ef:	cc                   	int3   

00000000002047f0 <_ZN10bootloader9boot_info127_$LT$impl$u20$core..convert..From$LT$bootloader..boot_info..Optional$LT$T$GT$$GT$$u20$for$u20$core..option..Option$LT$T$GT$$GT$4from17hc071a28b35f3c4a2E>:
        }
    }
}

impl<T> From<Optional<T>> for Option<T> {
    fn from(optional: Optional<T>) -> Option<T> {
  2047f0:	48 83 ec 28          	sub    $0x28,%rsp
  2047f4:	89 3c 24             	mov    %edi,(%rsp)
  2047f7:	48 89 74 24 08       	mov    %rsi,0x8(%rsp)
        match optional {
  2047fc:	8b 04 24             	mov    (%rsp),%eax
  2047ff:	48 85 c0             	test   %rax,%rax
  204802:	74 06                	je     20480a <_ZN10bootloader9boot_info127_$LT$impl$u20$core..convert..From$LT$bootloader..boot_info..Optional$LT$T$GT$$GT$$u20$for$u20$core..option..Option$LT$T$GT$$GT$4from17hc071a28b35f3c4a2E+0x1a>
  204804:	eb 00                	jmp    204806 <_ZN10bootloader9boot_info127_$LT$impl$u20$core..convert..From$LT$bootloader..boot_info..Optional$LT$T$GT$$GT$$u20$for$u20$core..option..Option$LT$T$GT$$GT$4from17hc071a28b35f3c4a2E+0x16>
  204806:	eb 1c                	jmp    204824 <_ZN10bootloader9boot_info127_$LT$impl$u20$core..convert..From$LT$bootloader..boot_info..Optional$LT$T$GT$$GT$$u20$for$u20$core..option..Option$LT$T$GT$$GT$4from17hc071a28b35f3c4a2E+0x34>
  204808:	0f 0b                	ud2    
            Optional::Some(v) => Some(v),
  20480a:	48 8b 44 24 08       	mov    0x8(%rsp),%rax
  20480f:	48 89 44 24 20       	mov    %rax,0x20(%rsp)
  204814:	48 89 44 24 18       	mov    %rax,0x18(%rsp)
  204819:	48 c7 44 24 10 01 00 	movq   $0x1,0x10(%rsp)
  204820:	00 00 
            Optional::None => None,
        }
    }
  204822:	eb 09                	jmp    20482d <_ZN10bootloader9boot_info127_$LT$impl$u20$core..convert..From$LT$bootloader..boot_info..Optional$LT$T$GT$$GT$$u20$for$u20$core..option..Option$LT$T$GT$$GT$4from17hc071a28b35f3c4a2E+0x3d>
            Optional::None => None,
  204824:	48 c7 44 24 10 00 00 	movq   $0x0,0x10(%rsp)
  20482b:	00 00 
    }
  20482d:	48 8b 44 24 10       	mov    0x10(%rsp),%rax
  204832:	48 8b 54 24 18       	mov    0x18(%rsp),%rdx
  204837:	48 83 c4 28          	add    $0x28,%rsp
  20483b:	c3                   	retq   
  20483c:	cc                   	int3   
  20483d:	cc                   	int3   
  20483e:	cc                   	int3   
  20483f:	cc                   	int3   

0000000000204840 <_ZN4core6option15Option$LT$T$GT$6as_ref17h5d0bc5b60f792ccdE>:
    /// println!("still can print text: {:?}", text);
    /// ```
    #[inline]
    #[rustc_const_stable(feature = "const_option", since = "1.48.0")]
    #[stable(feature = "rust1", since = "1.0.0")]
    pub const fn as_ref(&self) -> Option<&T> {
  204840:	48 83 ec 20          	sub    $0x20,%rsp
  204844:	48 89 3c 24          	mov    %rdi,(%rsp)
  204848:	48 89 7c 24 10       	mov    %rdi,0x10(%rsp)
        match *self {
  20484d:	0f b6 07             	movzbl (%rdi),%eax
  204850:	a8 01                	test   $0x1,%al
  204852:	74 06                	je     20485a <_ZN4core6option15Option$LT$T$GT$6as_ref17h5d0bc5b60f792ccdE+0x1a>
  204854:	eb 00                	jmp    204856 <_ZN4core6option15Option$LT$T$GT$6as_ref17h5d0bc5b60f792ccdE+0x16>
  204856:	eb 0d                	jmp    204865 <_ZN4core6option15Option$LT$T$GT$6as_ref17h5d0bc5b60f792ccdE+0x25>
  204858:	0f 0b                	ud2    
            Some(ref x) => Some(x),
            None => None,
  20485a:	48 c7 44 24 08 00 00 	movq   $0x0,0x8(%rsp)
  204861:	00 00 
  204863:	eb 12                	jmp    204877 <_ZN4core6option15Option$LT$T$GT$6as_ref17h5d0bc5b60f792ccdE+0x37>
  204865:	48 8b 04 24          	mov    (%rsp),%rax
            Some(ref x) => Some(x),
  204869:	48 83 c0 01          	add    $0x1,%rax
  20486d:	48 89 44 24 18       	mov    %rax,0x18(%rsp)
  204872:	48 89 44 24 08       	mov    %rax,0x8(%rsp)
        }
    }
  204877:	48 8b 44 24 08       	mov    0x8(%rsp),%rax
  20487c:	48 83 c4 20          	add    $0x20,%rsp
  204880:	c3                   	retq   
  204881:	cc                   	int3   
  204882:	cc                   	int3   
  204883:	cc                   	int3   
  204884:	cc                   	int3   
  204885:	cc                   	int3   
  204886:	cc                   	int3   
  204887:	cc                   	int3   
  204888:	cc                   	int3   
  204889:	cc                   	int3   
  20488a:	cc                   	int3   
  20488b:	cc                   	int3   
  20488c:	cc                   	int3   
  20488d:	cc                   	int3   
  20488e:	cc                   	int3   
  20488f:	cc                   	int3   

0000000000204890 <_ZN4core6option15Option$LT$T$GT$6as_ref17h5d51e08c380e0dfcE>:
    pub const fn as_ref(&self) -> Option<&T> {
  204890:	48 83 ec 20          	sub    $0x20,%rsp
  204894:	48 89 3c 24          	mov    %rdi,(%rsp)
  204898:	48 89 7c 24 10       	mov    %rdi,0x10(%rsp)
        match *self {
  20489d:	0f b6 07             	movzbl (%rdi),%eax
  2048a0:	a8 01                	test   $0x1,%al
  2048a2:	74 06                	je     2048aa <_ZN4core6option15Option$LT$T$GT$6as_ref17h5d51e08c380e0dfcE+0x1a>
  2048a4:	eb 00                	jmp    2048a6 <_ZN4core6option15Option$LT$T$GT$6as_ref17h5d51e08c380e0dfcE+0x16>
  2048a6:	eb 0d                	jmp    2048b5 <_ZN4core6option15Option$LT$T$GT$6as_ref17h5d51e08c380e0dfcE+0x25>
  2048a8:	0f 0b                	ud2    
            None => None,
  2048aa:	48 c7 44 24 08 00 00 	movq   $0x0,0x8(%rsp)
  2048b1:	00 00 
  2048b3:	eb 12                	jmp    2048c7 <_ZN4core6option15Option$LT$T$GT$6as_ref17h5d51e08c380e0dfcE+0x37>
  2048b5:	48 8b 04 24          	mov    (%rsp),%rax
            Some(ref x) => Some(x),
  2048b9:	48 83 c0 10          	add    $0x10,%rax
  2048bd:	48 89 44 24 18       	mov    %rax,0x18(%rsp)
  2048c2:	48 89 44 24 08       	mov    %rax,0x8(%rsp)
    }
  2048c7:	48 8b 44 24 08       	mov    0x8(%rsp),%rax
  2048cc:	48 83 c4 20          	add    $0x20,%rsp
  2048d0:	c3                   	retq   
  2048d1:	cc                   	int3   
  2048d2:	cc                   	int3   
  2048d3:	cc                   	int3   
  2048d4:	cc                   	int3   
  2048d5:	cc                   	int3   
  2048d6:	cc                   	int3   
  2048d7:	cc                   	int3   
  2048d8:	cc                   	int3   
  2048d9:	cc                   	int3   
  2048da:	cc                   	int3   
  2048db:	cc                   	int3   
  2048dc:	cc                   	int3   
  2048dd:	cc                   	int3   
  2048de:	cc                   	int3   
  2048df:	cc                   	int3   

00000000002048e0 <_ZN4core6option15Option$LT$T$GT$6as_ref17h85b752adf3cf1e1eE>:
    pub const fn as_ref(&self) -> Option<&T> {
  2048e0:	48 83 ec 20          	sub    $0x20,%rsp
  2048e4:	48 89 3c 24          	mov    %rdi,(%rsp)
  2048e8:	48 89 7c 24 10       	mov    %rdi,0x10(%rsp)
        match *self {
  2048ed:	48 8b 07             	mov    (%rdi),%rax
  2048f0:	48 85 c0             	test   %rax,%rax
  2048f3:	74 06                	je     2048fb <_ZN4core6option15Option$LT$T$GT$6as_ref17h85b752adf3cf1e1eE+0x1b>
  2048f5:	eb 00                	jmp    2048f7 <_ZN4core6option15Option$LT$T$GT$6as_ref17h85b752adf3cf1e1eE+0x17>
  2048f7:	eb 0d                	jmp    204906 <_ZN4core6option15Option$LT$T$GT$6as_ref17h85b752adf3cf1e1eE+0x26>
  2048f9:	0f 0b                	ud2    
            None => None,
  2048fb:	48 c7 44 24 08 00 00 	movq   $0x0,0x8(%rsp)
  204902:	00 00 
  204904:	eb 12                	jmp    204918 <_ZN4core6option15Option$LT$T$GT$6as_ref17h85b752adf3cf1e1eE+0x38>
  204906:	48 8b 04 24          	mov    (%rsp),%rax
            Some(ref x) => Some(x),
  20490a:	48 83 c0 08          	add    $0x8,%rax
  20490e:	48 89 44 24 18       	mov    %rax,0x18(%rsp)
  204913:	48 89 44 24 08       	mov    %rax,0x8(%rsp)
    }
  204918:	48 8b 44 24 08       	mov    0x8(%rsp),%rax
  20491d:	48 83 c4 20          	add    $0x20,%rsp
  204921:	c3                   	retq   
  204922:	cc                   	int3   
  204923:	cc                   	int3   
  204924:	cc                   	int3   
  204925:	cc                   	int3   
  204926:	cc                   	int3   
  204927:	cc                   	int3   
  204928:	cc                   	int3   
  204929:	cc                   	int3   
  20492a:	cc                   	int3   
  20492b:	cc                   	int3   
  20492c:	cc                   	int3   
  20492d:	cc                   	int3   
  20492e:	cc                   	int3   
  20492f:	cc                   	int3   

0000000000204930 <_ZN4core6option15Option$LT$T$GT$6as_ref17hb32e5710d5dee042E>:
    pub const fn as_ref(&self) -> Option<&T> {
  204930:	48 83 ec 20          	sub    $0x20,%rsp
  204934:	48 89 3c 24          	mov    %rdi,(%rsp)
  204938:	48 89 7c 24 10       	mov    %rdi,0x10(%rsp)
        match *self {
  20493d:	48 8b 07             	mov    (%rdi),%rax
  204940:	48 85 c0             	test   %rax,%rax
  204943:	74 06                	je     20494b <_ZN4core6option15Option$LT$T$GT$6as_ref17hb32e5710d5dee042E+0x1b>
  204945:	eb 00                	jmp    204947 <_ZN4core6option15Option$LT$T$GT$6as_ref17hb32e5710d5dee042E+0x17>
  204947:	eb 0d                	jmp    204956 <_ZN4core6option15Option$LT$T$GT$6as_ref17hb32e5710d5dee042E+0x26>
  204949:	0f 0b                	ud2    
            None => None,
  20494b:	48 c7 44 24 08 00 00 	movq   $0x0,0x8(%rsp)
  204952:	00 00 
  204954:	eb 12                	jmp    204968 <_ZN4core6option15Option$LT$T$GT$6as_ref17hb32e5710d5dee042E+0x38>
  204956:	48 8b 04 24          	mov    (%rsp),%rax
            Some(ref x) => Some(x),
  20495a:	48 83 c0 08          	add    $0x8,%rax
  20495e:	48 89 44 24 18       	mov    %rax,0x18(%rsp)
  204963:	48 89 44 24 08       	mov    %rax,0x8(%rsp)
    }
  204968:	48 8b 44 24 08       	mov    0x8(%rsp),%rax
  20496d:	48 83 c4 20          	add    $0x20,%rsp
  204971:	c3                   	retq   
  204972:	cc                   	int3   
  204973:	cc                   	int3   
  204974:	cc                   	int3   
  204975:	cc                   	int3   
  204976:	cc                   	int3   
  204977:	cc                   	int3   
  204978:	cc                   	int3   
  204979:	cc                   	int3   
  20497a:	cc                   	int3   
  20497b:	cc                   	int3   
  20497c:	cc                   	int3   
  20497d:	cc                   	int3   
  20497e:	cc                   	int3   
  20497f:	cc                   	int3   

0000000000204980 <_ZN4core6option15Option$LT$T$GT$6as_ref17hb788dc157266f297E>:
    pub const fn as_ref(&self) -> Option<&T> {
  204980:	48 83 ec 20          	sub    $0x20,%rsp
  204984:	48 89 3c 24          	mov    %rdi,(%rsp)
  204988:	48 89 7c 24 10       	mov    %rdi,0x10(%rsp)
        match *self {
  20498d:	48 8b 07             	mov    (%rdi),%rax
  204990:	48 85 c0             	test   %rax,%rax
  204993:	74 06                	je     20499b <_ZN4core6option15Option$LT$T$GT$6as_ref17hb788dc157266f297E+0x1b>
  204995:	eb 00                	jmp    204997 <_ZN4core6option15Option$LT$T$GT$6as_ref17hb788dc157266f297E+0x17>
  204997:	eb 0d                	jmp    2049a6 <_ZN4core6option15Option$LT$T$GT$6as_ref17hb788dc157266f297E+0x26>
  204999:	0f 0b                	ud2    
            None => None,
  20499b:	48 c7 44 24 08 00 00 	movq   $0x0,0x8(%rsp)
  2049a2:	00 00 
  2049a4:	eb 12                	jmp    2049b8 <_ZN4core6option15Option$LT$T$GT$6as_ref17hb788dc157266f297E+0x38>
  2049a6:	48 8b 04 24          	mov    (%rsp),%rax
            Some(ref x) => Some(x),
  2049aa:	48 83 c0 08          	add    $0x8,%rax
  2049ae:	48 89 44 24 18       	mov    %rax,0x18(%rsp)
  2049b3:	48 89 44 24 08       	mov    %rax,0x8(%rsp)
    }
  2049b8:	48 8b 44 24 08       	mov    0x8(%rsp),%rax
  2049bd:	48 83 c4 20          	add    $0x20,%rsp
  2049c1:	c3                   	retq   
  2049c2:	cc                   	int3   
  2049c3:	cc                   	int3   
  2049c4:	cc                   	int3   
  2049c5:	cc                   	int3   
  2049c6:	cc                   	int3   
  2049c7:	cc                   	int3   
  2049c8:	cc                   	int3   
  2049c9:	cc                   	int3   
  2049ca:	cc                   	int3   
  2049cb:	cc                   	int3   
  2049cc:	cc                   	int3   
  2049cd:	cc                   	int3   
  2049ce:	cc                   	int3   
  2049cf:	cc                   	int3   

00000000002049d0 <_ZN4core6option15Option$LT$T$GT$6as_ref17he23472d61c0ffa4bE>:
    pub const fn as_ref(&self) -> Option<&T> {
  2049d0:	48 83 ec 20          	sub    $0x20,%rsp
  2049d4:	48 89 3c 24          	mov    %rdi,(%rsp)
  2049d8:	48 89 7c 24 10       	mov    %rdi,0x10(%rsp)
        match *self {
  2049dd:	48 8b 07             	mov    (%rdi),%rax
  2049e0:	48 83 c0 fe          	add    $0xfffffffffffffffe,%rax
  2049e4:	0f 95 c0             	setne  %al
  2049e7:	0f b6 c0             	movzbl %al,%eax
  2049ea:	74 06                	je     2049f2 <_ZN4core6option15Option$LT$T$GT$6as_ref17he23472d61c0ffa4bE+0x22>
  2049ec:	eb 00                	jmp    2049ee <_ZN4core6option15Option$LT$T$GT$6as_ref17he23472d61c0ffa4bE+0x1e>
  2049ee:	eb 0d                	jmp    2049fd <_ZN4core6option15Option$LT$T$GT$6as_ref17he23472d61c0ffa4bE+0x2d>
  2049f0:	0f 0b                	ud2    
            None => None,
  2049f2:	48 c7 44 24 08 00 00 	movq   $0x0,0x8(%rsp)
  2049f9:	00 00 
  2049fb:	eb 0e                	jmp    204a0b <_ZN4core6option15Option$LT$T$GT$6as_ref17he23472d61c0ffa4bE+0x3b>
  2049fd:	48 8b 04 24          	mov    (%rsp),%rax
            Some(ref x) => Some(x),
  204a01:	48 89 44 24 18       	mov    %rax,0x18(%rsp)
  204a06:	48 89 44 24 08       	mov    %rax,0x8(%rsp)
    }
  204a0b:	48 8b 44 24 08       	mov    0x8(%rsp),%rax
  204a10:	48 83 c4 20          	add    $0x20,%rsp
  204a14:	c3                   	retq   
  204a15:	cc                   	int3   
  204a16:	cc                   	int3   
  204a17:	cc                   	int3   
  204a18:	cc                   	int3   
  204a19:	cc                   	int3   
  204a1a:	cc                   	int3   
  204a1b:	cc                   	int3   
  204a1c:	cc                   	int3   
  204a1d:	cc                   	int3   
  204a1e:	cc                   	int3   
  204a1f:	cc                   	int3   

0000000000204a20 <_ZN4core6option15Option$LT$T$GT$6unwrap17h0214e307054b4802E>:
    /// ```
    #[inline]
    #[track_caller]
    #[stable(feature = "rust1", since = "1.0.0")]
    #[rustc_const_unstable(feature = "const_option", issue = "67441")]
    pub const fn unwrap(self) -> T {
  204a20:	48 83 ec 28          	sub    $0x28,%rsp
  204a24:	48 89 54 24 08       	mov    %rdx,0x8(%rsp)
  204a29:	48 89 7c 24 10       	mov    %rdi,0x10(%rsp)
  204a2e:	48 89 74 24 18       	mov    %rsi,0x18(%rsp)
        match self {
  204a33:	48 8b 44 24 10       	mov    0x10(%rsp),%rax
  204a38:	48 85 c0             	test   %rax,%rax
  204a3b:	74 06                	je     204a43 <_ZN4core6option15Option$LT$T$GT$6unwrap17h0214e307054b4802E+0x23>
  204a3d:	eb 00                	jmp    204a3f <_ZN4core6option15Option$LT$T$GT$6unwrap17h0214e307054b4802E+0x1f>
  204a3f:	eb 1a                	jmp    204a5b <_ZN4core6option15Option$LT$T$GT$6unwrap17h0214e307054b4802E+0x3b>
  204a41:	0f 0b                	ud2    
  204a43:	48 8b 54 24 08       	mov    0x8(%rsp),%rdx
            Some(val) => val,
            None => panic!("called `Option::unwrap()` on a `None` value"),
  204a48:	48 8d 3d a8 ba ff ff 	lea    -0x4558(%rip),%rdi        # 2004f7 <_ZN9r3_kernel3cpu8segments10KERNEL_TSS17hb62bd72f0f4df038E+0x80>
  204a4f:	be 2b 00 00 00       	mov    $0x2b,%esi
  204a54:	e8 37 a4 00 00       	callq  20ee90 <_ZN4core9panicking5panic17hb5e1b99c05020429E>
  204a59:	0f 0b                	ud2    
            Some(val) => val,
  204a5b:	48 8b 44 24 18       	mov    0x18(%rsp),%rax
  204a60:	48 89 44 24 20       	mov    %rax,0x20(%rsp)
        }
    }
  204a65:	48 83 c4 28          	add    $0x28,%rsp
  204a69:	c3                   	retq   
  204a6a:	cc                   	int3   
  204a6b:	cc                   	int3   
  204a6c:	cc                   	int3   
  204a6d:	cc                   	int3   
  204a6e:	cc                   	int3   
  204a6f:	cc                   	int3   

0000000000204a70 <_ZN4core6option15Option$LT$T$GT$6unwrap17hbbf896873896ed21E>:
    pub const fn unwrap(self) -> T {
  204a70:	48 83 ec 18          	sub    $0x18,%rsp
  204a74:	48 89 34 24          	mov    %rsi,(%rsp)
  204a78:	48 89 7c 24 08       	mov    %rdi,0x8(%rsp)
        match self {
  204a7d:	48 8b 44 24 08       	mov    0x8(%rsp),%rax
  204a82:	48 85 c0             	test   %rax,%rax
  204a85:	0f 95 c0             	setne  %al
  204a88:	0f b6 c0             	movzbl %al,%eax
  204a8b:	74 06                	je     204a93 <_ZN4core6option15Option$LT$T$GT$6unwrap17hbbf896873896ed21E+0x23>
  204a8d:	eb 00                	jmp    204a8f <_ZN4core6option15Option$LT$T$GT$6unwrap17hbbf896873896ed21E+0x1f>
  204a8f:	eb 19                	jmp    204aaa <_ZN4core6option15Option$LT$T$GT$6unwrap17hbbf896873896ed21E+0x3a>
  204a91:	0f 0b                	ud2    
  204a93:	48 8b 14 24          	mov    (%rsp),%rdx
            None => panic!("called `Option::unwrap()` on a `None` value"),
  204a97:	48 8d 3d 59 ba ff ff 	lea    -0x45a7(%rip),%rdi        # 2004f7 <_ZN9r3_kernel3cpu8segments10KERNEL_TSS17hb62bd72f0f4df038E+0x80>
  204a9e:	be 2b 00 00 00       	mov    $0x2b,%esi
  204aa3:	e8 e8 a3 00 00       	callq  20ee90 <_ZN4core9panicking5panic17hb5e1b99c05020429E>
  204aa8:	0f 0b                	ud2    
            Some(val) => val,
  204aaa:	48 8b 44 24 08       	mov    0x8(%rsp),%rax
  204aaf:	48 89 44 24 10       	mov    %rax,0x10(%rsp)
    }
  204ab4:	48 83 c4 18          	add    $0x18,%rsp
  204ab8:	c3                   	retq   
  204ab9:	cc                   	int3   
  204aba:	cc                   	int3   
  204abb:	cc                   	int3   
  204abc:	cc                   	int3   
  204abd:	cc                   	int3   
  204abe:	cc                   	int3   
  204abf:	cc                   	int3   

0000000000204ac0 <_ZN4core6option15Option$LT$T$GT$6unwrap17hc6b8546214314199E>:
    pub const fn unwrap(self) -> T {
  204ac0:	48 83 ec 18          	sub    $0x18,%rsp
  204ac4:	48 89 34 24          	mov    %rsi,(%rsp)
  204ac8:	48 89 7c 24 08       	mov    %rdi,0x8(%rsp)
        match self {
  204acd:	48 8b 44 24 08       	mov    0x8(%rsp),%rax
  204ad2:	48 85 c0             	test   %rax,%rax
  204ad5:	0f 95 c0             	setne  %al
  204ad8:	0f b6 c0             	movzbl %al,%eax
  204adb:	74 06                	je     204ae3 <_ZN4core6option15Option$LT$T$GT$6unwrap17hc6b8546214314199E+0x23>
  204add:	eb 00                	jmp    204adf <_ZN4core6option15Option$LT$T$GT$6unwrap17hc6b8546214314199E+0x1f>
  204adf:	eb 19                	jmp    204afa <_ZN4core6option15Option$LT$T$GT$6unwrap17hc6b8546214314199E+0x3a>
  204ae1:	0f 0b                	ud2    
  204ae3:	48 8b 14 24          	mov    (%rsp),%rdx
            None => panic!("called `Option::unwrap()` on a `None` value"),
  204ae7:	48 8d 3d 09 ba ff ff 	lea    -0x45f7(%rip),%rdi        # 2004f7 <_ZN9r3_kernel3cpu8segments10KERNEL_TSS17hb62bd72f0f4df038E+0x80>
  204aee:	be 2b 00 00 00       	mov    $0x2b,%esi
  204af3:	e8 98 a3 00 00       	callq  20ee90 <_ZN4core9panicking5panic17hb5e1b99c05020429E>
  204af8:	0f 0b                	ud2    
            Some(val) => val,
  204afa:	48 8b 44 24 08       	mov    0x8(%rsp),%rax
  204aff:	48 89 44 24 10       	mov    %rax,0x10(%rsp)
    }
  204b04:	48 83 c4 18          	add    $0x18,%rsp
  204b08:	c3                   	retq   
  204b09:	cc                   	int3   
  204b0a:	cc                   	int3   
  204b0b:	cc                   	int3   
  204b0c:	cc                   	int3   
  204b0d:	cc                   	int3   
  204b0e:	cc                   	int3   
  204b0f:	cc                   	int3   

0000000000204b10 <_ZN4core6option15Option$LT$T$GT$7is_some17hf8aefa45402bfb24E>:
    pub const fn is_some(&self) -> bool {
  204b10:	48 83 ec 10          	sub    $0x10,%rsp
  204b14:	48 89 7c 24 08       	mov    %rdi,0x8(%rsp)
        matches!(*self, Some(_))
  204b19:	48 83 3f 01          	cmpq   $0x1,(%rdi)
  204b1d:	75 07                	jne    204b26 <_ZN4core6option15Option$LT$T$GT$7is_some17hf8aefa45402bfb24E+0x16>
  204b1f:	c6 44 24 07 01       	movb   $0x1,0x7(%rsp)
  204b24:	eb 05                	jmp    204b2b <_ZN4core6option15Option$LT$T$GT$7is_some17hf8aefa45402bfb24E+0x1b>
  204b26:	c6 44 24 07 00       	movb   $0x0,0x7(%rsp)
    }
  204b2b:	8a 44 24 07          	mov    0x7(%rsp),%al
  204b2f:	24 01                	and    $0x1,%al
  204b31:	0f b6 c0             	movzbl %al,%eax
  204b34:	48 83 c4 10          	add    $0x10,%rsp
  204b38:	c3                   	retq   
  204b39:	cc                   	int3   
  204b3a:	cc                   	int3   
  204b3b:	cc                   	int3   
  204b3c:	cc                   	int3   
  204b3d:	cc                   	int3   
  204b3e:	cc                   	int3   
  204b3f:	cc                   	int3   

0000000000204b40 <_ZN4core6option19Option$LT$$RF$T$GT$6copied17h5feef6fcd2d2c583E>:
    /// let copied = opt_x.copied();
    /// assert_eq!(copied, Some(12));
    /// ```
    #[stable(feature = "copied", since = "1.35.0")]
    #[rustc_const_unstable(feature = "const_option", issue = "67441")]
    pub const fn copied(self) -> Option<T> {
  204b40:	48 83 ec 10          	sub    $0x10,%rsp
  204b44:	48 89 3c 24          	mov    %rdi,(%rsp)
        // FIXME: this implementation, which sidesteps using `Option::map` since it's not const
        // ready yet, should be reverted when possible to avoid code repetition
        match self {
  204b48:	48 8b 04 24          	mov    (%rsp),%rax
  204b4c:	48 85 c0             	test   %rax,%rax
  204b4f:	0f 95 c0             	setne  %al
  204b52:	0f b6 c0             	movzbl %al,%eax
  204b55:	74 06                	je     204b5d <_ZN4core6option19Option$LT$$RF$T$GT$6copied17h5feef6fcd2d2c583E+0x1d>
  204b57:	eb 00                	jmp    204b59 <_ZN4core6option19Option$LT$$RF$T$GT$6copied17h5feef6fcd2d2c583E+0x19>
  204b59:	eb 09                	jmp    204b64 <_ZN4core6option19Option$LT$$RF$T$GT$6copied17h5feef6fcd2d2c583E+0x24>
  204b5b:	0f 0b                	ud2    
            Some(&v) => Some(v),
            None => None,
  204b5d:	c6 44 24 08 00       	movb   $0x0,0x8(%rsp)
  204b62:	eb 13                	jmp    204b77 <_ZN4core6option19Option$LT$$RF$T$GT$6copied17h5feef6fcd2d2c583E+0x37>
            Some(&v) => Some(v),
  204b64:	48 8b 04 24          	mov    (%rsp),%rax
  204b68:	8a 00                	mov    (%rax),%al
  204b6a:	88 44 24 0f          	mov    %al,0xf(%rsp)
  204b6e:	88 44 24 09          	mov    %al,0x9(%rsp)
  204b72:	c6 44 24 08 01       	movb   $0x1,0x8(%rsp)
        }
    }
  204b77:	8a 44 24 08          	mov    0x8(%rsp),%al
  204b7b:	8a 54 24 09          	mov    0x9(%rsp),%dl
  204b7f:	48 83 c4 10          	add    $0x10,%rsp
  204b83:	c3                   	retq   
  204b84:	cc                   	int3   
  204b85:	cc                   	int3   
  204b86:	cc                   	int3   
  204b87:	cc                   	int3   
  204b88:	cc                   	int3   
  204b89:	cc                   	int3   
  204b8a:	cc                   	int3   
  204b8b:	cc                   	int3   
  204b8c:	cc                   	int3   
  204b8d:	cc                   	int3   
  204b8e:	cc                   	int3   
  204b8f:	cc                   	int3   

0000000000204b90 <_ZN3log13set_max_level17hde76aa4dc95feb85E>:
pub fn set_max_level(level: LevelFilter) {
  204b90:	48 83 ec 18          	sub    $0x18,%rsp
  204b94:	48 89 fe             	mov    %rdi,%rsi
  204b97:	48 89 74 24 10       	mov    %rsi,0x10(%rsp)
    MAX_LOG_LEVEL_FILTER.store(level as usize, Ordering::SeqCst)
  204b9c:	c6 44 24 0f 04       	movb   $0x4,0xf(%rsp)
  204ba1:	48 8b 3d 40 ef 00 00 	mov    0xef40(%rip),%rdi        # 213ae8 <anon.3bd2d5117e953c23f99d470f07b1e03a.2.llvm.2324975589069524467+0x60>
  204ba8:	0f b6 54 24 0f       	movzbl 0xf(%rsp),%edx
  204bad:	e8 5e 5d 00 00       	callq  20a910 <_ZN4core4sync6atomic11AtomicUsize5store17h5dd1fdb8f532295fE>
}
  204bb2:	48 83 c4 18          	add    $0x18,%rsp
  204bb6:	c3                   	retq   
  204bb7:	cc                   	int3   
  204bb8:	cc                   	int3   
  204bb9:	cc                   	int3   
  204bba:	cc                   	int3   
  204bbb:	cc                   	int3   
  204bbc:	cc                   	int3   
  204bbd:	cc                   	int3   
  204bbe:	cc                   	int3   
  204bbf:	cc                   	int3   

0000000000204bc0 <_ZN3log6Record4args17h00da0becc25b6d80E>:
    pub fn args(&self) -> &fmt::Arguments<'a> {
  204bc0:	50                   	push   %rax
  204bc1:	48 89 f8             	mov    %rdi,%rax
  204bc4:	48 89 04 24          	mov    %rax,(%rsp)
        &self.args
  204bc8:	48 83 c0 18          	add    $0x18,%rax
    }
  204bcc:	59                   	pop    %rcx
  204bcd:	c3                   	retq   
  204bce:	cc                   	int3   
  204bcf:	cc                   	int3   

0000000000204bd0 <_ZN3log6Record5level17h9ec9075ad9e549b9E>:
    pub fn level(&self) -> Level {
  204bd0:	48 83 ec 18          	sub    $0x18,%rsp
  204bd4:	48 89 7c 24 10       	mov    %rdi,0x10(%rsp)
        self.metadata.level()
  204bd9:	e8 42 00 00 00       	callq  204c20 <_ZN3log8Metadata5level17h4faf105409024f8aE>
  204bde:	48 89 44 24 08       	mov    %rax,0x8(%rsp)
  204be3:	48 8b 44 24 08       	mov    0x8(%rsp),%rax
    }
  204be8:	48 83 c4 18          	add    $0x18,%rsp
  204bec:	c3                   	retq   
  204bed:	cc                   	int3   
  204bee:	cc                   	int3   
  204bef:	cc                   	int3   

0000000000204bf0 <_ZN3log6Record6target17h7f5fb57e8f9ebb4eE>:
    pub fn target(&self) -> &'a str {
  204bf0:	48 83 ec 18          	sub    $0x18,%rsp
  204bf4:	48 89 7c 24 10       	mov    %rdi,0x10(%rsp)
        self.metadata.target()
  204bf9:	e8 32 00 00 00       	callq  204c30 <_ZN3log8Metadata6target17hd479539607d524cfE>
  204bfe:	48 89 04 24          	mov    %rax,(%rsp)
  204c02:	48 89 54 24 08       	mov    %rdx,0x8(%rsp)
  204c07:	48 8b 54 24 08       	mov    0x8(%rsp),%rdx
  204c0c:	48 8b 04 24          	mov    (%rsp),%rax
    }
  204c10:	48 83 c4 18          	add    $0x18,%rsp
  204c14:	c3                   	retq   
  204c15:	cc                   	int3   
  204c16:	cc                   	int3   
  204c17:	cc                   	int3   
  204c18:	cc                   	int3   
  204c19:	cc                   	int3   
  204c1a:	cc                   	int3   
  204c1b:	cc                   	int3   
  204c1c:	cc                   	int3   
  204c1d:	cc                   	int3   
  204c1e:	cc                   	int3   
  204c1f:	cc                   	int3   

0000000000204c20 <_ZN3log8Metadata5level17h4faf105409024f8aE>:
    pub fn level(&self) -> Level {
  204c20:	50                   	push   %rax
  204c21:	48 89 3c 24          	mov    %rdi,(%rsp)
        self.level
  204c25:	48 8b 07             	mov    (%rdi),%rax
    }
  204c28:	59                   	pop    %rcx
  204c29:	c3                   	retq   
  204c2a:	cc                   	int3   
  204c2b:	cc                   	int3   
  204c2c:	cc                   	int3   
  204c2d:	cc                   	int3   
  204c2e:	cc                   	int3   
  204c2f:	cc                   	int3   

0000000000204c30 <_ZN3log8Metadata6target17hd479539607d524cfE>:
    pub fn target(&self) -> &'a str {
  204c30:	50                   	push   %rax
  204c31:	48 89 3c 24          	mov    %rdi,(%rsp)
        self.target
  204c35:	48 8b 47 08          	mov    0x8(%rdi),%rax
  204c39:	48 8b 57 10          	mov    0x10(%rdi),%rdx
    }
  204c3d:	59                   	pop    %rcx
  204c3e:	c3                   	retq   
  204c3f:	cc                   	int3   

0000000000204c40 <_ZN76_$LT$log..Level$u20$as$u20$core..cmp..PartialOrd$LT$log..LevelFilter$GT$$GT$2le17h378b9a848e58149aE>:
    fn le(&self, other: &LevelFilter) -> bool {
  204c40:	48 83 ec 10          	sub    $0x10,%rsp
  204c44:	48 89 3c 24          	mov    %rdi,(%rsp)
  204c48:	48 89 74 24 08       	mov    %rsi,0x8(%rsp)
        *self as usize <= *other as usize
  204c4d:	48 8b 07             	mov    (%rdi),%rax
  204c50:	48 8b 0e             	mov    (%rsi),%rcx
  204c53:	48 39 c8             	cmp    %rcx,%rax
  204c56:	0f 96 c0             	setbe  %al
    }
  204c59:	24 01                	and    $0x1,%al
  204c5b:	0f b6 c0             	movzbl %al,%eax
  204c5e:	48 83 c4 10          	add    $0x10,%rsp
  204c62:	c3                   	retq   
  204c63:	cc                   	int3   
  204c64:	cc                   	int3   
  204c65:	cc                   	int3   
  204c66:	cc                   	int3   
  204c67:	cc                   	int3   
  204c68:	cc                   	int3   
  204c69:	cc                   	int3   
  204c6a:	cc                   	int3   
  204c6b:	cc                   	int3   
  204c6c:	cc                   	int3   
  204c6d:	cc                   	int3   
  204c6e:	cc                   	int3   
  204c6f:	cc                   	int3   

0000000000204c70 <_ZN84_$LT$r3_kernel..cpu..interrupts..InterruptStackFrame$u20$as$u20$core..fmt..Debug$GT$3fmt17h17704686073dfe8aE>:
    pub stack_pointer: u64,
    pub stack_segment: u64,
}

impl fmt::Debug for InterruptStackFrame {
    fn fmt(&self, f: &mut fmt::Formatter) -> fmt::Result {
  204c70:	48 83 ec 48          	sub    $0x48,%rsp
  204c74:	48 89 74 24 08       	mov    %rsi,0x8(%rsp)
  204c79:	48 89 f8             	mov    %rdi,%rax
  204c7c:	48 8b 7c 24 08       	mov    0x8(%rsp),%rdi
  204c81:	48 89 44 24 10       	mov    %rax,0x10(%rsp)
  204c86:	48 89 44 24 28       	mov    %rax,0x28(%rsp)
  204c8b:	48 89 7c 24 30       	mov    %rdi,0x30(%rsp)
        let mut format_string = f.debug_struct("Exception Info");
  204c90:	48 8d 35 8b b8 ff ff 	lea    -0x4775(%rip),%rsi        # 200522 <_ZN9r3_kernel3cpu8segments10KERNEL_TSS17hb62bd72f0f4df038E+0xab>
  204c97:	ba 0e 00 00 00       	mov    $0xe,%edx
  204c9c:	e8 bf c0 00 00       	callq  210d60 <_ZN4core3fmt9Formatter12debug_struct17h5d99847e6c2ca81bE>
  204ca1:	48 89 54 24 40       	mov    %rdx,0x40(%rsp)
  204ca6:	48 89 44 24 38       	mov    %rax,0x38(%rsp)
  204cab:	48 8b 44 24 38       	mov    0x38(%rsp),%rax
  204cb0:	48 89 44 24 18       	mov    %rax,0x18(%rsp)
  204cb5:	48 8b 44 24 40       	mov    0x40(%rsp),%rax
  204cba:	48 89 44 24 20       	mov    %rax,0x20(%rsp)
  204cbf:	48 8b 4c 24 10       	mov    0x10(%rsp),%rcx
        format_string.field("instruction_pointer", &self.instruction_pointer);
  204cc4:	48 8d 7c 24 18       	lea    0x18(%rsp),%rdi
  204cc9:	48 8d 35 60 b8 ff ff 	lea    -0x47a0(%rip),%rsi        # 200530 <_ZN9r3_kernel3cpu8segments10KERNEL_TSS17hb62bd72f0f4df038E+0xb9>
  204cd0:	ba 13 00 00 00       	mov    $0x13,%edx
  204cd5:	4c 8d 05 4c df 00 00 	lea    0xdf4c(%rip),%r8        # 212c28 <memset+0x1348>
  204cdc:	e8 cf 99 00 00       	callq  20e6b0 <_ZN4core3fmt8builders11DebugStruct5field17h33771043526642b6E>
  204ce1:	48 8b 4c 24 10       	mov    0x10(%rsp),%rcx
        format_string.field("code_segment", &self.code_segment);
  204ce6:	48 83 c1 08          	add    $0x8,%rcx
  204cea:	48 8d 7c 24 18       	lea    0x18(%rsp),%rdi
  204cef:	48 8d 35 4d b8 ff ff 	lea    -0x47b3(%rip),%rsi        # 200543 <_ZN9r3_kernel3cpu8segments10KERNEL_TSS17hb62bd72f0f4df038E+0xcc>
  204cf6:	ba 0c 00 00 00       	mov    $0xc,%edx
  204cfb:	4c 8d 05 26 df 00 00 	lea    0xdf26(%rip),%r8        # 212c28 <memset+0x1348>
  204d02:	e8 a9 99 00 00       	callq  20e6b0 <_ZN4core3fmt8builders11DebugStruct5field17h33771043526642b6E>
  204d07:	48 8b 4c 24 10       	mov    0x10(%rsp),%rcx
        format_string.field("cpu_flags", &self.cpu_flags);
  204d0c:	48 83 c1 10          	add    $0x10,%rcx
  204d10:	48 8d 7c 24 18       	lea    0x18(%rsp),%rdi
  204d15:	48 8d 35 33 b8 ff ff 	lea    -0x47cd(%rip),%rsi        # 20054f <_ZN9r3_kernel3cpu8segments10KERNEL_TSS17hb62bd72f0f4df038E+0xd8>
  204d1c:	ba 09 00 00 00       	mov    $0x9,%edx
  204d21:	4c 8d 05 00 df 00 00 	lea    0xdf00(%rip),%r8        # 212c28 <memset+0x1348>
  204d28:	e8 83 99 00 00       	callq  20e6b0 <_ZN4core3fmt8builders11DebugStruct5field17h33771043526642b6E>
  204d2d:	48 8b 4c 24 10       	mov    0x10(%rsp),%rcx
        format_string.field("stack_pointer", &self.stack_pointer);
  204d32:	48 83 c1 18          	add    $0x18,%rcx
  204d36:	48 8d 7c 24 18       	lea    0x18(%rsp),%rdi
  204d3b:	48 8d 35 16 b8 ff ff 	lea    -0x47ea(%rip),%rsi        # 200558 <_ZN9r3_kernel3cpu8segments10KERNEL_TSS17hb62bd72f0f4df038E+0xe1>
  204d42:	ba 0d 00 00 00       	mov    $0xd,%edx
  204d47:	4c 8d 05 da de 00 00 	lea    0xdeda(%rip),%r8        # 212c28 <memset+0x1348>
  204d4e:	e8 5d 99 00 00       	callq  20e6b0 <_ZN4core3fmt8builders11DebugStruct5field17h33771043526642b6E>
  204d53:	48 8b 4c 24 10       	mov    0x10(%rsp),%rcx
        format_string.field("stack_segment", &self.stack_segment);
  204d58:	48 83 c1 20          	add    $0x20,%rcx
  204d5c:	48 8d 7c 24 18       	lea    0x18(%rsp),%rdi
  204d61:	48 8d 35 fd b7 ff ff 	lea    -0x4803(%rip),%rsi        # 200565 <_ZN9r3_kernel3cpu8segments10KERNEL_TSS17hb62bd72f0f4df038E+0xee>
  204d68:	ba 0d 00 00 00       	mov    $0xd,%edx
  204d6d:	4c 8d 05 b4 de 00 00 	lea    0xdeb4(%rip),%r8        # 212c28 <memset+0x1348>
  204d74:	e8 37 99 00 00       	callq  20e6b0 <_ZN4core3fmt8builders11DebugStruct5field17h33771043526642b6E>

        format_string.finish()
  204d79:	48 8d 7c 24 18       	lea    0x18(%rsp),%rdi
  204d7e:	e8 ed 9a 00 00       	callq  20e870 <_ZN4core3fmt8builders11DebugStruct6finish17hc529cf49026acc64E>
  204d83:	88 44 24 07          	mov    %al,0x7(%rsp)
  204d87:	8a 44 24 07          	mov    0x7(%rsp),%al
    }
  204d8b:	24 01                	and    $0x1,%al
  204d8d:	0f b6 c0             	movzbl %al,%eax
  204d90:	48 83 c4 48          	add    $0x48,%rsp
  204d94:	c3                   	retq   
  204d95:	cc                   	int3   
  204d96:	cc                   	int3   
  204d97:	cc                   	int3   
  204d98:	cc                   	int3   
  204d99:	cc                   	int3   
  204d9a:	cc                   	int3   
  204d9b:	cc                   	int3   
  204d9c:	cc                   	int3   
  204d9d:	cc                   	int3   
  204d9e:	cc                   	int3   
  204d9f:	cc                   	int3   

0000000000204da0 <_ZN9r3_kernel3cpu10interrupts24InterruptDescriptorTable5empty17he645bac9df5f28f0E>:
    reserved_3: InterruptDescriptorEntry<DefaultHandlerFunction>,
    interrupts: [InterruptDescriptorEntry<DefaultHandlerFunction>; 256 - 32],
}

impl InterruptDescriptorTable {
    pub fn empty() -> Self {
  204da0:	48 81 ec f8 11 00 00 	sub    $0x11f8,%rsp
  204da7:	48 89 7c 24 38       	mov    %rdi,0x38(%rsp)
  204dac:	48 89 7c 24 40       	mov    %rdi,0x40(%rsp)
        InterruptDescriptorTable {
            divide_error: InterruptDescriptorEntry::empty(),
  204db1:	e8 7a 20 00 00       	callq  206e30 <_ZN9r3_kernel3cpu10interrupts33InterruptDescriptorEntry$LT$T$GT$5empty17h630d1891060b21e5E>
  204db6:	48 89 94 24 70 10 00 	mov    %rdx,0x1070(%rsp)
  204dbd:	00 
  204dbe:	48 89 84 24 68 10 00 	mov    %rax,0x1068(%rsp)
  204dc5:	00 
  204dc6:	48 8b 84 24 68 10 00 	mov    0x1068(%rsp),%rax
  204dcd:	00 
  204dce:	48 89 44 24 48       	mov    %rax,0x48(%rsp)
  204dd3:	48 8b 84 24 70 10 00 	mov    0x1070(%rsp),%rax
  204dda:	00 
  204ddb:	48 89 44 24 50       	mov    %rax,0x50(%rsp)
            debug: InterruptDescriptorEntry::empty(),
  204de0:	e8 4b 20 00 00       	callq  206e30 <_ZN9r3_kernel3cpu10interrupts33InterruptDescriptorEntry$LT$T$GT$5empty17h630d1891060b21e5E>
  204de5:	48 89 94 24 80 10 00 	mov    %rdx,0x1080(%rsp)
  204dec:	00 
  204ded:	48 89 84 24 78 10 00 	mov    %rax,0x1078(%rsp)
  204df4:	00 
  204df5:	48 8b 84 24 78 10 00 	mov    0x1078(%rsp),%rax
  204dfc:	00 
  204dfd:	48 89 44 24 58       	mov    %rax,0x58(%rsp)
  204e02:	48 8b 84 24 80 10 00 	mov    0x1080(%rsp),%rax
  204e09:	00 
  204e0a:	48 89 44 24 60       	mov    %rax,0x60(%rsp)
            non_maskable_interrupt: InterruptDescriptorEntry::empty(),
  204e0f:	e8 1c 20 00 00       	callq  206e30 <_ZN9r3_kernel3cpu10interrupts33InterruptDescriptorEntry$LT$T$GT$5empty17h630d1891060b21e5E>
  204e14:	48 89 94 24 90 10 00 	mov    %rdx,0x1090(%rsp)
  204e1b:	00 
  204e1c:	48 89 84 24 88 10 00 	mov    %rax,0x1088(%rsp)
  204e23:	00 
  204e24:	48 8b 84 24 88 10 00 	mov    0x1088(%rsp),%rax
  204e2b:	00 
  204e2c:	48 89 44 24 68       	mov    %rax,0x68(%rsp)
  204e31:	48 8b 84 24 90 10 00 	mov    0x1090(%rsp),%rax
  204e38:	00 
  204e39:	48 89 44 24 70       	mov    %rax,0x70(%rsp)
            breakpoint: InterruptDescriptorEntry::empty(),
  204e3e:	e8 ed 1f 00 00       	callq  206e30 <_ZN9r3_kernel3cpu10interrupts33InterruptDescriptorEntry$LT$T$GT$5empty17h630d1891060b21e5E>
  204e43:	48 89 94 24 a0 10 00 	mov    %rdx,0x10a0(%rsp)
  204e4a:	00 
  204e4b:	48 89 84 24 98 10 00 	mov    %rax,0x1098(%rsp)
  204e52:	00 
  204e53:	48 8b 84 24 98 10 00 	mov    0x1098(%rsp),%rax
  204e5a:	00 
  204e5b:	48 89 44 24 78       	mov    %rax,0x78(%rsp)
  204e60:	48 8b 84 24 a0 10 00 	mov    0x10a0(%rsp),%rax
  204e67:	00 
  204e68:	48 89 84 24 80 00 00 	mov    %rax,0x80(%rsp)
  204e6f:	00 
            overflow: InterruptDescriptorEntry::empty(),
  204e70:	e8 bb 1f 00 00       	callq  206e30 <_ZN9r3_kernel3cpu10interrupts33InterruptDescriptorEntry$LT$T$GT$5empty17h630d1891060b21e5E>
  204e75:	48 89 94 24 b0 10 00 	mov    %rdx,0x10b0(%rsp)
  204e7c:	00 
  204e7d:	48 89 84 24 a8 10 00 	mov    %rax,0x10a8(%rsp)
  204e84:	00 
  204e85:	48 8b 84 24 a8 10 00 	mov    0x10a8(%rsp),%rax
  204e8c:	00 
  204e8d:	48 89 84 24 88 00 00 	mov    %rax,0x88(%rsp)
  204e94:	00 
  204e95:	48 8b 84 24 b0 10 00 	mov    0x10b0(%rsp),%rax
  204e9c:	00 
  204e9d:	48 89 84 24 90 00 00 	mov    %rax,0x90(%rsp)
  204ea4:	00 
            bound_range_exceeded: InterruptDescriptorEntry::empty(),
  204ea5:	e8 86 1f 00 00       	callq  206e30 <_ZN9r3_kernel3cpu10interrupts33InterruptDescriptorEntry$LT$T$GT$5empty17h630d1891060b21e5E>
  204eaa:	48 89 94 24 c0 10 00 	mov    %rdx,0x10c0(%rsp)
  204eb1:	00 
  204eb2:	48 89 84 24 b8 10 00 	mov    %rax,0x10b8(%rsp)
  204eb9:	00 
  204eba:	48 8b 84 24 b8 10 00 	mov    0x10b8(%rsp),%rax
  204ec1:	00 
  204ec2:	48 89 84 24 98 00 00 	mov    %rax,0x98(%rsp)
  204ec9:	00 
  204eca:	48 8b 84 24 c0 10 00 	mov    0x10c0(%rsp),%rax
  204ed1:	00 
  204ed2:	48 89 84 24 a0 00 00 	mov    %rax,0xa0(%rsp)
  204ed9:	00 
            invalid_opcode: InterruptDescriptorEntry::empty(),
  204eda:	e8 51 1f 00 00       	callq  206e30 <_ZN9r3_kernel3cpu10interrupts33InterruptDescriptorEntry$LT$T$GT$5empty17h630d1891060b21e5E>
  204edf:	48 89 94 24 d0 10 00 	mov    %rdx,0x10d0(%rsp)
  204ee6:	00 
  204ee7:	48 89 84 24 c8 10 00 	mov    %rax,0x10c8(%rsp)
  204eee:	00 
  204eef:	48 8b 84 24 c8 10 00 	mov    0x10c8(%rsp),%rax
  204ef6:	00 
  204ef7:	48 89 84 24 a8 00 00 	mov    %rax,0xa8(%rsp)
  204efe:	00 
  204eff:	48 8b 84 24 d0 10 00 	mov    0x10d0(%rsp),%rax
  204f06:	00 
  204f07:	48 89 84 24 b0 00 00 	mov    %rax,0xb0(%rsp)
  204f0e:	00 
            device_not_available: InterruptDescriptorEntry::empty(),
  204f0f:	e8 1c 1f 00 00       	callq  206e30 <_ZN9r3_kernel3cpu10interrupts33InterruptDescriptorEntry$LT$T$GT$5empty17h630d1891060b21e5E>
  204f14:	48 89 94 24 e0 10 00 	mov    %rdx,0x10e0(%rsp)
  204f1b:	00 
  204f1c:	48 89 84 24 d8 10 00 	mov    %rax,0x10d8(%rsp)
  204f23:	00 
  204f24:	48 8b 84 24 d8 10 00 	mov    0x10d8(%rsp),%rax
  204f2b:	00 
  204f2c:	48 89 84 24 b8 00 00 	mov    %rax,0xb8(%rsp)
  204f33:	00 
  204f34:	48 8b 84 24 e0 10 00 	mov    0x10e0(%rsp),%rax
  204f3b:	00 
  204f3c:	48 89 84 24 c0 00 00 	mov    %rax,0xc0(%rsp)
  204f43:	00 
            double_fault: InterruptDescriptorEntry::empty(),
  204f44:	e8 67 1f 00 00       	callq  206eb0 <_ZN9r3_kernel3cpu10interrupts33InterruptDescriptorEntry$LT$T$GT$5empty17hf14332c24ab91231E>
  204f49:	48 89 94 24 f0 10 00 	mov    %rdx,0x10f0(%rsp)
  204f50:	00 
  204f51:	48 89 84 24 e8 10 00 	mov    %rax,0x10e8(%rsp)
  204f58:	00 
  204f59:	48 8b 84 24 e8 10 00 	mov    0x10e8(%rsp),%rax
  204f60:	00 
  204f61:	48 89 84 24 c8 00 00 	mov    %rax,0xc8(%rsp)
  204f68:	00 
  204f69:	48 8b 84 24 f0 10 00 	mov    0x10f0(%rsp),%rax
  204f70:	00 
  204f71:	48 89 84 24 d0 00 00 	mov    %rax,0xd0(%rsp)
  204f78:	00 
            coprocessor_segment_overrun: InterruptDescriptorEntry::empty(),
  204f79:	e8 b2 1e 00 00       	callq  206e30 <_ZN9r3_kernel3cpu10interrupts33InterruptDescriptorEntry$LT$T$GT$5empty17h630d1891060b21e5E>
  204f7e:	48 89 94 24 00 11 00 	mov    %rdx,0x1100(%rsp)
  204f85:	00 
  204f86:	48 89 84 24 f8 10 00 	mov    %rax,0x10f8(%rsp)
  204f8d:	00 
  204f8e:	48 8b 84 24 f8 10 00 	mov    0x10f8(%rsp),%rax
  204f95:	00 
  204f96:	48 89 84 24 d8 00 00 	mov    %rax,0xd8(%rsp)
  204f9d:	00 
  204f9e:	48 8b 84 24 00 11 00 	mov    0x1100(%rsp),%rax
  204fa5:	00 
  204fa6:	48 89 84 24 e0 00 00 	mov    %rax,0xe0(%rsp)
  204fad:	00 
            invalid_tss: InterruptDescriptorEntry::empty(),
  204fae:	e8 bd 1e 00 00       	callq  206e70 <_ZN9r3_kernel3cpu10interrupts33InterruptDescriptorEntry$LT$T$GT$5empty17hab90ef8d45026c4fE>
  204fb3:	48 89 94 24 10 11 00 	mov    %rdx,0x1110(%rsp)
  204fba:	00 
  204fbb:	48 89 84 24 08 11 00 	mov    %rax,0x1108(%rsp)
  204fc2:	00 
  204fc3:	48 8b 84 24 08 11 00 	mov    0x1108(%rsp),%rax
  204fca:	00 
  204fcb:	48 89 84 24 e8 00 00 	mov    %rax,0xe8(%rsp)
  204fd2:	00 
  204fd3:	48 8b 84 24 10 11 00 	mov    0x1110(%rsp),%rax
  204fda:	00 
  204fdb:	48 89 84 24 f0 00 00 	mov    %rax,0xf0(%rsp)
  204fe2:	00 
            segment_not_present: InterruptDescriptorEntry::empty(),
  204fe3:	e8 88 1e 00 00       	callq  206e70 <_ZN9r3_kernel3cpu10interrupts33InterruptDescriptorEntry$LT$T$GT$5empty17hab90ef8d45026c4fE>
  204fe8:	48 89 94 24 20 11 00 	mov    %rdx,0x1120(%rsp)
  204fef:	00 
  204ff0:	48 89 84 24 18 11 00 	mov    %rax,0x1118(%rsp)
  204ff7:	00 
  204ff8:	48 8b 84 24 18 11 00 	mov    0x1118(%rsp),%rax
  204fff:	00 
  205000:	48 89 84 24 f8 00 00 	mov    %rax,0xf8(%rsp)
  205007:	00 
  205008:	48 8b 84 24 20 11 00 	mov    0x1120(%rsp),%rax
  20500f:	00 
  205010:	48 89 84 24 00 01 00 	mov    %rax,0x100(%rsp)
  205017:	00 
            stack_segment_fault: InterruptDescriptorEntry::empty(),
  205018:	e8 53 1e 00 00       	callq  206e70 <_ZN9r3_kernel3cpu10interrupts33InterruptDescriptorEntry$LT$T$GT$5empty17hab90ef8d45026c4fE>
  20501d:	48 89 94 24 30 11 00 	mov    %rdx,0x1130(%rsp)
  205024:	00 
  205025:	48 89 84 24 28 11 00 	mov    %rax,0x1128(%rsp)
  20502c:	00 
  20502d:	48 8b 84 24 28 11 00 	mov    0x1128(%rsp),%rax
  205034:	00 
  205035:	48 89 84 24 08 01 00 	mov    %rax,0x108(%rsp)
  20503c:	00 
  20503d:	48 8b 84 24 30 11 00 	mov    0x1130(%rsp),%rax
  205044:	00 
  205045:	48 89 84 24 10 01 00 	mov    %rax,0x110(%rsp)
  20504c:	00 
            general_protection_fault: InterruptDescriptorEntry::empty(),
  20504d:	e8 1e 1e 00 00       	callq  206e70 <_ZN9r3_kernel3cpu10interrupts33InterruptDescriptorEntry$LT$T$GT$5empty17hab90ef8d45026c4fE>
  205052:	48 89 94 24 40 11 00 	mov    %rdx,0x1140(%rsp)
  205059:	00 
  20505a:	48 89 84 24 38 11 00 	mov    %rax,0x1138(%rsp)
  205061:	00 
  205062:	48 8b 84 24 38 11 00 	mov    0x1138(%rsp),%rax
  205069:	00 
  20506a:	48 89 84 24 18 01 00 	mov    %rax,0x118(%rsp)
  205071:	00 
  205072:	48 8b 84 24 40 11 00 	mov    0x1140(%rsp),%rax
  205079:	00 
  20507a:	48 89 84 24 20 01 00 	mov    %rax,0x120(%rsp)
  205081:	00 
            page_fault: InterruptDescriptorEntry::empty(),
  205082:	e8 e9 1d 00 00       	callq  206e70 <_ZN9r3_kernel3cpu10interrupts33InterruptDescriptorEntry$LT$T$GT$5empty17hab90ef8d45026c4fE>
  205087:	48 89 94 24 50 11 00 	mov    %rdx,0x1150(%rsp)
  20508e:	00 
  20508f:	48 89 84 24 48 11 00 	mov    %rax,0x1148(%rsp)
  205096:	00 
  205097:	48 8b 84 24 48 11 00 	mov    0x1148(%rsp),%rax
  20509e:	00 
  20509f:	48 89 84 24 28 01 00 	mov    %rax,0x128(%rsp)
  2050a6:	00 
  2050a7:	48 8b 84 24 50 11 00 	mov    0x1150(%rsp),%rax
  2050ae:	00 
  2050af:	48 89 84 24 30 01 00 	mov    %rax,0x130(%rsp)
  2050b6:	00 
            reserved_1: InterruptDescriptorEntry::empty(),
  2050b7:	e8 74 1d 00 00       	callq  206e30 <_ZN9r3_kernel3cpu10interrupts33InterruptDescriptorEntry$LT$T$GT$5empty17h630d1891060b21e5E>
  2050bc:	48 89 94 24 60 11 00 	mov    %rdx,0x1160(%rsp)
  2050c3:	00 
  2050c4:	48 89 84 24 58 11 00 	mov    %rax,0x1158(%rsp)
  2050cb:	00 
  2050cc:	48 8b 84 24 58 11 00 	mov    0x1158(%rsp),%rax
  2050d3:	00 
  2050d4:	48 89 84 24 38 01 00 	mov    %rax,0x138(%rsp)
  2050db:	00 
  2050dc:	48 8b 84 24 60 11 00 	mov    0x1160(%rsp),%rax
  2050e3:	00 
  2050e4:	48 89 84 24 40 01 00 	mov    %rax,0x140(%rsp)
  2050eb:	00 
            x87_floating_point: InterruptDescriptorEntry::empty(),
  2050ec:	e8 3f 1d 00 00       	callq  206e30 <_ZN9r3_kernel3cpu10interrupts33InterruptDescriptorEntry$LT$T$GT$5empty17h630d1891060b21e5E>
  2050f1:	48 89 94 24 70 11 00 	mov    %rdx,0x1170(%rsp)
  2050f8:	00 
  2050f9:	48 89 84 24 68 11 00 	mov    %rax,0x1168(%rsp)
  205100:	00 
  205101:	48 8b 84 24 68 11 00 	mov    0x1168(%rsp),%rax
  205108:	00 
  205109:	48 89 84 24 48 01 00 	mov    %rax,0x148(%rsp)
  205110:	00 
  205111:	48 8b 84 24 70 11 00 	mov    0x1170(%rsp),%rax
  205118:	00 
  205119:	48 89 84 24 50 01 00 	mov    %rax,0x150(%rsp)
  205120:	00 
            alignment_check: InterruptDescriptorEntry::empty(),
  205121:	e8 4a 1d 00 00       	callq  206e70 <_ZN9r3_kernel3cpu10interrupts33InterruptDescriptorEntry$LT$T$GT$5empty17hab90ef8d45026c4fE>
  205126:	48 89 94 24 80 11 00 	mov    %rdx,0x1180(%rsp)
  20512d:	00 
  20512e:	48 89 84 24 78 11 00 	mov    %rax,0x1178(%rsp)
  205135:	00 
  205136:	48 8b 84 24 78 11 00 	mov    0x1178(%rsp),%rax
  20513d:	00 
  20513e:	48 89 84 24 58 01 00 	mov    %rax,0x158(%rsp)
  205145:	00 
  205146:	48 8b 84 24 80 11 00 	mov    0x1180(%rsp),%rax
  20514d:	00 
  20514e:	48 89 84 24 60 01 00 	mov    %rax,0x160(%rsp)
  205155:	00 
            machine_check: InterruptDescriptorEntry::empty(),
  205156:	e8 95 1c 00 00       	callq  206df0 <_ZN9r3_kernel3cpu10interrupts33InterruptDescriptorEntry$LT$T$GT$5empty17h04c8c4937b73abf4E>
  20515b:	48 89 94 24 90 11 00 	mov    %rdx,0x1190(%rsp)
  205162:	00 
  205163:	48 89 84 24 88 11 00 	mov    %rax,0x1188(%rsp)
  20516a:	00 
  20516b:	48 8b 84 24 88 11 00 	mov    0x1188(%rsp),%rax
  205172:	00 
  205173:	48 89 84 24 68 01 00 	mov    %rax,0x168(%rsp)
  20517a:	00 
  20517b:	48 8b 84 24 90 11 00 	mov    0x1190(%rsp),%rax
  205182:	00 
  205183:	48 89 84 24 70 01 00 	mov    %rax,0x170(%rsp)
  20518a:	00 
            simd_floating_point: InterruptDescriptorEntry::empty(),
  20518b:	e8 a0 1c 00 00       	callq  206e30 <_ZN9r3_kernel3cpu10interrupts33InterruptDescriptorEntry$LT$T$GT$5empty17h630d1891060b21e5E>
  205190:	48 89 94 24 a0 11 00 	mov    %rdx,0x11a0(%rsp)
  205197:	00 
  205198:	48 89 84 24 98 11 00 	mov    %rax,0x1198(%rsp)
  20519f:	00 
  2051a0:	48 8b 84 24 98 11 00 	mov    0x1198(%rsp),%rax
  2051a7:	00 
  2051a8:	48 89 84 24 78 01 00 	mov    %rax,0x178(%rsp)
  2051af:	00 
  2051b0:	48 8b 84 24 a0 11 00 	mov    0x11a0(%rsp),%rax
  2051b7:	00 
  2051b8:	48 89 84 24 80 01 00 	mov    %rax,0x180(%rsp)
  2051bf:	00 
            virtualization: InterruptDescriptorEntry::empty(),
  2051c0:	e8 6b 1c 00 00       	callq  206e30 <_ZN9r3_kernel3cpu10interrupts33InterruptDescriptorEntry$LT$T$GT$5empty17h630d1891060b21e5E>
  2051c5:	48 89 94 24 b0 11 00 	mov    %rdx,0x11b0(%rsp)
  2051cc:	00 
  2051cd:	48 89 84 24 a8 11 00 	mov    %rax,0x11a8(%rsp)
  2051d4:	00 
  2051d5:	48 8b 84 24 a8 11 00 	mov    0x11a8(%rsp),%rax
  2051dc:	00 
  2051dd:	48 89 84 24 88 01 00 	mov    %rax,0x188(%rsp)
  2051e4:	00 
  2051e5:	48 8b 84 24 b0 11 00 	mov    0x11b0(%rsp),%rax
  2051ec:	00 
  2051ed:	48 89 84 24 90 01 00 	mov    %rax,0x190(%rsp)
  2051f4:	00 
            reserved_2: [InterruptDescriptorEntry::empty(); 9],
  2051f5:	e8 36 1c 00 00       	callq  206e30 <_ZN9r3_kernel3cpu10interrupts33InterruptDescriptorEntry$LT$T$GT$5empty17h630d1891060b21e5E>
  2051fa:	48 89 94 24 c0 11 00 	mov    %rdx,0x11c0(%rsp)
  205201:	00 
  205202:	48 89 84 24 b8 11 00 	mov    %rax,0x11b8(%rsp)
  205209:	00 
  20520a:	48 8b 84 24 b8 11 00 	mov    0x11b8(%rsp),%rax
  205211:	00 
  205212:	48 89 84 24 28 02 00 	mov    %rax,0x228(%rsp)
  205219:	00 
  20521a:	48 8b 84 24 c0 11 00 	mov    0x11c0(%rsp),%rax
  205221:	00 
  205222:	48 89 84 24 30 02 00 	mov    %rax,0x230(%rsp)
  205229:	00 
  20522a:	48 8d 84 24 98 01 00 	lea    0x198(%rsp),%rax
  205231:	00 
  205232:	48 8d 8c 24 98 01 00 	lea    0x198(%rsp),%rcx
  205239:	00 
  20523a:	48 81 c1 90 00 00 00 	add    $0x90,%rcx
  205241:	48 89 4c 24 28       	mov    %rcx,0x28(%rsp)
  205246:	48 89 44 24 30       	mov    %rax,0x30(%rsp)
  20524b:	48 8b 4c 24 28       	mov    0x28(%rsp),%rcx
  205250:	48 8b 44 24 30       	mov    0x30(%rsp),%rax
  205255:	48 89 44 24 20       	mov    %rax,0x20(%rsp)
  20525a:	48 39 c8             	cmp    %rcx,%rax
  20525d:	74 27                	je     205286 <_ZN9r3_kernel3cpu10interrupts24InterruptDescriptorTable5empty17he645bac9df5f28f0E+0x4e6>
  20525f:	48 8b 44 24 20       	mov    0x20(%rsp),%rax
  205264:	48 8b 8c 24 28 02 00 	mov    0x228(%rsp),%rcx
  20526b:	00 
  20526c:	48 89 08             	mov    %rcx,(%rax)
  20526f:	48 8b 8c 24 30 02 00 	mov    0x230(%rsp),%rcx
  205276:	00 
  205277:	48 89 48 08          	mov    %rcx,0x8(%rax)
  20527b:	48 83 c0 10          	add    $0x10,%rax
  20527f:	48 89 44 24 30       	mov    %rax,0x30(%rsp)
  205284:	eb c5                	jmp    20524b <_ZN9r3_kernel3cpu10interrupts24InterruptDescriptorTable5empty17he645bac9df5f28f0E+0x4ab>
            security_exception: InterruptDescriptorEntry::empty(),
  205286:	e8 e5 1b 00 00       	callq  206e70 <_ZN9r3_kernel3cpu10interrupts33InterruptDescriptorEntry$LT$T$GT$5empty17hab90ef8d45026c4fE>
  20528b:	48 89 94 24 d0 11 00 	mov    %rdx,0x11d0(%rsp)
  205292:	00 
  205293:	48 89 84 24 c8 11 00 	mov    %rax,0x11c8(%rsp)
  20529a:	00 
  20529b:	48 8b 84 24 c8 11 00 	mov    0x11c8(%rsp),%rax
  2052a2:	00 
  2052a3:	48 89 84 24 38 02 00 	mov    %rax,0x238(%rsp)
  2052aa:	00 
  2052ab:	48 8b 84 24 d0 11 00 	mov    0x11d0(%rsp),%rax
  2052b2:	00 
  2052b3:	48 89 84 24 40 02 00 	mov    %rax,0x240(%rsp)
  2052ba:	00 
            reserved_3: InterruptDescriptorEntry::empty(),
  2052bb:	e8 70 1b 00 00       	callq  206e30 <_ZN9r3_kernel3cpu10interrupts33InterruptDescriptorEntry$LT$T$GT$5empty17h630d1891060b21e5E>
  2052c0:	48 89 94 24 e0 11 00 	mov    %rdx,0x11e0(%rsp)
  2052c7:	00 
  2052c8:	48 89 84 24 d8 11 00 	mov    %rax,0x11d8(%rsp)
  2052cf:	00 
  2052d0:	48 8b 84 24 d8 11 00 	mov    0x11d8(%rsp),%rax
  2052d7:	00 
  2052d8:	48 89 84 24 48 02 00 	mov    %rax,0x248(%rsp)
  2052df:	00 
  2052e0:	48 8b 84 24 e0 11 00 	mov    0x11e0(%rsp),%rax
  2052e7:	00 
  2052e8:	48 89 84 24 50 02 00 	mov    %rax,0x250(%rsp)
  2052ef:	00 
            interrupts: [InterruptDescriptorEntry::empty(); 256 - 32],
  2052f0:	e8 3b 1b 00 00       	callq  206e30 <_ZN9r3_kernel3cpu10interrupts33InterruptDescriptorEntry$LT$T$GT$5empty17h630d1891060b21e5E>
  2052f5:	48 89 94 24 f0 11 00 	mov    %rdx,0x11f0(%rsp)
  2052fc:	00 
  2052fd:	48 89 84 24 e8 11 00 	mov    %rax,0x11e8(%rsp)
  205304:	00 
  205305:	48 8b 84 24 e8 11 00 	mov    0x11e8(%rsp),%rax
  20530c:	00 
  20530d:	48 89 84 24 58 10 00 	mov    %rax,0x1058(%rsp)
  205314:	00 
  205315:	48 8b 84 24 f0 11 00 	mov    0x11f0(%rsp),%rax
  20531c:	00 
  20531d:	48 89 84 24 60 10 00 	mov    %rax,0x1060(%rsp)
  205324:	00 
  205325:	48 8d 84 24 58 02 00 	lea    0x258(%rsp),%rax
  20532c:	00 
  20532d:	48 8d 8c 24 58 02 00 	lea    0x258(%rsp),%rcx
  205334:	00 
  205335:	48 81 c1 00 0e 00 00 	add    $0xe00,%rcx
  20533c:	48 89 4c 24 10       	mov    %rcx,0x10(%rsp)
  205341:	48 89 44 24 18       	mov    %rax,0x18(%rsp)
  205346:	48 8b 4c 24 10       	mov    0x10(%rsp),%rcx
  20534b:	48 8b 44 24 18       	mov    0x18(%rsp),%rax
  205350:	48 89 44 24 08       	mov    %rax,0x8(%rsp)
  205355:	48 39 c8             	cmp    %rcx,%rax
  205358:	74 27                	je     205381 <_ZN9r3_kernel3cpu10interrupts24InterruptDescriptorTable5empty17he645bac9df5f28f0E+0x5e1>
  20535a:	48 8b 44 24 08       	mov    0x8(%rsp),%rax
  20535f:	48 8b 8c 24 58 10 00 	mov    0x1058(%rsp),%rcx
  205366:	00 
  205367:	48 89 08             	mov    %rcx,(%rax)
  20536a:	48 8b 8c 24 60 10 00 	mov    0x1060(%rsp),%rcx
  205371:	00 
  205372:	48 89 48 08          	mov    %rcx,0x8(%rax)
  205376:	48 83 c0 10          	add    $0x10,%rax
  20537a:	48 89 44 24 18       	mov    %rax,0x18(%rsp)
  20537f:	eb c5                	jmp    205346 <_ZN9r3_kernel3cpu10interrupts24InterruptDescriptorTable5empty17he645bac9df5f28f0E+0x5a6>
  205381:	48 8b 7c 24 38       	mov    0x38(%rsp),%rdi
        InterruptDescriptorTable {
  205386:	48 8b 44 24 48       	mov    0x48(%rsp),%rax
  20538b:	48 89 07             	mov    %rax,(%rdi)
  20538e:	48 8b 44 24 50       	mov    0x50(%rsp),%rax
  205393:	48 89 47 08          	mov    %rax,0x8(%rdi)
  205397:	48 8b 44 24 58       	mov    0x58(%rsp),%rax
  20539c:	48 89 47 10          	mov    %rax,0x10(%rdi)
  2053a0:	48 8b 44 24 60       	mov    0x60(%rsp),%rax
  2053a5:	48 89 47 18          	mov    %rax,0x18(%rdi)
  2053a9:	48 8b 44 24 68       	mov    0x68(%rsp),%rax
  2053ae:	48 89 47 20          	mov    %rax,0x20(%rdi)
  2053b2:	48 8b 44 24 70       	mov    0x70(%rsp),%rax
  2053b7:	48 89 47 28          	mov    %rax,0x28(%rdi)
  2053bb:	48 8b 44 24 78       	mov    0x78(%rsp),%rax
  2053c0:	48 89 47 30          	mov    %rax,0x30(%rdi)
  2053c4:	48 8b 84 24 80 00 00 	mov    0x80(%rsp),%rax
  2053cb:	00 
  2053cc:	48 89 47 38          	mov    %rax,0x38(%rdi)
  2053d0:	48 8b 84 24 88 00 00 	mov    0x88(%rsp),%rax
  2053d7:	00 
  2053d8:	48 89 47 40          	mov    %rax,0x40(%rdi)
  2053dc:	48 8b 84 24 90 00 00 	mov    0x90(%rsp),%rax
  2053e3:	00 
  2053e4:	48 89 47 48          	mov    %rax,0x48(%rdi)
  2053e8:	48 8b 84 24 98 00 00 	mov    0x98(%rsp),%rax
  2053ef:	00 
  2053f0:	48 89 47 50          	mov    %rax,0x50(%rdi)
  2053f4:	48 8b 84 24 a0 00 00 	mov    0xa0(%rsp),%rax
  2053fb:	00 
  2053fc:	48 89 47 58          	mov    %rax,0x58(%rdi)
  205400:	48 8b 84 24 a8 00 00 	mov    0xa8(%rsp),%rax
  205407:	00 
  205408:	48 89 47 60          	mov    %rax,0x60(%rdi)
  20540c:	48 8b 84 24 b0 00 00 	mov    0xb0(%rsp),%rax
  205413:	00 
  205414:	48 89 47 68          	mov    %rax,0x68(%rdi)
  205418:	48 8b 84 24 b8 00 00 	mov    0xb8(%rsp),%rax
  20541f:	00 
  205420:	48 89 47 70          	mov    %rax,0x70(%rdi)
  205424:	48 8b 84 24 c0 00 00 	mov    0xc0(%rsp),%rax
  20542b:	00 
  20542c:	48 89 47 78          	mov    %rax,0x78(%rdi)
  205430:	48 8b 84 24 c8 00 00 	mov    0xc8(%rsp),%rax
  205437:	00 
  205438:	48 89 87 80 00 00 00 	mov    %rax,0x80(%rdi)
  20543f:	48 8b 84 24 d0 00 00 	mov    0xd0(%rsp),%rax
  205446:	00 
  205447:	48 89 87 88 00 00 00 	mov    %rax,0x88(%rdi)
  20544e:	48 8b 84 24 d8 00 00 	mov    0xd8(%rsp),%rax
  205455:	00 
  205456:	48 89 87 90 00 00 00 	mov    %rax,0x90(%rdi)
  20545d:	48 8b 84 24 e0 00 00 	mov    0xe0(%rsp),%rax
  205464:	00 
  205465:	48 89 87 98 00 00 00 	mov    %rax,0x98(%rdi)
  20546c:	48 8b 84 24 e8 00 00 	mov    0xe8(%rsp),%rax
  205473:	00 
  205474:	48 89 87 a0 00 00 00 	mov    %rax,0xa0(%rdi)
  20547b:	48 8b 84 24 f0 00 00 	mov    0xf0(%rsp),%rax
  205482:	00 
  205483:	48 89 87 a8 00 00 00 	mov    %rax,0xa8(%rdi)
  20548a:	48 8b 84 24 f8 00 00 	mov    0xf8(%rsp),%rax
  205491:	00 
  205492:	48 89 87 b0 00 00 00 	mov    %rax,0xb0(%rdi)
  205499:	48 8b 84 24 00 01 00 	mov    0x100(%rsp),%rax
  2054a0:	00 
  2054a1:	48 89 87 b8 00 00 00 	mov    %rax,0xb8(%rdi)
  2054a8:	48 8b 84 24 08 01 00 	mov    0x108(%rsp),%rax
  2054af:	00 
  2054b0:	48 89 87 c0 00 00 00 	mov    %rax,0xc0(%rdi)
  2054b7:	48 8b 84 24 10 01 00 	mov    0x110(%rsp),%rax
  2054be:	00 
  2054bf:	48 89 87 c8 00 00 00 	mov    %rax,0xc8(%rdi)
  2054c6:	48 8b 84 24 18 01 00 	mov    0x118(%rsp),%rax
  2054cd:	00 
  2054ce:	48 89 87 d0 00 00 00 	mov    %rax,0xd0(%rdi)
  2054d5:	48 8b 84 24 20 01 00 	mov    0x120(%rsp),%rax
  2054dc:	00 
  2054dd:	48 89 87 d8 00 00 00 	mov    %rax,0xd8(%rdi)
  2054e4:	48 8b 84 24 28 01 00 	mov    0x128(%rsp),%rax
  2054eb:	00 
  2054ec:	48 89 87 e0 00 00 00 	mov    %rax,0xe0(%rdi)
  2054f3:	48 8b 84 24 30 01 00 	mov    0x130(%rsp),%rax
  2054fa:	00 
  2054fb:	48 89 87 e8 00 00 00 	mov    %rax,0xe8(%rdi)
  205502:	48 8b 84 24 38 01 00 	mov    0x138(%rsp),%rax
  205509:	00 
  20550a:	48 89 87 f0 00 00 00 	mov    %rax,0xf0(%rdi)
  205511:	48 8b 84 24 40 01 00 	mov    0x140(%rsp),%rax
  205518:	00 
  205519:	48 89 87 f8 00 00 00 	mov    %rax,0xf8(%rdi)
  205520:	48 8b 84 24 48 01 00 	mov    0x148(%rsp),%rax
  205527:	00 
  205528:	48 89 87 00 01 00 00 	mov    %rax,0x100(%rdi)
  20552f:	48 8b 84 24 50 01 00 	mov    0x150(%rsp),%rax
  205536:	00 
  205537:	48 89 87 08 01 00 00 	mov    %rax,0x108(%rdi)
  20553e:	48 8b 84 24 58 01 00 	mov    0x158(%rsp),%rax
  205545:	00 
  205546:	48 89 87 10 01 00 00 	mov    %rax,0x110(%rdi)
  20554d:	48 8b 84 24 60 01 00 	mov    0x160(%rsp),%rax
  205554:	00 
  205555:	48 89 87 18 01 00 00 	mov    %rax,0x118(%rdi)
  20555c:	48 8b 84 24 68 01 00 	mov    0x168(%rsp),%rax
  205563:	00 
  205564:	48 89 87 20 01 00 00 	mov    %rax,0x120(%rdi)
  20556b:	48 8b 84 24 70 01 00 	mov    0x170(%rsp),%rax
  205572:	00 
  205573:	48 89 87 28 01 00 00 	mov    %rax,0x128(%rdi)
  20557a:	48 8b 84 24 78 01 00 	mov    0x178(%rsp),%rax
  205581:	00 
  205582:	48 89 87 30 01 00 00 	mov    %rax,0x130(%rdi)
  205589:	48 8b 84 24 80 01 00 	mov    0x180(%rsp),%rax
  205590:	00 
  205591:	48 89 87 38 01 00 00 	mov    %rax,0x138(%rdi)
  205598:	48 8b 84 24 88 01 00 	mov    0x188(%rsp),%rax
  20559f:	00 
  2055a0:	48 89 87 40 01 00 00 	mov    %rax,0x140(%rdi)
  2055a7:	48 8b 84 24 90 01 00 	mov    0x190(%rsp),%rax
  2055ae:	00 
  2055af:	48 89 87 48 01 00 00 	mov    %rax,0x148(%rdi)
  2055b6:	48 81 c7 50 01 00 00 	add    $0x150,%rdi
  2055bd:	48 8d b4 24 98 01 00 	lea    0x198(%rsp),%rsi
  2055c4:	00 
  2055c5:	ba 90 00 00 00       	mov    $0x90,%edx
  2055ca:	e8 f1 c2 00 00       	callq  2118c0 <memcpy>
  2055cf:	48 8b 7c 24 38       	mov    0x38(%rsp),%rdi
  2055d4:	48 8b 84 24 38 02 00 	mov    0x238(%rsp),%rax
  2055db:	00 
  2055dc:	48 89 87 e0 01 00 00 	mov    %rax,0x1e0(%rdi)
  2055e3:	48 8b 84 24 40 02 00 	mov    0x240(%rsp),%rax
  2055ea:	00 
  2055eb:	48 89 87 e8 01 00 00 	mov    %rax,0x1e8(%rdi)
  2055f2:	48 8b 84 24 48 02 00 	mov    0x248(%rsp),%rax
  2055f9:	00 
  2055fa:	48 89 87 f0 01 00 00 	mov    %rax,0x1f0(%rdi)
  205601:	48 8b 84 24 50 02 00 	mov    0x250(%rsp),%rax
  205608:	00 
  205609:	48 89 87 f8 01 00 00 	mov    %rax,0x1f8(%rdi)
  205610:	48 81 c7 00 02 00 00 	add    $0x200,%rdi
  205617:	48 8d b4 24 58 02 00 	lea    0x258(%rsp),%rsi
  20561e:	00 
  20561f:	ba 00 0e 00 00       	mov    $0xe00,%edx
  205624:	e8 97 c2 00 00       	callq  2118c0 <memcpy>
  205629:	48 8b 44 24 40       	mov    0x40(%rsp),%rax
        }
    }
  20562e:	48 81 c4 f8 11 00 00 	add    $0x11f8,%rsp
  205635:	c3                   	retq   
  205636:	cc                   	int3   
  205637:	cc                   	int3   
  205638:	cc                   	int3   
  205639:	cc                   	int3   
  20563a:	cc                   	int3   
  20563b:	cc                   	int3   
  20563c:	cc                   	int3   
  20563d:	cc                   	int3   
  20563e:	cc                   	int3   
  20563f:	cc                   	int3   

0000000000205640 <_ZN9r3_kernel3cpu10interrupts24InterruptDescriptorTable10as_pointer17h8b1ca2f2d1dcab77E>:

    pub fn as_pointer(&self) -> IDTPointer {
  205640:	48 83 ec 28          	sub    $0x28,%rsp
  205644:	48 89 7c 24 08       	mov    %rdi,0x8(%rsp)
  205649:	48 89 7c 24 20       	mov    %rdi,0x20(%rsp)
        IDTPointer {
            base_addr: (self as *const _) as u64,
            size_limit: (mem::size_of::<Self>() - 1) as u16,
  20564e:	b8 00 10 00 00       	mov    $0x1000,%eax
  205653:	48 83 e8 01          	sub    $0x1,%rax
  205657:	48 89 04 24          	mov    %rax,(%rsp)
  20565b:	0f 92 c0             	setb   %al
  20565e:	a8 01                	test   $0x1,%al
  205660:	75 24                	jne    205686 <_ZN9r3_kernel3cpu10interrupts24InterruptDescriptorTable10as_pointer17h8b1ca2f2d1dcab77E+0x46>
  205662:	48 8b 44 24 08       	mov    0x8(%rsp),%rax
  205667:	48 8b 0c 24          	mov    (%rsp),%rcx
        IDTPointer {
  20566b:	66 89 4c 24 10       	mov    %cx,0x10(%rsp)
  205670:	48 89 44 24 12       	mov    %rax,0x12(%rsp)
        }
    }
  205675:	0f b7 44 24 18       	movzwl 0x18(%rsp),%eax
  20567a:	89 c2                	mov    %eax,%edx
  20567c:	48 8b 44 24 10       	mov    0x10(%rsp),%rax
  205681:	48 83 c4 28          	add    $0x28,%rsp
  205685:	c3                   	retq   
            size_limit: (mem::size_of::<Self>() - 1) as u16,
  205686:	48 8d 3d 03 af ff ff 	lea    -0x50fd(%rip),%rdi        # 200590 <str.0>
  20568d:	48 8d 15 b4 d5 00 00 	lea    0xd5b4(%rip),%rdx        # 212c48 <memset+0x1368>
  205694:	be 21 00 00 00       	mov    $0x21,%esi
  205699:	e8 f2 97 00 00       	callq  20ee90 <_ZN4core9panicking5panic17hb5e1b99c05020429E>
  20569e:	0f 0b                	ud2    

00000000002056a0 <_ZN9r3_kernel3cpu10interrupts24InterruptDescriptorTable13load_into_cpu17hfad6d3a77281dca1E>:

    pub fn load_into_cpu(&self) {
  2056a0:	48 83 ec 28          	sub    $0x28,%rsp
  2056a4:	48 89 7c 24 10       	mov    %rdi,0x10(%rsp)
        let pointer = self.as_pointer();
  2056a9:	e8 92 ff ff ff       	callq  205640 <_ZN9r3_kernel3cpu10interrupts24InterruptDescriptorTable10as_pointer17h8b1ca2f2d1dcab77E>
  2056ae:	48 89 44 24 18       	mov    %rax,0x18(%rsp)
  2056b3:	66 89 d0             	mov    %dx,%ax
  2056b6:	66 89 44 24 20       	mov    %ax,0x20(%rsp)
  2056bb:	48 8b 44 24 18       	mov    0x18(%rsp),%rax
  2056c0:	48 89 04 24          	mov    %rax,(%rsp)
  2056c4:	66 8b 44 24 20       	mov    0x20(%rsp),%ax
  2056c9:	66 89 44 24 08       	mov    %ax,0x8(%rsp)
  2056ce:	48 89 e0             	mov    %rsp,%rax
        unsafe {
            asm!(
  2056d1:	0f 01 18             	lidt   (%rax)
                "lidt [{}]", in(reg) &pointer,
                options(nomem, nostack, preserves_flags)
            );
        }
    }
  2056d4:	48 83 c4 28          	add    $0x28,%rsp
  2056d8:	c3                   	retq   
  2056d9:	cc                   	int3   
  2056da:	cc                   	int3   
  2056db:	cc                   	int3   
  2056dc:	cc                   	int3   
  2056dd:	cc                   	int3   
  2056de:	cc                   	int3   
  2056df:	cc                   	int3   

00000000002056e0 <_ZN9r3_kernel3cpu10interrupts22prepare_default_handle17hd8eb7bb14fe770d5E>:
}

pub fn prepare_default_handle(
  2056e0:	48 83 ec 38          	sub    $0x38,%rsp
  2056e4:	48 89 7c 24 18       	mov    %rdi,0x18(%rsp)
    func: DefaultHandlerFunction,
) -> InterruptDescriptorEntry<DefaultHandlerFunction> {
    let handle_addr = func as u64;
  2056e9:	48 89 f8             	mov    %rdi,%rax
  2056ec:	48 89 04 24          	mov    %rax,(%rsp)
  2056f0:	48 89 7c 24 20       	mov    %rdi,0x20(%rsp)
    let mut idt_entry = InterruptDescriptorEntry::empty();
  2056f5:	e8 36 17 00 00       	callq  206e30 <_ZN9r3_kernel3cpu10interrupts33InterruptDescriptorEntry$LT$T$GT$5empty17h630d1891060b21e5E>
  2056fa:	48 89 54 24 30       	mov    %rdx,0x30(%rsp)
  2056ff:	48 89 44 24 28       	mov    %rax,0x28(%rsp)
  205704:	48 8b 44 24 28       	mov    0x28(%rsp),%rax
  205709:	48 89 44 24 08       	mov    %rax,0x8(%rsp)
  20570e:	48 8b 44 24 30       	mov    0x30(%rsp),%rax
  205713:	48 89 44 24 10       	mov    %rax,0x10(%rsp)
  205718:	48 8b 34 24          	mov    (%rsp),%rsi
    idt_entry.set_handler(handle_addr);
  20571c:	48 8d 7c 24 08       	lea    0x8(%rsp),%rdi
  205721:	e8 0a 19 00 00       	callq  207030 <_ZN9r3_kernel3cpu10interrupts33InterruptDescriptorEntry$LT$T$GT$11set_handler17h87df60b3140f4d6eE>
    return idt_entry;
}
  205726:	48 8b 44 24 08       	mov    0x8(%rsp),%rax
  20572b:	48 8b 54 24 10       	mov    0x10(%rsp),%rdx
  205730:	48 83 c4 38          	add    $0x38,%rsp
  205734:	c3                   	retq   
  205735:	cc                   	int3   
  205736:	cc                   	int3   
  205737:	cc                   	int3   
  205738:	cc                   	int3   
  205739:	cc                   	int3   
  20573a:	cc                   	int3   
  20573b:	cc                   	int3   
  20573c:	cc                   	int3   
  20573d:	cc                   	int3   
  20573e:	cc                   	int3   
  20573f:	cc                   	int3   

0000000000205740 <_ZN9r3_kernel3cpu10interrupts32prepare_no_ret_error_code_handle17h3b008e4f60cf1d75E>:

pub fn prepare_no_ret_error_code_handle(
  205740:	48 83 ec 38          	sub    $0x38,%rsp
  205744:	48 89 7c 24 18       	mov    %rdi,0x18(%rsp)
    func: HandlerFuncNoReturnWithErr,
) -> InterruptDescriptorEntry<HandlerFuncNoReturnWithErr> {
    let handle_addr = func as u64;
  205749:	48 89 f8             	mov    %rdi,%rax
  20574c:	48 89 04 24          	mov    %rax,(%rsp)
  205750:	48 89 7c 24 20       	mov    %rdi,0x20(%rsp)
    let mut idt_entry = InterruptDescriptorEntry::empty();
  205755:	e8 56 17 00 00       	callq  206eb0 <_ZN9r3_kernel3cpu10interrupts33InterruptDescriptorEntry$LT$T$GT$5empty17hf14332c24ab91231E>
  20575a:	48 89 54 24 30       	mov    %rdx,0x30(%rsp)
  20575f:	48 89 44 24 28       	mov    %rax,0x28(%rsp)
  205764:	48 8b 44 24 28       	mov    0x28(%rsp),%rax
  205769:	48 89 44 24 08       	mov    %rax,0x8(%rsp)
  20576e:	48 8b 44 24 30       	mov    0x30(%rsp),%rax
  205773:	48 89 44 24 10       	mov    %rax,0x10(%rsp)
  205778:	48 8b 34 24          	mov    (%rsp),%rsi
    idt_entry.set_handler(handle_addr);
  20577c:	48 8d 7c 24 08       	lea    0x8(%rsp),%rdi
  205781:	e8 fa 18 00 00       	callq  207080 <_ZN9r3_kernel3cpu10interrupts33InterruptDescriptorEntry$LT$T$GT$11set_handler17hf33eac12f7d04705E>
    return idt_entry;
}
  205786:	48 8b 44 24 08       	mov    0x8(%rsp),%rax
  20578b:	48 8b 54 24 10       	mov    0x10(%rsp),%rdx
  205790:	48 83 c4 38          	add    $0x38,%rsp
  205794:	c3                   	retq   
  205795:	cc                   	int3   
  205796:	cc                   	int3   
  205797:	cc                   	int3   
  205798:	cc                   	int3   
  205799:	cc                   	int3   
  20579a:	cc                   	int3   
  20579b:	cc                   	int3   
  20579c:	cc                   	int3   
  20579d:	cc                   	int3   
  20579e:	cc                   	int3   
  20579f:	cc                   	int3   

00000000002057a0 <_ZN9r3_kernel10boot_proto18BootProtoContainer5empty17h2895c2c060c9370bE>:
}

// unsafe impl<'a> Sync for BootProtoContainer<'a> {}

impl BootProtoContainer {
    pub fn empty() -> Self {
  2057a0:	48 83 ec 20          	sub    $0x20,%rsp
        BootProtoContainer { boot_info: None }
  2057a4:	48 c7 44 24 10 00 00 	movq   $0x0,0x10(%rsp)
  2057ab:	00 00 
  2057ad:	48 8b 4c 24 10       	mov    0x10(%rsp),%rcx
  2057b2:	48 8b 44 24 18       	mov    0x18(%rsp),%rax
  2057b7:	48 89 0c 24          	mov    %rcx,(%rsp)
  2057bb:	48 89 44 24 08       	mov    %rax,0x8(%rsp)
    }
  2057c0:	48 8b 04 24          	mov    (%rsp),%rax
  2057c4:	48 8b 54 24 08       	mov    0x8(%rsp),%rdx
  2057c9:	48 83 c4 20          	add    $0x20,%rsp
  2057cd:	c3                   	retq   
  2057ce:	cc                   	int3   
  2057cf:	cc                   	int3   

00000000002057d0 <_ZN9r3_kernel10boot_proto18BootProtoContainer4save17hf260aeb0ec104c1bE>:

    pub fn save(&mut self, b_proto: u64) {
  2057d0:	48 83 ec 20          	sub    $0x20,%rsp
  2057d4:	48 89 7c 24 10       	mov    %rdi,0x10(%rsp)
  2057d9:	48 89 74 24 18       	mov    %rsi,0x18(%rsp)
        self.boot_info = Some(b_proto);
  2057de:	48 89 74 24 08       	mov    %rsi,0x8(%rsp)
  2057e3:	48 c7 04 24 01 00 00 	movq   $0x1,(%rsp)
  2057ea:	00 
  2057eb:	48 8b 0c 24          	mov    (%rsp),%rcx
  2057ef:	48 8b 44 24 08       	mov    0x8(%rsp),%rax
  2057f4:	48 89 0f             	mov    %rcx,(%rdi)
  2057f7:	48 89 47 08          	mov    %rax,0x8(%rdi)
    }
  2057fb:	48 83 c4 20          	add    $0x20,%rsp
  2057ff:	c3                   	retq   

0000000000205800 <_ZN9r3_kernel10boot_proto12BootProtocol14get_boot_proto17he60c72ec1503c0f9E>:
// this implementation than the whole codebase.
pub struct BootProtocol {}

impl BootProtocol {
    #[inline]
    fn get_boot_proto() -> Option<&'static BootInfo> {
  205800:	48 83 ec 48          	sub    $0x48,%rsp
        if let Some(boot_info_addr) = BOOT_INFO.lock().boot_info {
  205804:	48 8d 3d 92 ae ff ff 	lea    -0x516e(%rip),%rdi        # 20069d <_ZN9r3_kernel10boot_proto9BOOT_INFO17h01ac4d2a4df9d266E>
  20580b:	e8 c0 0e 00 00       	callq  2066d0 <_ZN76_$LT$r3_kernel..boot_proto..BOOT_INFO$u20$as$u20$core..ops..deref..Deref$GT$5deref17he8254bf6449c3446E>
  205810:	48 89 44 24 20       	mov    %rax,0x20(%rsp)
  205815:	48 8b 7c 24 20       	mov    0x20(%rsp),%rdi
  20581a:	e8 e1 12 00 00       	callq  206b00 <_ZN4spin5mutex14Mutex$LT$T$GT$4lock17h4ccc519c0d0de437E>
  20581f:	48 89 54 24 38       	mov    %rdx,0x38(%rsp)
  205824:	48 89 44 24 30       	mov    %rax,0x30(%rsp)
  205829:	48 8d 7c 24 30       	lea    0x30(%rsp),%rdi
  20582e:	e8 7d 13 00 00       	callq  206bb0 <_ZN76_$LT$spin..mutex..MutexGuard$LT$T$GT$$u20$as$u20$core..ops..deref..Deref$GT$5deref17h7e8efa7287244e89E>
  205833:	48 89 44 24 18       	mov    %rax,0x18(%rsp)
  205838:	48 8b 44 24 18       	mov    0x18(%rsp),%rax
  20583d:	48 83 38 01          	cmpq   $0x1,(%rax)
  205841:	75 1a                	jne    20585d <_ZN9r3_kernel10boot_proto12BootProtocol14get_boot_proto17he60c72ec1503c0f9E+0x5d>
  205843:	48 8b 44 24 18       	mov    0x18(%rsp),%rax
  205848:	48 8b 78 08          	mov    0x8(%rax),%rdi
  20584c:	48 89 7c 24 40       	mov    %rdi,0x40(%rsp)
            return Some(unsafe { (boot_info_addr as *const BootInfo).as_ref().unwrap() });
  205851:	e8 ba 25 00 00       	callq  207e10 <_ZN4core3ptr9const_ptr33_$LT$impl$u20$$BP$const$u20$T$GT$6as_ref17h356ef27f5c1e3d27E>
  205856:	48 89 44 24 10       	mov    %rax,0x10(%rsp)
  20585b:	eb 1d                	jmp    20587a <_ZN9r3_kernel10boot_proto12BootProtocol14get_boot_proto17he60c72ec1503c0f9E+0x7a>
        }
  20585d:	48 8d 7c 24 30       	lea    0x30(%rsp),%rdi
  205862:	e8 69 65 00 00       	callq  20bdd0 <_ZN4core3ptr93drop_in_place$LT$spin..mutex..MutexGuard$LT$r3_kernel..boot_proto..BootProtoContainer$GT$$GT$17h754c2fd5620c579cE>

        None
  205867:	48 c7 44 24 28 00 00 	movq   $0x0,0x28(%rsp)
  20586e:	00 00 
    }
  205870:	48 8b 44 24 28       	mov    0x28(%rsp),%rax
  205875:	48 83 c4 48          	add    $0x48,%rsp
  205879:	c3                   	retq   
  20587a:	48 8b 7c 24 10       	mov    0x10(%rsp),%rdi
            return Some(unsafe { (boot_info_addr as *const BootInfo).as_ref().unwrap() });
  20587f:	48 8d 35 da d3 00 00 	lea    0xd3da(%rip),%rsi        # 212c60 <memset+0x1380>
  205886:	e8 35 f2 ff ff       	callq  204ac0 <_ZN4core6option15Option$LT$T$GT$6unwrap17hc6b8546214314199E>
  20588b:	48 89 44 24 08       	mov    %rax,0x8(%rsp)
  205890:	48 8b 44 24 08       	mov    0x8(%rsp),%rax
  205895:	48 89 44 24 28       	mov    %rax,0x28(%rsp)
        }
  20589a:	48 8d 7c 24 30       	lea    0x30(%rsp),%rdi
  20589f:	e8 2c 65 00 00       	callq  20bdd0 <_ZN4core3ptr93drop_in_place$LT$spin..mutex..MutexGuard$LT$r3_kernel..boot_proto..BootProtoContainer$GT$$GT$17h754c2fd5620c579cE>
  2058a4:	eb ca                	jmp    205870 <_ZN9r3_kernel10boot_proto12BootProtocol14get_boot_proto17he60c72ec1503c0f9E+0x70>
  2058a6:	cc                   	int3   
  2058a7:	cc                   	int3   
  2058a8:	cc                   	int3   
  2058a9:	cc                   	int3   
  2058aa:	cc                   	int3   
  2058ab:	cc                   	int3   
  2058ac:	cc                   	int3   
  2058ad:	cc                   	int3   
  2058ae:	cc                   	int3   
  2058af:	cc                   	int3   

00000000002058b0 <_ZN9r3_kernel10boot_proto12BootProtocol6create17hda06133fa30eec4aE>:

    pub fn create(info: &'static BootInfo) {
  2058b0:	48 83 ec 38          	sub    $0x38,%rsp
  2058b4:	48 89 7c 24 08       	mov    %rdi,0x8(%rsp)
  2058b9:	48 89 7c 24 28       	mov    %rdi,0x28(%rsp)
        // translate boot info to boot_proto:
        let boot_struct_addr = (info as *const BootInfo) as u64;
  2058be:	48 89 7c 24 30       	mov    %rdi,0x30(%rsp)
        BOOT_INFO.lock().save(boot_struct_addr);
  2058c3:	48 8d 3d d3 ad ff ff 	lea    -0x522d(%rip),%rdi        # 20069d <_ZN9r3_kernel10boot_proto9BOOT_INFO17h01ac4d2a4df9d266E>
  2058ca:	e8 01 0e 00 00       	callq  2066d0 <_ZN76_$LT$r3_kernel..boot_proto..BOOT_INFO$u20$as$u20$core..ops..deref..Deref$GT$5deref17he8254bf6449c3446E>
  2058cf:	48 89 44 24 10       	mov    %rax,0x10(%rsp)
  2058d4:	48 8b 7c 24 10       	mov    0x10(%rsp),%rdi
  2058d9:	e8 22 12 00 00       	callq  206b00 <_ZN4spin5mutex14Mutex$LT$T$GT$4lock17h4ccc519c0d0de437E>
  2058de:	48 89 54 24 20       	mov    %rdx,0x20(%rsp)
  2058e3:	48 89 44 24 18       	mov    %rax,0x18(%rsp)
  2058e8:	48 8d 7c 24 18       	lea    0x18(%rsp),%rdi
  2058ed:	e8 ce 12 00 00       	callq  206bc0 <_ZN79_$LT$spin..mutex..MutexGuard$LT$T$GT$$u20$as$u20$core..ops..deref..DerefMut$GT$9deref_mut17h20776941560deab6E>
  2058f2:	48 89 04 24          	mov    %rax,(%rsp)
  2058f6:	48 8b 74 24 08       	mov    0x8(%rsp),%rsi
  2058fb:	48 8b 3c 24          	mov    (%rsp),%rdi
  2058ff:	e8 cc fe ff ff       	callq  2057d0 <_ZN9r3_kernel10boot_proto18BootProtoContainer4save17hf260aeb0ec104c1bE>
  205904:	48 8d 7c 24 18       	lea    0x18(%rsp),%rdi
  205909:	e8 c2 64 00 00       	callq  20bdd0 <_ZN4core3ptr93drop_in_place$LT$spin..mutex..MutexGuard$LT$r3_kernel..boot_proto..BootProtoContainer$GT$$GT$17h754c2fd5620c579cE>
    }
  20590e:	48 83 c4 38          	add    $0x38,%rsp
  205912:	c3                   	retq   
  205913:	cc                   	int3   
  205914:	cc                   	int3   
  205915:	cc                   	int3   
  205916:	cc                   	int3   
  205917:	cc                   	int3   
  205918:	cc                   	int3   
  205919:	cc                   	int3   
  20591a:	cc                   	int3   
  20591b:	cc                   	int3   
  20591c:	cc                   	int3   
  20591d:	cc                   	int3   
  20591e:	cc                   	int3   
  20591f:	cc                   	int3   

0000000000205920 <_ZN9r3_kernel10boot_proto12BootProtocol18get_memory_regions17hc43e767c006d814bE>:

    pub fn get_memory_regions() -> Option<&'static MemoryRegions> {
  205920:	48 83 ec 18          	sub    $0x18,%rsp
        if let Some(bi) = BootProtocol::get_boot_proto() {
  205924:	e8 d7 fe ff ff       	callq  205800 <_ZN9r3_kernel10boot_proto12BootProtocol14get_boot_proto17he60c72ec1503c0f9E>
  205929:	48 89 44 24 08       	mov    %rax,0x8(%rsp)
  20592e:	b8 01 00 00 00       	mov    $0x1,%eax
  205933:	31 c9                	xor    %ecx,%ecx
  205935:	48 83 7c 24 08 00    	cmpq   $0x0,0x8(%rsp)
  20593b:	48 0f 44 c1          	cmove  %rcx,%rax
  20593f:	48 83 f8 01          	cmp    $0x1,%rax
  205943:	75 14                	jne    205959 <_ZN9r3_kernel10boot_proto12BootProtocol18get_memory_regions17hc43e767c006d814bE+0x39>
  205945:	48 8b 44 24 08       	mov    0x8(%rsp),%rax
  20594a:	48 89 44 24 10       	mov    %rax,0x10(%rsp)
            return Some(&bi.memory_regions);
  20594f:	48 83 c0 08          	add    $0x8,%rax
  205953:	48 89 04 24          	mov    %rax,(%rsp)
        }

        None
    }
  205957:	eb 08                	jmp    205961 <_ZN9r3_kernel10boot_proto12BootProtocol18get_memory_regions17hc43e767c006d814bE+0x41>
        None
  205959:	48 c7 04 24 00 00 00 	movq   $0x0,(%rsp)
  205960:	00 
    }
  205961:	48 8b 04 24          	mov    (%rsp),%rax
  205965:	48 83 c4 18          	add    $0x18,%rsp
  205969:	c3                   	retq   
  20596a:	cc                   	int3   
  20596b:	cc                   	int3   
  20596c:	cc                   	int3   
  20596d:	cc                   	int3   
  20596e:	cc                   	int3   
  20596f:	cc                   	int3   

0000000000205970 <_ZN9r3_kernel10boot_proto12BootProtocol20get_framebuffer_info17h359cc5b08ce307ecE>:

    pub fn get_framebuffer_info() -> Option<FrameBufferInfo> {
  205970:	48 83 ec 68          	sub    $0x68,%rsp
  205974:	48 89 7c 24 08       	mov    %rdi,0x8(%rsp)
  205979:	48 89 7c 24 10       	mov    %rdi,0x10(%rsp)
        if let Some(bi) = BootProtocol::get_boot_proto() {
  20597e:	e8 7d fe ff ff       	callq  205800 <_ZN9r3_kernel10boot_proto12BootProtocol14get_boot_proto17he60c72ec1503c0f9E>
  205983:	48 89 44 24 18       	mov    %rax,0x18(%rsp)
  205988:	b8 01 00 00 00       	mov    $0x1,%eax
  20598d:	31 c9                	xor    %ecx,%ecx
  20598f:	48 83 7c 24 18 00    	cmpq   $0x0,0x18(%rsp)
  205995:	48 0f 44 c1          	cmove  %rcx,%rax
  205999:	48 83 f8 01          	cmp    $0x1,%rax
  20599d:	75 1a                	jne    2059b9 <_ZN9r3_kernel10boot_proto12BootProtocol20get_framebuffer_info17h359cc5b08ce307ecE+0x49>
  20599f:	48 8b 7c 24 18       	mov    0x18(%rsp),%rdi
  2059a4:	48 89 7c 24 58       	mov    %rdi,0x58(%rsp)
            if let Some(fb_struct) = bi.framebuffer.as_ref() {
  2059a9:	48 83 c7 18          	add    $0x18,%rdi
  2059ad:	e8 0e 24 00 00       	callq  207dc0 <_ZN10bootloader9boot_info17Optional$LT$T$GT$6as_ref17h5bc539a7aa59d212E>
  2059b2:	48 89 44 24 20       	mov    %rax,0x20(%rsp)
  2059b7:	eb 16                	jmp    2059cf <_ZN9r3_kernel10boot_proto12BootProtocol20get_framebuffer_info17h359cc5b08ce307ecE+0x5f>
  2059b9:	48 8b 44 24 08       	mov    0x8(%rsp),%rax
            }

            return None;
        }

        None
  2059be:	c7 40 18 03 00 00 00 	movl   $0x3,0x18(%rax)
  2059c5:	48 8b 44 24 10       	mov    0x10(%rsp),%rax
    }
  2059ca:	48 83 c4 68          	add    $0x68,%rsp
  2059ce:	c3                   	retq   
            if let Some(fb_struct) = bi.framebuffer.as_ref() {
  2059cf:	b8 01 00 00 00       	mov    $0x1,%eax
  2059d4:	31 c9                	xor    %ecx,%ecx
  2059d6:	48 83 7c 24 20 00    	cmpq   $0x0,0x20(%rsp)
  2059dc:	48 0f 44 c1          	cmove  %rcx,%rax
  2059e0:	48 83 f8 01          	cmp    $0x1,%rax
  2059e4:	75 16                	jne    2059fc <_ZN9r3_kernel10boot_proto12BootProtocol20get_framebuffer_info17h359cc5b08ce307ecE+0x8c>
  2059e6:	48 8b 74 24 20       	mov    0x20(%rsp),%rsi
  2059eb:	48 89 74 24 60       	mov    %rsi,0x60(%rsp)
                return Some(fb_struct.info());
  2059f0:	48 8d 7c 24 28       	lea    0x28(%rsp),%rdi
  2059f5:	e8 c6 82 00 00       	callq  20dcc0 <_ZN10bootloader9boot_info11FrameBuffer4info17h83684cd9a74a1065E>
  2059fa:	eb 0e                	jmp    205a0a <_ZN9r3_kernel10boot_proto12BootProtocol20get_framebuffer_info17h359cc5b08ce307ecE+0x9a>
  2059fc:	48 8b 44 24 08       	mov    0x8(%rsp),%rax
            return None;
  205a01:	c7 40 18 03 00 00 00 	movl   $0x3,0x18(%rax)
  205a08:	eb bb                	jmp    2059c5 <_ZN9r3_kernel10boot_proto12BootProtocol20get_framebuffer_info17h359cc5b08ce307ecE+0x55>
  205a0a:	48 8b 7c 24 08       	mov    0x8(%rsp),%rdi
                return Some(fb_struct.info());
  205a0f:	48 8d 74 24 28       	lea    0x28(%rsp),%rsi
  205a14:	ba 30 00 00 00       	mov    $0x30,%edx
  205a19:	e8 a2 be 00 00       	callq  2118c0 <memcpy>
#![no_std] // don't link the Rust standard library
  205a1e:	eb a5                	jmp    2059c5 <_ZN9r3_kernel10boot_proto12BootProtocol20get_framebuffer_info17h359cc5b08ce307ecE+0x55>

0000000000205a20 <_ZN9r3_kernel10boot_proto12BootProtocol15print_boot_info17h223d91c5e4de5507E>:

    pub fn print_boot_info() {
  205a20:	48 81 ec e8 05 00 00 	sub    $0x5e8,%rsp
        if let Some(bi) = BootProtocol::get_boot_proto() {
  205a27:	e8 d4 fd ff ff       	callq  205800 <_ZN9r3_kernel10boot_proto12BootProtocol14get_boot_proto17he60c72ec1503c0f9E>
  205a2c:	48 89 84 24 58 01 00 	mov    %rax,0x158(%rsp)
  205a33:	00 
  205a34:	b8 01 00 00 00       	mov    $0x1,%eax
  205a39:	31 c9                	xor    %ecx,%ecx
  205a3b:	48 83 bc 24 58 01 00 	cmpq   $0x0,0x158(%rsp)
  205a42:	00 00 
  205a44:	48 0f 44 c1          	cmove  %rcx,%rax
  205a48:	48 83 f8 01          	cmp    $0x1,%rax
  205a4c:	75 41                	jne    205a8f <_ZN9r3_kernel10boot_proto12BootProtocol15print_boot_info17h223d91c5e4de5507E+0x6f>
  205a4e:	48 8b 84 24 58 01 00 	mov    0x158(%rsp),%rax
  205a55:	00 
  205a56:	48 89 84 24 48 01 00 	mov    %rax,0x148(%rsp)
  205a5d:	00 
  205a5e:	48 89 84 24 00 05 00 	mov    %rax,0x500(%rsp)
  205a65:	00 
            // display version:
            log::info!(
  205a66:	48 c7 84 24 60 01 00 	movq   $0x3,0x160(%rsp)
  205a6d:	00 03 00 00 00 
  205a72:	48 8d bc 24 60 01 00 	lea    0x160(%rsp),%rdi
  205a79:	00 
  205a7a:	48 8d 35 b7 a8 ff ff 	lea    -0x5749(%rip),%rsi        # 200338 <str.0+0x38>
  205a81:	e8 ba f1 ff ff       	callq  204c40 <_ZN76_$LT$log..Level$u20$as$u20$core..cmp..PartialOrd$LT$log..LevelFilter$GT$$GT$2le17h378b9a848e58149aE>
  205a86:	88 84 24 57 01 00 00 	mov    %al,0x157(%rsp)
  205a8d:	eb 08                	jmp    205a97 <_ZN9r3_kernel10boot_proto12BootProtocol15print_boot_info17h223d91c5e4de5507E+0x77>
                );
            } else {
                log::warn!("Boot info doesn't contain framebuffer information.");
            }
        }
    }
  205a8f:	48 81 c4 e8 05 00 00 	add    $0x5e8,%rsp
  205a96:	c3                   	retq   
  205a97:	8a 84 24 57 01 00 00 	mov    0x157(%rsp),%al
            log::info!(
  205a9e:	a8 01                	test   $0x1,%al
  205aa0:	75 0c                	jne    205aae <_ZN9r3_kernel10boot_proto12BootProtocol15print_boot_info17h223d91c5e4de5507E+0x8e>
  205aa2:	eb 00                	jmp    205aa4 <_ZN9r3_kernel10boot_proto12BootProtocol15print_boot_info17h223d91c5e4de5507E+0x84>
  205aa4:	c6 84 24 6f 01 00 00 	movb   $0x0,0x16f(%rsp)
  205aab:	00 
  205aac:	eb 60                	jmp    205b0e <_ZN9r3_kernel10boot_proto12BootProtocol15print_boot_info17h223d91c5e4de5507E+0xee>
    unsafe { mem::transmute(MAX_LOG_LEVEL_FILTER.load(Ordering::Relaxed)) }
  205aae:	c6 84 24 df 05 00 00 	movb   $0x0,0x5df(%rsp)
  205ab5:	00 
  205ab6:	48 8b 3d 2b e0 00 00 	mov    0xe02b(%rip),%rdi        # 213ae8 <anon.3bd2d5117e953c23f99d470f07b1e03a.2.llvm.2324975589069524467+0x60>
  205abd:	0f b6 b4 24 df 05 00 	movzbl 0x5df(%rsp),%esi
  205ac4:	00 
  205ac5:	e8 06 4e 00 00       	callq  20a8d0 <_ZN4core4sync6atomic11AtomicUsize4load17habd50e9a578bb37bE>
  205aca:	48 89 84 24 e0 05 00 	mov    %rax,0x5e0(%rsp)
  205ad1:	00 
  205ad2:	48 8b 84 24 e0 05 00 	mov    0x5e0(%rsp),%rax
  205ad9:	00 
  205ada:	48 89 84 24 70 01 00 	mov    %rax,0x170(%rsp)
  205ae1:	00 
  205ae2:	48 8d bc 24 60 01 00 	lea    0x160(%rsp),%rdi
  205ae9:	00 
  205aea:	48 8d b4 24 70 01 00 	lea    0x170(%rsp),%rsi
  205af1:	00 
  205af2:	e8 49 f1 ff ff       	callq  204c40 <_ZN76_$LT$log..Level$u20$as$u20$core..cmp..PartialOrd$LT$log..LevelFilter$GT$$GT$2le17h378b9a848e58149aE>
  205af7:	88 84 24 47 01 00 00 	mov    %al,0x147(%rsp)
  205afe:	8a 84 24 47 01 00 00 	mov    0x147(%rsp),%al
  205b05:	24 01                	and    $0x1,%al
  205b07:	88 84 24 6f 01 00 00 	mov    %al,0x16f(%rsp)
  205b0e:	f6 84 24 6f 01 00 00 	testb  $0x1,0x16f(%rsp)
  205b15:	01 
  205b16:	75 2c                	jne    205b44 <_ZN9r3_kernel10boot_proto12BootProtocol15print_boot_info17h223d91c5e4de5507E+0x124>
            log::info!("RSDT Address: {:?}", bi.rsdp_addr);
  205b18:	48 c7 84 24 f0 01 00 	movq   $0x3,0x1f0(%rsp)
  205b1f:	00 03 00 00 00 
  205b24:	48 8d bc 24 f0 01 00 	lea    0x1f0(%rsp),%rdi
  205b2b:	00 
  205b2c:	48 8d 35 05 a8 ff ff 	lea    -0x57fb(%rip),%rsi        # 200338 <str.0+0x38>
  205b33:	e8 08 f1 ff ff       	callq  204c40 <_ZN76_$LT$log..Level$u20$as$u20$core..cmp..PartialOrd$LT$log..LevelFilter$GT$$GT$2le17h378b9a848e58149aE>
  205b38:	88 84 24 46 01 00 00 	mov    %al,0x146(%rsp)
  205b3f:	e9 78 01 00 00       	jmpq   205cbc <_ZN9r3_kernel10boot_proto12BootProtocol15print_boot_info17h223d91c5e4de5507E+0x29c>
  205b44:	48 8b 84 24 48 01 00 	mov    0x148(%rsp),%rax
  205b4b:	00 
                bi.version_major,
  205b4c:	48 89 c2             	mov    %rax,%rdx
                bi.version_minor,
  205b4f:	48 89 c1             	mov    %rax,%rcx
  205b52:	48 83 c1 02          	add    $0x2,%rcx
                bi.version_patch
  205b56:	48 83 c0 04          	add    $0x4,%rax
            log::info!(
  205b5a:	48 89 94 24 d8 01 00 	mov    %rdx,0x1d8(%rsp)
  205b61:	00 
  205b62:	48 89 8c 24 e0 01 00 	mov    %rcx,0x1e0(%rsp)
  205b69:	00 
  205b6a:	48 89 84 24 e8 01 00 	mov    %rax,0x1e8(%rsp)
  205b71:	00 
  205b72:	48 8b bc 24 d8 01 00 	mov    0x1d8(%rsp),%rdi
  205b79:	00 
  205b7a:	48 89 bc 24 08 05 00 	mov    %rdi,0x508(%rsp)
  205b81:	00 
  205b82:	48 8b 84 24 e0 01 00 	mov    0x1e0(%rsp),%rax
  205b89:	00 
  205b8a:	48 89 84 24 20 01 00 	mov    %rax,0x120(%rsp)
  205b91:	00 
  205b92:	48 89 84 24 10 05 00 	mov    %rax,0x510(%rsp)
  205b99:	00 
  205b9a:	48 8b 84 24 e8 01 00 	mov    0x1e8(%rsp),%rax
  205ba1:	00 
  205ba2:	48 89 84 24 28 01 00 	mov    %rax,0x128(%rsp)
  205ba9:	00 
  205baa:	48 89 84 24 18 05 00 	mov    %rax,0x518(%rsp)
  205bb1:	00 
  205bb2:	48 8b 35 47 df 00 00 	mov    0xdf47(%rip),%rsi        # 213b00 <anon.3bd2d5117e953c23f99d470f07b1e03a.2.llvm.2324975589069524467+0x78>
  205bb9:	e8 22 53 00 00       	callq  20aee0 <_ZN4core3fmt10ArgumentV13new17hf01d32011d96aef4E>
  205bbe:	48 89 84 24 30 01 00 	mov    %rax,0x130(%rsp)
  205bc5:	00 
  205bc6:	48 89 94 24 38 01 00 	mov    %rdx,0x138(%rsp)
  205bcd:	00 
  205bce:	48 8b bc 24 20 01 00 	mov    0x120(%rsp),%rdi
  205bd5:	00 
  205bd6:	48 8b 35 23 df 00 00 	mov    0xdf23(%rip),%rsi        # 213b00 <anon.3bd2d5117e953c23f99d470f07b1e03a.2.llvm.2324975589069524467+0x78>
  205bdd:	e8 fe 52 00 00       	callq  20aee0 <_ZN4core3fmt10ArgumentV13new17hf01d32011d96aef4E>
  205be2:	48 89 84 24 10 01 00 	mov    %rax,0x110(%rsp)
  205be9:	00 
  205bea:	48 89 94 24 18 01 00 	mov    %rdx,0x118(%rsp)
  205bf1:	00 
  205bf2:	48 8b bc 24 28 01 00 	mov    0x128(%rsp),%rdi
  205bf9:	00 
  205bfa:	48 8b 35 ff de 00 00 	mov    0xdeff(%rip),%rsi        # 213b00 <anon.3bd2d5117e953c23f99d470f07b1e03a.2.llvm.2324975589069524467+0x78>
  205c01:	e8 da 52 00 00       	callq  20aee0 <_ZN4core3fmt10ArgumentV13new17hf01d32011d96aef4E>
  205c06:	48 89 84 24 00 01 00 	mov    %rax,0x100(%rsp)
  205c0d:	00 
  205c0e:	48 89 94 24 08 01 00 	mov    %rdx,0x108(%rsp)
  205c15:	00 
  205c16:	48 8b 84 24 08 01 00 	mov    0x108(%rsp),%rax
  205c1d:	00 
  205c1e:	48 8b 8c 24 00 01 00 	mov    0x100(%rsp),%rcx
  205c25:	00 
  205c26:	48 8b 94 24 18 01 00 	mov    0x118(%rsp),%rdx
  205c2d:	00 
  205c2e:	48 8b b4 24 10 01 00 	mov    0x110(%rsp),%rsi
  205c35:	00 
  205c36:	48 8b bc 24 38 01 00 	mov    0x138(%rsp),%rdi
  205c3d:	00 
  205c3e:	4c 8b 84 24 30 01 00 	mov    0x130(%rsp),%r8
  205c45:	00 
  205c46:	4c 89 84 24 a8 01 00 	mov    %r8,0x1a8(%rsp)
  205c4d:	00 
  205c4e:	48 89 bc 24 b0 01 00 	mov    %rdi,0x1b0(%rsp)
  205c55:	00 
  205c56:	48 89 b4 24 b8 01 00 	mov    %rsi,0x1b8(%rsp)
  205c5d:	00 
  205c5e:	48 89 94 24 c0 01 00 	mov    %rdx,0x1c0(%rsp)
  205c65:	00 
  205c66:	48 89 8c 24 c8 01 00 	mov    %rcx,0x1c8(%rsp)
  205c6d:	00 
  205c6e:	48 89 84 24 d0 01 00 	mov    %rax,0x1d0(%rsp)
  205c75:	00 
  205c76:	48 8d 8c 24 a8 01 00 	lea    0x1a8(%rsp),%rcx
  205c7d:	00 
  205c7e:	48 8d bc 24 78 01 00 	lea    0x178(%rsp),%rdi
  205c85:	00 
  205c86:	48 8d 35 eb cf 00 00 	lea    0xcfeb(%rip),%rsi        # 212c78 <memset+0x1398>
  205c8d:	41 b8 03 00 00 00    	mov    $0x3,%r8d
  205c93:	4c 89 c2             	mov    %r8,%rdx
  205c96:	e8 75 ea ff ff       	callq  204710 <_ZN4core3fmt9Arguments6new_v117h9654568d76c8366eE>
  205c9b:	48 8b b4 24 60 01 00 	mov    0x160(%rsp),%rsi
  205ca2:	00 
  205ca3:	48 8d bc 24 78 01 00 	lea    0x178(%rsp),%rdi
  205caa:	00 
  205cab:	48 8d 15 f6 cf 00 00 	lea    0xcff6(%rip),%rdx        # 212ca8 <memset+0x13c8>
  205cb2:	e8 79 6a 00 00       	callq  20c730 <_ZN3log17__private_api_log17ha4b636ffcba62793E>
  205cb7:	e9 5c fe ff ff       	jmpq   205b18 <_ZN9r3_kernel10boot_proto12BootProtocol15print_boot_info17h223d91c5e4de5507E+0xf8>
  205cbc:	8a 84 24 46 01 00 00 	mov    0x146(%rsp),%al
            log::info!("RSDT Address: {:?}", bi.rsdp_addr);
  205cc3:	a8 01                	test   $0x1,%al
  205cc5:	75 0c                	jne    205cd3 <_ZN9r3_kernel10boot_proto12BootProtocol15print_boot_info17h223d91c5e4de5507E+0x2b3>
  205cc7:	eb 00                	jmp    205cc9 <_ZN9r3_kernel10boot_proto12BootProtocol15print_boot_info17h223d91c5e4de5507E+0x2a9>
  205cc9:	c6 84 24 ff 01 00 00 	movb   $0x0,0x1ff(%rsp)
  205cd0:	00 
  205cd1:	eb 60                	jmp    205d33 <_ZN9r3_kernel10boot_proto12BootProtocol15print_boot_info17h223d91c5e4de5507E+0x313>
  205cd3:	c6 84 24 cf 05 00 00 	movb   $0x0,0x5cf(%rsp)
  205cda:	00 
  205cdb:	48 8b 3d 06 de 00 00 	mov    0xde06(%rip),%rdi        # 213ae8 <anon.3bd2d5117e953c23f99d470f07b1e03a.2.llvm.2324975589069524467+0x60>
  205ce2:	0f b6 b4 24 cf 05 00 	movzbl 0x5cf(%rsp),%esi
  205ce9:	00 
  205cea:	e8 e1 4b 00 00       	callq  20a8d0 <_ZN4core4sync6atomic11AtomicUsize4load17habd50e9a578bb37bE>
  205cef:	48 89 84 24 d0 05 00 	mov    %rax,0x5d0(%rsp)
  205cf6:	00 
  205cf7:	48 8b 84 24 d0 05 00 	mov    0x5d0(%rsp),%rax
  205cfe:	00 
  205cff:	48 89 84 24 00 02 00 	mov    %rax,0x200(%rsp)
  205d06:	00 
  205d07:	48 8d bc 24 f0 01 00 	lea    0x1f0(%rsp),%rdi
  205d0e:	00 
  205d0f:	48 8d b4 24 00 02 00 	lea    0x200(%rsp),%rsi
  205d16:	00 
  205d17:	e8 24 ef ff ff       	callq  204c40 <_ZN76_$LT$log..Level$u20$as$u20$core..cmp..PartialOrd$LT$log..LevelFilter$GT$$GT$2le17h378b9a848e58149aE>
  205d1c:	88 84 24 ff 00 00 00 	mov    %al,0xff(%rsp)
  205d23:	8a 84 24 ff 00 00 00 	mov    0xff(%rsp),%al
  205d2a:	24 01                	and    $0x1,%al
  205d2c:	88 84 24 ff 01 00 00 	mov    %al,0x1ff(%rsp)
  205d33:	f6 84 24 ff 01 00 00 	testb  $0x1,0x1ff(%rsp)
  205d3a:	01 
  205d3b:	75 2c                	jne    205d69 <_ZN9r3_kernel10boot_proto12BootProtocol15print_boot_info17h223d91c5e4de5507E+0x349>
            log::info!("Memory offset: 0x{:x}", bi.physical_memory_offset.into_option().unwrap());
  205d3d:	48 c7 84 24 50 02 00 	movq   $0x3,0x250(%rsp)
  205d44:	00 03 00 00 00 
  205d49:	48 8d bc 24 50 02 00 	lea    0x250(%rsp),%rdi
  205d50:	00 
  205d51:	48 8d 35 e0 a5 ff ff 	lea    -0x5a20(%rip),%rsi        # 200338 <str.0+0x38>
  205d58:	e8 e3 ee ff ff       	callq  204c40 <_ZN76_$LT$log..Level$u20$as$u20$core..cmp..PartialOrd$LT$log..LevelFilter$GT$$GT$2le17h378b9a848e58149aE>
  205d5d:	88 84 24 fe 00 00 00 	mov    %al,0xfe(%rsp)
  205d64:	e9 a6 00 00 00       	jmpq   205e0f <_ZN9r3_kernel10boot_proto12BootProtocol15print_boot_info17h223d91c5e4de5507E+0x3ef>
  205d69:	48 8b 84 24 48 01 00 	mov    0x148(%rsp),%rax
  205d70:	00 
            log::info!("RSDT Address: {:?}", bi.rsdp_addr);
  205d71:	48 83 c0 78          	add    $0x78,%rax
  205d75:	48 89 84 24 48 02 00 	mov    %rax,0x248(%rsp)
  205d7c:	00 
  205d7d:	48 8b bc 24 48 02 00 	mov    0x248(%rsp),%rdi
  205d84:	00 
  205d85:	48 89 bc 24 20 05 00 	mov    %rdi,0x520(%rsp)
  205d8c:	00 
  205d8d:	48 8b 35 74 dd 00 00 	mov    0xdd74(%rip),%rsi        # 213b08 <anon.3bd2d5117e953c23f99d470f07b1e03a.2.llvm.2324975589069524467+0x80>
  205d94:	e8 87 4d 00 00       	callq  20ab20 <_ZN4core3fmt10ArgumentV13new17h1055d36b2201d16bE>
  205d99:	48 89 84 24 e8 00 00 	mov    %rax,0xe8(%rsp)
  205da0:	00 
  205da1:	48 89 94 24 f0 00 00 	mov    %rdx,0xf0(%rsp)
  205da8:	00 
  205da9:	48 8b 84 24 f0 00 00 	mov    0xf0(%rsp),%rax
  205db0:	00 
  205db1:	48 8b 8c 24 e8 00 00 	mov    0xe8(%rsp),%rcx
  205db8:	00 
  205db9:	48 89 8c 24 38 02 00 	mov    %rcx,0x238(%rsp)
  205dc0:	00 
  205dc1:	48 89 84 24 40 02 00 	mov    %rax,0x240(%rsp)
  205dc8:	00 
  205dc9:	48 8d 8c 24 38 02 00 	lea    0x238(%rsp),%rcx
  205dd0:	00 
  205dd1:	48 8d bc 24 08 02 00 	lea    0x208(%rsp),%rdi
  205dd8:	00 
  205dd9:	48 8d 35 00 cf 00 00 	lea    0xcf00(%rip),%rsi        # 212ce0 <memset+0x1400>
  205de0:	41 b8 01 00 00 00    	mov    $0x1,%r8d
  205de6:	4c 89 c2             	mov    %r8,%rdx
  205de9:	e8 22 e9 ff ff       	callq  204710 <_ZN4core3fmt9Arguments6new_v117h9654568d76c8366eE>
  205dee:	48 8b b4 24 f0 01 00 	mov    0x1f0(%rsp),%rsi
  205df5:	00 
  205df6:	48 8d bc 24 08 02 00 	lea    0x208(%rsp),%rdi
  205dfd:	00 
  205dfe:	48 8d 15 eb ce 00 00 	lea    0xceeb(%rip),%rdx        # 212cf0 <memset+0x1410>
  205e05:	e8 26 69 00 00       	callq  20c730 <_ZN3log17__private_api_log17ha4b636ffcba62793E>
  205e0a:	e9 2e ff ff ff       	jmpq   205d3d <_ZN9r3_kernel10boot_proto12BootProtocol15print_boot_info17h223d91c5e4de5507E+0x31d>
  205e0f:	8a 84 24 fe 00 00 00 	mov    0xfe(%rsp),%al
            log::info!("Memory offset: 0x{:x}", bi.physical_memory_offset.into_option().unwrap());
  205e16:	a8 01                	test   $0x1,%al
  205e18:	75 0c                	jne    205e26 <_ZN9r3_kernel10boot_proto12BootProtocol15print_boot_info17h223d91c5e4de5507E+0x406>
  205e1a:	eb 00                	jmp    205e1c <_ZN9r3_kernel10boot_proto12BootProtocol15print_boot_info17h223d91c5e4de5507E+0x3fc>
  205e1c:	c6 84 24 5f 02 00 00 	movb   $0x0,0x25f(%rsp)
  205e23:	00 
  205e24:	eb 60                	jmp    205e86 <_ZN9r3_kernel10boot_proto12BootProtocol15print_boot_info17h223d91c5e4de5507E+0x466>
  205e26:	c6 84 24 bf 05 00 00 	movb   $0x0,0x5bf(%rsp)
  205e2d:	00 
  205e2e:	48 8b 3d b3 dc 00 00 	mov    0xdcb3(%rip),%rdi        # 213ae8 <anon.3bd2d5117e953c23f99d470f07b1e03a.2.llvm.2324975589069524467+0x60>
  205e35:	0f b6 b4 24 bf 05 00 	movzbl 0x5bf(%rsp),%esi
  205e3c:	00 
  205e3d:	e8 8e 4a 00 00       	callq  20a8d0 <_ZN4core4sync6atomic11AtomicUsize4load17habd50e9a578bb37bE>
  205e42:	48 89 84 24 c0 05 00 	mov    %rax,0x5c0(%rsp)
  205e49:	00 
  205e4a:	48 8b 84 24 c0 05 00 	mov    0x5c0(%rsp),%rax
  205e51:	00 
  205e52:	48 89 84 24 60 02 00 	mov    %rax,0x260(%rsp)
  205e59:	00 
  205e5a:	48 8d bc 24 50 02 00 	lea    0x250(%rsp),%rdi
  205e61:	00 
  205e62:	48 8d b4 24 60 02 00 	lea    0x260(%rsp),%rsi
  205e69:	00 
  205e6a:	e8 d1 ed ff ff       	callq  204c40 <_ZN76_$LT$log..Level$u20$as$u20$core..cmp..PartialOrd$LT$log..LevelFilter$GT$$GT$2le17h378b9a848e58149aE>
  205e6f:	88 84 24 e7 00 00 00 	mov    %al,0xe7(%rsp)
  205e76:	8a 84 24 e7 00 00 00 	mov    0xe7(%rsp),%al
  205e7d:	24 01                	and    $0x1,%al
  205e7f:	88 84 24 5f 02 00 00 	mov    %al,0x25f(%rsp)
  205e86:	f6 84 24 5f 02 00 00 	testb  $0x1,0x25f(%rsp)
  205e8d:	01 
  205e8e:	75 12                	jne    205ea2 <_ZN9r3_kernel10boot_proto12BootProtocol15print_boot_info17h223d91c5e4de5507E+0x482>
            if let Some(memory_regions) = BootProtocol::get_memory_regions() {
  205e90:	e8 8b fa ff ff       	callq  205920 <_ZN9r3_kernel10boot_proto12BootProtocol18get_memory_regions17hc43e767c006d814bE>
  205e95:	48 89 84 24 b8 02 00 	mov    %rax,0x2b8(%rsp)
  205e9c:	00 
  205e9d:	e9 ea 00 00 00       	jmpq   205f8c <_ZN9r3_kernel10boot_proto12BootProtocol15print_boot_info17h223d91c5e4de5507E+0x56c>
  205ea2:	48 8b 84 24 48 01 00 	mov    0x148(%rsp),%rax
  205ea9:	00 
            log::info!("Memory offset: 0x{:x}", bi.physical_memory_offset.into_option().unwrap());
  205eaa:	8b 78 60             	mov    0x60(%rax),%edi
  205ead:	48 8b 70 68          	mov    0x68(%rax),%rsi
  205eb1:	e8 da 1e 00 00       	callq  207d90 <_ZN10bootloader9boot_info17Optional$LT$T$GT$11into_option17h2ff5b3c95de4d9fdE>
  205eb6:	48 89 84 24 d0 00 00 	mov    %rax,0xd0(%rsp)
  205ebd:	00 
  205ebe:	48 89 94 24 d8 00 00 	mov    %rdx,0xd8(%rsp)
  205ec5:	00 
  205ec6:	48 8b b4 24 d8 00 00 	mov    0xd8(%rsp),%rsi
  205ecd:	00 
  205ece:	48 8b bc 24 d0 00 00 	mov    0xd0(%rsp),%rdi
  205ed5:	00 
  205ed6:	48 8d 15 5b ce 00 00 	lea    0xce5b(%rip),%rdx        # 212d38 <memset+0x1458>
  205edd:	e8 3e eb ff ff       	callq  204a20 <_ZN4core6option15Option$LT$T$GT$6unwrap17h0214e307054b4802E>
  205ee2:	48 89 84 24 b0 02 00 	mov    %rax,0x2b0(%rsp)
  205ee9:	00 
  205eea:	48 8d 84 24 b0 02 00 	lea    0x2b0(%rsp),%rax
  205ef1:	00 
  205ef2:	48 89 84 24 a8 02 00 	mov    %rax,0x2a8(%rsp)
  205ef9:	00 
  205efa:	48 8b bc 24 a8 02 00 	mov    0x2a8(%rsp),%rdi
  205f01:	00 
  205f02:	48 89 bc 24 28 05 00 	mov    %rdi,0x528(%rsp)
  205f09:	00 
  205f0a:	48 8b 35 df db 00 00 	mov    0xdbdf(%rip),%rsi        # 213af0 <anon.3bd2d5117e953c23f99d470f07b1e03a.2.llvm.2324975589069524467+0x68>
  205f11:	e8 6a 4f 00 00       	callq  20ae80 <_ZN4core3fmt10ArgumentV13new17hed39039da1d20c39E>
  205f16:	48 89 84 24 c0 00 00 	mov    %rax,0xc0(%rsp)
  205f1d:	00 
  205f1e:	48 89 94 24 c8 00 00 	mov    %rdx,0xc8(%rsp)
  205f25:	00 
  205f26:	48 8b 84 24 c8 00 00 	mov    0xc8(%rsp),%rax
  205f2d:	00 
  205f2e:	48 8b 8c 24 c0 00 00 	mov    0xc0(%rsp),%rcx
  205f35:	00 
  205f36:	48 89 8c 24 98 02 00 	mov    %rcx,0x298(%rsp)
  205f3d:	00 
  205f3e:	48 89 84 24 a0 02 00 	mov    %rax,0x2a0(%rsp)
  205f45:	00 
  205f46:	48 8d 8c 24 98 02 00 	lea    0x298(%rsp),%rcx
  205f4d:	00 
  205f4e:	48 8d bc 24 68 02 00 	lea    0x268(%rsp),%rdi
  205f55:	00 
  205f56:	48 8d 35 cb cd 00 00 	lea    0xcdcb(%rip),%rsi        # 212d28 <memset+0x1448>
  205f5d:	41 b8 01 00 00 00    	mov    $0x1,%r8d
  205f63:	4c 89 c2             	mov    %r8,%rdx
  205f66:	e8 a5 e7 ff ff       	callq  204710 <_ZN4core3fmt9Arguments6new_v117h9654568d76c8366eE>
  205f6b:	48 8b b4 24 50 02 00 	mov    0x250(%rsp),%rsi
  205f72:	00 
  205f73:	48 8d bc 24 68 02 00 	lea    0x268(%rsp),%rdi
  205f7a:	00 
  205f7b:	48 8d 15 ce cd 00 00 	lea    0xcdce(%rip),%rdx        # 212d50 <memset+0x1470>
  205f82:	e8 a9 67 00 00       	callq  20c730 <_ZN3log17__private_api_log17ha4b636ffcba62793E>
  205f87:	e9 04 ff ff ff       	jmpq   205e90 <_ZN9r3_kernel10boot_proto12BootProtocol15print_boot_info17h223d91c5e4de5507E+0x470>
            if let Some(memory_regions) = BootProtocol::get_memory_regions() {
  205f8c:	b8 01 00 00 00       	mov    $0x1,%eax
  205f91:	31 c9                	xor    %ecx,%ecx
  205f93:	48 83 bc 24 b8 02 00 	cmpq   $0x0,0x2b8(%rsp)
  205f9a:	00 00 
  205f9c:	48 0f 44 c1          	cmove  %rcx,%rax
  205fa0:	48 83 f8 01          	cmp    $0x1,%rax
  205fa4:	75 2a                	jne    205fd0 <_ZN9r3_kernel10boot_proto12BootProtocol15print_boot_info17h223d91c5e4de5507E+0x5b0>
  205fa6:	48 8b bc 24 b8 02 00 	mov    0x2b8(%rsp),%rdi
  205fad:	00 
  205fae:	48 89 bc 24 b0 00 00 	mov    %rdi,0xb0(%rsp)
  205fb5:	00 
  205fb6:	48 89 bc 24 30 05 00 	mov    %rdi,0x530(%rsp)
  205fbd:	00 
                for region_idx in 0..memory_regions.len() {
  205fbe:	e8 cd 7c 00 00       	callq  20dc90 <_ZN80_$LT$bootloader..boot_info..MemoryRegions$u20$as$u20$core..ops..deref..Deref$GT$5deref17h83924d426b7efd36E>
  205fc3:	48 89 94 24 b8 00 00 	mov    %rdx,0xb8(%rsp)
  205fca:	00 
  205fcb:	e9 fd 00 00 00       	jmpq   2060cd <_ZN9r3_kernel10boot_proto12BootProtocol15print_boot_info17h223d91c5e4de5507E+0x6ad>
                log::warn!("Boot info doesn't contain memory map information.");
  205fd0:	48 c7 84 24 68 03 00 	movq   $0x2,0x368(%rsp)
  205fd7:	00 02 00 00 00 
  205fdc:	48 8d bc 24 68 03 00 	lea    0x368(%rsp),%rdi
  205fe3:	00 
  205fe4:	48 8d 35 4d a3 ff ff 	lea    -0x5cb3(%rip),%rsi        # 200338 <str.0+0x38>
  205feb:	e8 50 ec ff ff       	callq  204c40 <_ZN76_$LT$log..Level$u20$as$u20$core..cmp..PartialOrd$LT$log..LevelFilter$GT$$GT$2le17h378b9a848e58149aE>
  205ff0:	88 84 24 af 00 00 00 	mov    %al,0xaf(%rsp)
  205ff7:	8a 84 24 af 00 00 00 	mov    0xaf(%rsp),%al
  205ffe:	a8 01                	test   $0x1,%al
  206000:	75 0c                	jne    20600e <_ZN9r3_kernel10boot_proto12BootProtocol15print_boot_info17h223d91c5e4de5507E+0x5ee>
  206002:	eb 00                	jmp    206004 <_ZN9r3_kernel10boot_proto12BootProtocol15print_boot_info17h223d91c5e4de5507E+0x5e4>
  206004:	c6 84 24 77 03 00 00 	movb   $0x0,0x377(%rsp)
  20600b:	00 
  20600c:	eb 60                	jmp    20606e <_ZN9r3_kernel10boot_proto12BootProtocol15print_boot_info17h223d91c5e4de5507E+0x64e>
  20600e:	c6 84 24 af 05 00 00 	movb   $0x0,0x5af(%rsp)
  206015:	00 
  206016:	48 8b 3d cb da 00 00 	mov    0xdacb(%rip),%rdi        # 213ae8 <anon.3bd2d5117e953c23f99d470f07b1e03a.2.llvm.2324975589069524467+0x60>
  20601d:	0f b6 b4 24 af 05 00 	movzbl 0x5af(%rsp),%esi
  206024:	00 
  206025:	e8 a6 48 00 00       	callq  20a8d0 <_ZN4core4sync6atomic11AtomicUsize4load17habd50e9a578bb37bE>
  20602a:	48 89 84 24 b0 05 00 	mov    %rax,0x5b0(%rsp)
  206031:	00 
  206032:	48 8b 84 24 b0 05 00 	mov    0x5b0(%rsp),%rax
  206039:	00 
  20603a:	48 89 84 24 78 03 00 	mov    %rax,0x378(%rsp)
  206041:	00 
  206042:	48 8d bc 24 68 03 00 	lea    0x368(%rsp),%rdi
  206049:	00 
  20604a:	48 8d b4 24 78 03 00 	lea    0x378(%rsp),%rsi
  206051:	00 
  206052:	e8 e9 eb ff ff       	callq  204c40 <_ZN76_$LT$log..Level$u20$as$u20$core..cmp..PartialOrd$LT$log..LevelFilter$GT$$GT$2le17h378b9a848e58149aE>
  206057:	88 84 24 ae 00 00 00 	mov    %al,0xae(%rsp)
  20605e:	8a 84 24 ae 00 00 00 	mov    0xae(%rsp),%al
  206065:	24 01                	and    $0x1,%al
  206067:	88 84 24 77 03 00 00 	mov    %al,0x377(%rsp)
  20606e:	f6 84 24 77 03 00 00 	testb  $0x1,0x377(%rsp)
  206075:	01 
  206076:	75 12                	jne    20608a <_ZN9r3_kernel10boot_proto12BootProtocol15print_boot_info17h223d91c5e4de5507E+0x66a>
            if let Some(fb_info) = BootProtocol::get_framebuffer_info() {
  206078:	48 8d bc 24 b0 03 00 	lea    0x3b0(%rsp),%rdi
  20607f:	00 
  206080:	e8 eb f8 ff ff       	callq  205970 <_ZN9r3_kernel10boot_proto12BootProtocol20get_framebuffer_info17h359cc5b08ce307ecE>
  206085:	e9 c9 02 00 00       	jmpq   206353 <_ZN9r3_kernel10boot_proto12BootProtocol15print_boot_info17h223d91c5e4de5507E+0x933>
                log::warn!("Boot info doesn't contain memory map information.");
  20608a:	48 8d bc 24 80 03 00 	lea    0x380(%rsp),%rdi
  206091:	00 
  206092:	48 8d 35 ef cc 00 00 	lea    0xccef(%rip),%rsi        # 212d88 <memset+0x14a8>
  206099:	ba 01 00 00 00       	mov    $0x1,%edx
  20609e:	48 8d 0d 9b a5 ff ff 	lea    -0x5a65(%rip),%rcx        # 200640 <str.0+0xb0>
  2060a5:	31 c0                	xor    %eax,%eax
  2060a7:	41 89 c0             	mov    %eax,%r8d
  2060aa:	e8 61 e6 ff ff       	callq  204710 <_ZN4core3fmt9Arguments6new_v117h9654568d76c8366eE>
  2060af:	48 8b b4 24 68 03 00 	mov    0x368(%rsp),%rsi
  2060b6:	00 
  2060b7:	48 8d bc 24 80 03 00 	lea    0x380(%rsp),%rdi
  2060be:	00 
  2060bf:	48 8d 15 d2 cc 00 00 	lea    0xccd2(%rip),%rdx        # 212d98 <memset+0x14b8>
  2060c6:	e8 65 66 00 00       	callq  20c730 <_ZN3log17__private_api_log17ha4b636ffcba62793E>
  2060cb:	eb ab                	jmp    206078 <_ZN9r3_kernel10boot_proto12BootProtocol15print_boot_info17h223d91c5e4de5507E+0x658>
  2060cd:	48 8b 84 24 b8 00 00 	mov    0xb8(%rsp),%rax
  2060d4:	00 
                for region_idx in 0..memory_regions.len() {
  2060d5:	48 c7 84 24 c0 02 00 	movq   $0x0,0x2c0(%rsp)
  2060dc:	00 00 00 00 00 
  2060e1:	48 89 84 24 c8 02 00 	mov    %rax,0x2c8(%rsp)
  2060e8:	00 
  2060e9:	48 8b bc 24 c0 02 00 	mov    0x2c0(%rsp),%rdi
  2060f0:	00 
  2060f1:	48 8b b4 24 c8 02 00 	mov    0x2c8(%rsp),%rsi
  2060f8:	00 
  2060f9:	e8 12 32 00 00       	callq  209310 <_ZN63_$LT$I$u20$as$u20$core..iter..traits..collect..IntoIterator$GT$9into_iter17haabf9c3393bbf5bcE>
  2060fe:	48 89 84 24 98 00 00 	mov    %rax,0x98(%rsp)
  206105:	00 
  206106:	48 89 94 24 a0 00 00 	mov    %rdx,0xa0(%rsp)
  20610d:	00 
  20610e:	48 8b 84 24 a0 00 00 	mov    0xa0(%rsp),%rax
  206115:	00 
  206116:	48 8b 8c 24 98 00 00 	mov    0x98(%rsp),%rcx
  20611d:	00 
  20611e:	48 89 8c 24 d0 02 00 	mov    %rcx,0x2d0(%rsp)
  206125:	00 
  206126:	48 89 84 24 d8 02 00 	mov    %rax,0x2d8(%rsp)
  20612d:	00 
  20612e:	48 8d bc 24 d0 02 00 	lea    0x2d0(%rsp),%rdi
  206135:	00 
  206136:	e8 a5 31 00 00       	callq  2092e0 <_ZN4core4iter5range101_$LT$impl$u20$core..iter..traits..iterator..Iterator$u20$for$u20$core..ops..range..Range$LT$A$GT$$GT$4next17hde79bfc4fb025d57E>
  20613b:	48 89 94 24 e8 02 00 	mov    %rdx,0x2e8(%rsp)
  206142:	00 
  206143:	48 89 84 24 e0 02 00 	mov    %rax,0x2e0(%rsp)
  20614a:	00 
  20614b:	48 8b 84 24 e0 02 00 	mov    0x2e0(%rsp),%rax
  206152:	00 
  206153:	48 85 c0             	test   %rax,%rax
  206156:	0f 84 1c ff ff ff    	je     206078 <_ZN9r3_kernel10boot_proto12BootProtocol15print_boot_info17h223d91c5e4de5507E+0x658>
  20615c:	eb 00                	jmp    20615e <_ZN9r3_kernel10boot_proto12BootProtocol15print_boot_info17h223d91c5e4de5507E+0x73e>
  20615e:	eb 02                	jmp    206162 <_ZN9r3_kernel10boot_proto12BootProtocol15print_boot_info17h223d91c5e4de5507E+0x742>
  206160:	0f 0b                	ud2    
  206162:	48 8b bc 24 b0 00 00 	mov    0xb0(%rsp),%rdi
  206169:	00 
  20616a:	48 8b 84 24 e8 02 00 	mov    0x2e8(%rsp),%rax
  206171:	00 
  206172:	48 89 84 24 80 00 00 	mov    %rax,0x80(%rsp)
  206179:	00 
  20617a:	48 89 84 24 38 05 00 	mov    %rax,0x538(%rsp)
  206181:	00 
  206182:	48 89 84 24 40 05 00 	mov    %rax,0x540(%rsp)
  206189:	00 
  20618a:	48 89 84 24 48 05 00 	mov    %rax,0x548(%rsp)
  206191:	00 
                    let region = memory_regions[region_idx];
  206192:	e8 f9 7a 00 00       	callq  20dc90 <_ZN80_$LT$bootloader..boot_info..MemoryRegions$u20$as$u20$core..ops..deref..Deref$GT$5deref17h83924d426b7efd36E>
  206197:	48 89 84 24 88 00 00 	mov    %rax,0x88(%rsp)
  20619e:	00 
  20619f:	48 89 94 24 90 00 00 	mov    %rdx,0x90(%rsp)
  2061a6:	00 
  2061a7:	48 8b 84 24 80 00 00 	mov    0x80(%rsp),%rax
  2061ae:	00 
  2061af:	48 8b 8c 24 90 00 00 	mov    0x90(%rsp),%rcx
  2061b6:	00 
  2061b7:	48 39 c8             	cmp    %rcx,%rax
  2061ba:	0f 92 c0             	setb   %al
  2061bd:	a8 01                	test   $0x1,%al
  2061bf:	75 02                	jne    2061c3 <_ZN9r3_kernel10boot_proto12BootProtocol15print_boot_info17h223d91c5e4de5507E+0x7a3>
  2061c1:	eb 60                	jmp    206223 <_ZN9r3_kernel10boot_proto12BootProtocol15print_boot_info17h223d91c5e4de5507E+0x803>
  2061c3:	48 8b 84 24 88 00 00 	mov    0x88(%rsp),%rax
  2061ca:	00 
  2061cb:	48 8b 8c 24 80 00 00 	mov    0x80(%rsp),%rcx
  2061d2:	00 
  2061d3:	48 6b c9 18          	imul   $0x18,%rcx,%rcx
  2061d7:	48 01 c8             	add    %rcx,%rax
  2061da:	48 8b 08             	mov    (%rax),%rcx
  2061dd:	48 89 8c 24 f0 02 00 	mov    %rcx,0x2f0(%rsp)
  2061e4:	00 
  2061e5:	48 8b 48 08          	mov    0x8(%rax),%rcx
  2061e9:	48 89 8c 24 f8 02 00 	mov    %rcx,0x2f8(%rsp)
  2061f0:	00 
  2061f1:	48 8b 40 10          	mov    0x10(%rax),%rax
  2061f5:	48 89 84 24 00 03 00 	mov    %rax,0x300(%rsp)
  2061fc:	00 
                    log::info!("{:?}", region);
  2061fd:	48 c7 84 24 08 03 00 	movq   $0x3,0x308(%rsp)
  206204:	00 03 00 00 00 
  206209:	48 8d bc 24 08 03 00 	lea    0x308(%rsp),%rdi
  206210:	00 
  206211:	48 8d 35 20 a1 ff ff 	lea    -0x5ee0(%rip),%rsi        # 200338 <str.0+0x38>
  206218:	e8 23 ea ff ff       	callq  204c40 <_ZN76_$LT$log..Level$u20$as$u20$core..cmp..PartialOrd$LT$log..LevelFilter$GT$$GT$2le17h378b9a848e58149aE>
  20621d:	88 44 24 7f          	mov    %al,0x7f(%rsp)
  206221:	eb 1e                	jmp    206241 <_ZN9r3_kernel10boot_proto12BootProtocol15print_boot_info17h223d91c5e4de5507E+0x821>
  206223:	48 8b b4 24 90 00 00 	mov    0x90(%rsp),%rsi
  20622a:	00 
  20622b:	48 8b bc 24 80 00 00 	mov    0x80(%rsp),%rdi
  206232:	00 
                    let region = memory_regions[region_idx];
  206233:	48 8d 15 96 cb 00 00 	lea    0xcb96(%rip),%rdx        # 212dd0 <memset+0x14f0>
  20623a:	e8 a1 8c 00 00       	callq  20eee0 <_ZN4core9panicking18panic_bounds_check17hf79d68bd70fd5de9E>
  20623f:	0f 0b                	ud2    
  206241:	8a 44 24 7f          	mov    0x7f(%rsp),%al
                    log::info!("{:?}", region);
  206245:	a8 01                	test   $0x1,%al
  206247:	75 0c                	jne    206255 <_ZN9r3_kernel10boot_proto12BootProtocol15print_boot_info17h223d91c5e4de5507E+0x835>
  206249:	eb 00                	jmp    20624b <_ZN9r3_kernel10boot_proto12BootProtocol15print_boot_info17h223d91c5e4de5507E+0x82b>
  20624b:	c6 84 24 17 03 00 00 	movb   $0x0,0x317(%rsp)
  206252:	00 
  206253:	eb 5a                	jmp    2062af <_ZN9r3_kernel10boot_proto12BootProtocol15print_boot_info17h223d91c5e4de5507E+0x88f>
  206255:	c6 84 24 9f 05 00 00 	movb   $0x0,0x59f(%rsp)
  20625c:	00 
  20625d:	48 8b 3d 84 d8 00 00 	mov    0xd884(%rip),%rdi        # 213ae8 <anon.3bd2d5117e953c23f99d470f07b1e03a.2.llvm.2324975589069524467+0x60>
  206264:	0f b6 b4 24 9f 05 00 	movzbl 0x59f(%rsp),%esi
  20626b:	00 
  20626c:	e8 5f 46 00 00       	callq  20a8d0 <_ZN4core4sync6atomic11AtomicUsize4load17habd50e9a578bb37bE>
  206271:	48 89 84 24 a0 05 00 	mov    %rax,0x5a0(%rsp)
  206278:	00 
  206279:	48 8b 84 24 a0 05 00 	mov    0x5a0(%rsp),%rax
  206280:	00 
  206281:	48 89 84 24 18 03 00 	mov    %rax,0x318(%rsp)
  206288:	00 
  206289:	48 8d bc 24 08 03 00 	lea    0x308(%rsp),%rdi
  206290:	00 
  206291:	48 8d b4 24 18 03 00 	lea    0x318(%rsp),%rsi
  206298:	00 
  206299:	e8 a2 e9 ff ff       	callq  204c40 <_ZN76_$LT$log..Level$u20$as$u20$core..cmp..PartialOrd$LT$log..LevelFilter$GT$$GT$2le17h378b9a848e58149aE>
  20629e:	88 44 24 7e          	mov    %al,0x7e(%rsp)
  2062a2:	8a 44 24 7e          	mov    0x7e(%rsp),%al
  2062a6:	24 01                	and    $0x1,%al
  2062a8:	88 84 24 17 03 00 00 	mov    %al,0x317(%rsp)
  2062af:	f6 84 24 17 03 00 00 	testb  $0x1,0x317(%rsp)
  2062b6:	01 
  2062b7:	0f 84 71 fe ff ff    	je     20612e <_ZN9r3_kernel10boot_proto12BootProtocol15print_boot_info17h223d91c5e4de5507E+0x70e>
  2062bd:	48 8d 84 24 f0 02 00 	lea    0x2f0(%rsp),%rax
  2062c4:	00 
  2062c5:	48 89 84 24 60 03 00 	mov    %rax,0x360(%rsp)
  2062cc:	00 
  2062cd:	48 8b bc 24 60 03 00 	mov    0x360(%rsp),%rdi
  2062d4:	00 
  2062d5:	48 89 bc 24 50 05 00 	mov    %rdi,0x550(%rsp)
  2062dc:	00 
  2062dd:	48 8b 35 2c d8 00 00 	mov    0xd82c(%rip),%rsi        # 213b10 <anon.3bd2d5117e953c23f99d470f07b1e03a.2.llvm.2324975589069524467+0x88>
  2062e4:	e8 57 49 00 00       	callq  20ac40 <_ZN4core3fmt10ArgumentV13new17h3d8fc7a58ad0ecdfE>
  2062e9:	48 89 44 24 68       	mov    %rax,0x68(%rsp)
  2062ee:	48 89 54 24 70       	mov    %rdx,0x70(%rsp)
  2062f3:	48 8b 44 24 70       	mov    0x70(%rsp),%rax
  2062f8:	48 8b 4c 24 68       	mov    0x68(%rsp),%rcx
  2062fd:	48 89 8c 24 50 03 00 	mov    %rcx,0x350(%rsp)
  206304:	00 
  206305:	48 89 84 24 58 03 00 	mov    %rax,0x358(%rsp)
  20630c:	00 
  20630d:	48 8d 8c 24 50 03 00 	lea    0x350(%rsp),%rcx
  206314:	00 
  206315:	48 8d bc 24 20 03 00 	lea    0x320(%rsp),%rdi
  20631c:	00 
  20631d:	48 8d 35 c4 ca 00 00 	lea    0xcac4(%rip),%rsi        # 212de8 <memset+0x1508>
  206324:	41 b8 01 00 00 00    	mov    $0x1,%r8d
  20632a:	4c 89 c2             	mov    %r8,%rdx
  20632d:	e8 de e3 ff ff       	callq  204710 <_ZN4core3fmt9Arguments6new_v117h9654568d76c8366eE>
  206332:	48 8b b4 24 08 03 00 	mov    0x308(%rsp),%rsi
  206339:	00 
  20633a:	48 8d bc 24 20 03 00 	lea    0x320(%rsp),%rdi
  206341:	00 
  206342:	48 8d 15 af ca 00 00 	lea    0xcaaf(%rip),%rdx        # 212df8 <memset+0x1518>
  206349:	e8 e2 63 00 00       	callq  20c730 <_ZN3log17__private_api_log17ha4b636ffcba62793E>
  20634e:	e9 db fd ff ff       	jmpq   20612e <_ZN9r3_kernel10boot_proto12BootProtocol15print_boot_info17h223d91c5e4de5507E+0x70e>
            if let Some(fb_info) = BootProtocol::get_framebuffer_info() {
  206353:	8b 94 24 c8 03 00 00 	mov    0x3c8(%rsp),%edx
  20635a:	83 ea 03             	sub    $0x3,%edx
  20635d:	b8 01 00 00 00       	mov    $0x1,%eax
  206362:	31 c9                	xor    %ecx,%ecx
  206364:	83 fa 00             	cmp    $0x0,%edx
  206367:	48 0f 44 c1          	cmove  %rcx,%rax
  20636b:	48 83 f8 01          	cmp    $0x1,%rax
  20636f:	75 43                	jne    2063b4 <_ZN9r3_kernel10boot_proto12BootProtocol15print_boot_info17h223d91c5e4de5507E+0x994>
  206371:	48 8d b4 24 b0 03 00 	lea    0x3b0(%rsp),%rsi
  206378:	00 
  206379:	48 8d bc 24 e0 03 00 	lea    0x3e0(%rsp),%rdi
  206380:	00 
  206381:	ba 30 00 00 00       	mov    $0x30,%edx
  206386:	e8 35 b5 00 00       	callq  2118c0 <memcpy>
                log::info!(
  20638b:	48 c7 84 24 10 04 00 	movq   $0x3,0x410(%rsp)
  206392:	00 03 00 00 00 
  206397:	48 8d bc 24 10 04 00 	lea    0x410(%rsp),%rdi
  20639e:	00 
  20639f:	48 8d 35 92 9f ff ff 	lea    -0x606e(%rip),%rsi        # 200338 <str.0+0x38>
  2063a6:	e8 95 e8 ff ff       	callq  204c40 <_ZN76_$LT$log..Level$u20$as$u20$core..cmp..PartialOrd$LT$log..LevelFilter$GT$$GT$2le17h378b9a848e58149aE>
  2063ab:	88 44 24 67          	mov    %al,0x67(%rsp)
  2063af:	e9 e6 00 00 00       	jmpq   20649a <_ZN9r3_kernel10boot_proto12BootProtocol15print_boot_info17h223d91c5e4de5507E+0xa7a>
                log::warn!("Boot info doesn't contain framebuffer information.");
  2063b4:	48 c7 84 24 b8 04 00 	movq   $0x2,0x4b8(%rsp)
  2063bb:	00 02 00 00 00 
  2063c0:	48 8d bc 24 b8 04 00 	lea    0x4b8(%rsp),%rdi
  2063c7:	00 
  2063c8:	48 8d 35 69 9f ff ff 	lea    -0x6097(%rip),%rsi        # 200338 <str.0+0x38>
  2063cf:	e8 6c e8 ff ff       	callq  204c40 <_ZN76_$LT$log..Level$u20$as$u20$core..cmp..PartialOrd$LT$log..LevelFilter$GT$$GT$2le17h378b9a848e58149aE>
  2063d4:	88 44 24 66          	mov    %al,0x66(%rsp)
  2063d8:	8a 44 24 66          	mov    0x66(%rsp),%al
  2063dc:	a8 01                	test   $0x1,%al
  2063de:	75 0c                	jne    2063ec <_ZN9r3_kernel10boot_proto12BootProtocol15print_boot_info17h223d91c5e4de5507E+0x9cc>
  2063e0:	eb 00                	jmp    2063e2 <_ZN9r3_kernel10boot_proto12BootProtocol15print_boot_info17h223d91c5e4de5507E+0x9c2>
  2063e2:	c6 84 24 c7 04 00 00 	movb   $0x0,0x4c7(%rsp)
  2063e9:	00 
  2063ea:	eb 5a                	jmp    206446 <_ZN9r3_kernel10boot_proto12BootProtocol15print_boot_info17h223d91c5e4de5507E+0xa26>
  2063ec:	c6 84 24 8f 05 00 00 	movb   $0x0,0x58f(%rsp)
  2063f3:	00 
  2063f4:	48 8b 3d ed d6 00 00 	mov    0xd6ed(%rip),%rdi        # 213ae8 <anon.3bd2d5117e953c23f99d470f07b1e03a.2.llvm.2324975589069524467+0x60>
  2063fb:	0f b6 b4 24 8f 05 00 	movzbl 0x58f(%rsp),%esi
  206402:	00 
  206403:	e8 c8 44 00 00       	callq  20a8d0 <_ZN4core4sync6atomic11AtomicUsize4load17habd50e9a578bb37bE>
  206408:	48 89 84 24 90 05 00 	mov    %rax,0x590(%rsp)
  20640f:	00 
  206410:	48 8b 84 24 90 05 00 	mov    0x590(%rsp),%rax
  206417:	00 
  206418:	48 89 84 24 c8 04 00 	mov    %rax,0x4c8(%rsp)
  20641f:	00 
  206420:	48 8d bc 24 b8 04 00 	lea    0x4b8(%rsp),%rdi
  206427:	00 
  206428:	48 8d b4 24 c8 04 00 	lea    0x4c8(%rsp),%rsi
  20642f:	00 
  206430:	e8 0b e8 ff ff       	callq  204c40 <_ZN76_$LT$log..Level$u20$as$u20$core..cmp..PartialOrd$LT$log..LevelFilter$GT$$GT$2le17h378b9a848e58149aE>
  206435:	88 44 24 65          	mov    %al,0x65(%rsp)
  206439:	8a 44 24 65          	mov    0x65(%rsp),%al
  20643d:	24 01                	and    $0x1,%al
  20643f:	88 84 24 c7 04 00 00 	mov    %al,0x4c7(%rsp)
  206446:	f6 84 24 c7 04 00 00 	testb  $0x1,0x4c7(%rsp)
  20644d:	01 
  20644e:	0f 84 3b f6 ff ff    	je     205a8f <_ZN9r3_kernel10boot_proto12BootProtocol15print_boot_info17h223d91c5e4de5507E+0x6f>
  206454:	48 8d bc 24 d0 04 00 	lea    0x4d0(%rsp),%rdi
  20645b:	00 
  20645c:	48 8d 35 cd c9 00 00 	lea    0xc9cd(%rip),%rsi        # 212e30 <memset+0x1550>
  206463:	ba 01 00 00 00       	mov    $0x1,%edx
  206468:	48 8d 0d d1 a1 ff ff 	lea    -0x5e2f(%rip),%rcx        # 200640 <str.0+0xb0>
  20646f:	31 c0                	xor    %eax,%eax
  206471:	41 89 c0             	mov    %eax,%r8d
  206474:	e8 97 e2 ff ff       	callq  204710 <_ZN4core3fmt9Arguments6new_v117h9654568d76c8366eE>
  206479:	48 8b b4 24 b8 04 00 	mov    0x4b8(%rsp),%rsi
  206480:	00 
  206481:	48 8d bc 24 d0 04 00 	lea    0x4d0(%rsp),%rdi
  206488:	00 
  206489:	48 8d 15 b0 c9 00 00 	lea    0xc9b0(%rip),%rdx        # 212e40 <memset+0x1560>
  206490:	e8 9b 62 00 00       	callq  20c730 <_ZN3log17__private_api_log17ha4b636ffcba62793E>
  206495:	e9 f5 f5 ff ff       	jmpq   205a8f <_ZN9r3_kernel10boot_proto12BootProtocol15print_boot_info17h223d91c5e4de5507E+0x6f>
  20649a:	8a 44 24 67          	mov    0x67(%rsp),%al
                log::info!(
  20649e:	a8 01                	test   $0x1,%al
  2064a0:	75 0c                	jne    2064ae <_ZN9r3_kernel10boot_proto12BootProtocol15print_boot_info17h223d91c5e4de5507E+0xa8e>
  2064a2:	eb 00                	jmp    2064a4 <_ZN9r3_kernel10boot_proto12BootProtocol15print_boot_info17h223d91c5e4de5507E+0xa84>
  2064a4:	c6 84 24 1f 04 00 00 	movb   $0x0,0x41f(%rsp)
  2064ab:	00 
  2064ac:	eb 5a                	jmp    206508 <_ZN9r3_kernel10boot_proto12BootProtocol15print_boot_info17h223d91c5e4de5507E+0xae8>
  2064ae:	c6 84 24 7f 05 00 00 	movb   $0x0,0x57f(%rsp)
  2064b5:	00 
  2064b6:	48 8b 3d 2b d6 00 00 	mov    0xd62b(%rip),%rdi        # 213ae8 <anon.3bd2d5117e953c23f99d470f07b1e03a.2.llvm.2324975589069524467+0x60>
  2064bd:	0f b6 b4 24 7f 05 00 	movzbl 0x57f(%rsp),%esi
  2064c4:	00 
  2064c5:	e8 06 44 00 00       	callq  20a8d0 <_ZN4core4sync6atomic11AtomicUsize4load17habd50e9a578bb37bE>
  2064ca:	48 89 84 24 80 05 00 	mov    %rax,0x580(%rsp)
  2064d1:	00 
  2064d2:	48 8b 84 24 80 05 00 	mov    0x580(%rsp),%rax
  2064d9:	00 
  2064da:	48 89 84 24 20 04 00 	mov    %rax,0x420(%rsp)
  2064e1:	00 
  2064e2:	48 8d bc 24 10 04 00 	lea    0x410(%rsp),%rdi
  2064e9:	00 
  2064ea:	48 8d b4 24 20 04 00 	lea    0x420(%rsp),%rsi
  2064f1:	00 
  2064f2:	e8 49 e7 ff ff       	callq  204c40 <_ZN76_$LT$log..Level$u20$as$u20$core..cmp..PartialOrd$LT$log..LevelFilter$GT$$GT$2le17h378b9a848e58149aE>
  2064f7:	88 44 24 64          	mov    %al,0x64(%rsp)
  2064fb:	8a 44 24 64          	mov    0x64(%rsp),%al
  2064ff:	24 01                	and    $0x1,%al
  206501:	88 84 24 1f 04 00 00 	mov    %al,0x41f(%rsp)
  206508:	f6 84 24 1f 04 00 00 	testb  $0x1,0x41f(%rsp)
  20650f:	01 
  206510:	0f 84 79 f5 ff ff    	je     205a8f <_ZN9r3_kernel10boot_proto12BootProtocol15print_boot_info17h223d91c5e4de5507E+0x6f>
                    fb_info.horizontal_resolution, fb_info.vertical_resolution,
  206516:	48 8d b4 24 e0 03 00 	lea    0x3e0(%rsp),%rsi
  20651d:	00 
  20651e:	48 83 c6 08          	add    $0x8,%rsi
  206522:	48 8d 94 24 e0 03 00 	lea    0x3e0(%rsp),%rdx
  206529:	00 
  20652a:	48 83 c2 10          	add    $0x10,%rdx
                    fb_info.bytes_per_pixel, fb_info.pixel_format
  20652e:	48 8d 8c 24 e0 03 00 	lea    0x3e0(%rsp),%rcx
  206535:	00 
  206536:	48 83 c1 20          	add    $0x20,%rcx
  20653a:	48 8d 84 24 e0 03 00 	lea    0x3e0(%rsp),%rax
  206541:	00 
  206542:	48 83 c0 18          	add    $0x18,%rax
                log::info!(
  206546:	48 89 b4 24 98 04 00 	mov    %rsi,0x498(%rsp)
  20654d:	00 
  20654e:	48 89 94 24 a0 04 00 	mov    %rdx,0x4a0(%rsp)
  206555:	00 
  206556:	48 89 8c 24 a8 04 00 	mov    %rcx,0x4a8(%rsp)
  20655d:	00 
  20655e:	48 89 84 24 b0 04 00 	mov    %rax,0x4b0(%rsp)
  206565:	00 
  206566:	48 8b bc 24 98 04 00 	mov    0x498(%rsp),%rdi
  20656d:	00 
  20656e:	48 89 bc 24 58 05 00 	mov    %rdi,0x558(%rsp)
  206575:	00 
  206576:	48 8b 84 24 a0 04 00 	mov    0x4a0(%rsp),%rax
  20657d:	00 
  20657e:	48 89 44 24 38       	mov    %rax,0x38(%rsp)
  206583:	48 89 84 24 60 05 00 	mov    %rax,0x560(%rsp)
  20658a:	00 
  20658b:	48 8b 84 24 a8 04 00 	mov    0x4a8(%rsp),%rax
  206592:	00 
  206593:	48 89 44 24 40       	mov    %rax,0x40(%rsp)
  206598:	48 89 84 24 68 05 00 	mov    %rax,0x568(%rsp)
  20659f:	00 
  2065a0:	48 8b 84 24 b0 04 00 	mov    0x4b0(%rsp),%rax
  2065a7:	00 
  2065a8:	48 89 44 24 48       	mov    %rax,0x48(%rsp)
  2065ad:	48 89 84 24 70 05 00 	mov    %rax,0x570(%rsp)
  2065b4:	00 
  2065b5:	48 8b 35 5c d5 00 00 	mov    0xd55c(%rip),%rsi        # 213b18 <anon.3bd2d5117e953c23f99d470f07b1e03a.2.llvm.2324975589069524467+0x90>
  2065bc:	e8 ff 47 00 00       	callq  20adc0 <_ZN4core3fmt10ArgumentV13new17hdc56630c0a43f264E>
  2065c1:	48 89 44 24 50       	mov    %rax,0x50(%rsp)
  2065c6:	48 89 54 24 58       	mov    %rdx,0x58(%rsp)
  2065cb:	48 8b 7c 24 38       	mov    0x38(%rsp),%rdi
  2065d0:	48 8b 35 41 d5 00 00 	mov    0xd541(%rip),%rsi        # 213b18 <anon.3bd2d5117e953c23f99d470f07b1e03a.2.llvm.2324975589069524467+0x90>
  2065d7:	e8 e4 47 00 00       	callq  20adc0 <_ZN4core3fmt10ArgumentV13new17hdc56630c0a43f264E>
  2065dc:	48 89 44 24 28       	mov    %rax,0x28(%rsp)
  2065e1:	48 89 54 24 30       	mov    %rdx,0x30(%rsp)
  2065e6:	48 8b 7c 24 40       	mov    0x40(%rsp),%rdi
  2065eb:	48 8b 35 26 d5 00 00 	mov    0xd526(%rip),%rsi        # 213b18 <anon.3bd2d5117e953c23f99d470f07b1e03a.2.llvm.2324975589069524467+0x90>
  2065f2:	e8 c9 47 00 00       	callq  20adc0 <_ZN4core3fmt10ArgumentV13new17hdc56630c0a43f264E>
  2065f7:	48 89 44 24 18       	mov    %rax,0x18(%rsp)
  2065fc:	48 89 54 24 20       	mov    %rdx,0x20(%rsp)
  206601:	48 8b 7c 24 48       	mov    0x48(%rsp),%rdi
  206606:	48 8b 35 13 d5 00 00 	mov    0xd513(%rip),%rsi        # 213b20 <anon.3bd2d5117e953c23f99d470f07b1e03a.2.llvm.2324975589069524467+0x98>
  20660d:	e8 4e 47 00 00       	callq  20ad60 <_ZN4core3fmt10ArgumentV13new17hcebee369d36adbb6E>
  206612:	48 89 44 24 08       	mov    %rax,0x8(%rsp)
  206617:	48 89 54 24 10       	mov    %rdx,0x10(%rsp)
  20661c:	48 8b 44 24 10       	mov    0x10(%rsp),%rax
  206621:	48 8b 4c 24 08       	mov    0x8(%rsp),%rcx
  206626:	48 8b 54 24 20       	mov    0x20(%rsp),%rdx
  20662b:	48 8b 74 24 18       	mov    0x18(%rsp),%rsi
  206630:	48 8b 7c 24 30       	mov    0x30(%rsp),%rdi
  206635:	4c 8b 44 24 28       	mov    0x28(%rsp),%r8
  20663a:	4c 8b 4c 24 58       	mov    0x58(%rsp),%r9
  20663f:	4c 8b 54 24 50       	mov    0x50(%rsp),%r10
  206644:	4c 89 94 24 58 04 00 	mov    %r10,0x458(%rsp)
  20664b:	00 
  20664c:	4c 89 8c 24 60 04 00 	mov    %r9,0x460(%rsp)
  206653:	00 
  206654:	4c 89 84 24 68 04 00 	mov    %r8,0x468(%rsp)
  20665b:	00 
  20665c:	48 89 bc 24 70 04 00 	mov    %rdi,0x470(%rsp)
  206663:	00 
  206664:	48 89 b4 24 78 04 00 	mov    %rsi,0x478(%rsp)
  20666b:	00 
  20666c:	48 89 94 24 80 04 00 	mov    %rdx,0x480(%rsp)
  206673:	00 
  206674:	48 89 8c 24 88 04 00 	mov    %rcx,0x488(%rsp)
  20667b:	00 
  20667c:	48 89 84 24 90 04 00 	mov    %rax,0x490(%rsp)
  206683:	00 
  206684:	48 8d 8c 24 58 04 00 	lea    0x458(%rsp),%rcx
  20668b:	00 
  20668c:	48 8d bc 24 28 04 00 	lea    0x428(%rsp),%rdi
  206693:	00 
  206694:	48 8d 35 dd c7 00 00 	lea    0xc7dd(%rip),%rsi        # 212e78 <memset+0x1598>
  20669b:	41 b8 04 00 00 00    	mov    $0x4,%r8d
  2066a1:	4c 89 c2             	mov    %r8,%rdx
  2066a4:	e8 67 e0 ff ff       	callq  204710 <_ZN4core3fmt9Arguments6new_v117h9654568d76c8366eE>
  2066a9:	48 8b b4 24 10 04 00 	mov    0x410(%rsp),%rsi
  2066b0:	00 
  2066b1:	48 8d bc 24 28 04 00 	lea    0x428(%rsp),%rdi
  2066b8:	00 
  2066b9:	48 8d 15 f8 c7 00 00 	lea    0xc7f8(%rip),%rdx        # 212eb8 <memset+0x15d8>
  2066c0:	e8 6b 60 00 00       	callq  20c730 <_ZN3log17__private_api_log17ha4b636ffcba62793E>
  2066c5:	e9 c5 f3 ff ff       	jmpq   205a8f <_ZN9r3_kernel10boot_proto12BootProtocol15print_boot_info17h223d91c5e4de5507E+0x6f>
  2066ca:	cc                   	int3   
  2066cb:	cc                   	int3   
  2066cc:	cc                   	int3   
  2066cd:	cc                   	int3   
  2066ce:	cc                   	int3   
  2066cf:	cc                   	int3   

00000000002066d0 <_ZN76_$LT$r3_kernel..boot_proto..BOOT_INFO$u20$as$u20$core..ops..deref..Deref$GT$5deref17he8254bf6449c3446E>:
            fn deref(&self) -> &$T {
  2066d0:	48 83 ec 18          	sub    $0x18,%rsp
  2066d4:	48 89 7c 24 08       	mov    %rdi,0x8(%rsp)
  2066d9:	48 8d 05 a8 35 01 00 	lea    0x135a8(%rip),%rax        # 219c88 <_ZN76_$LT$r3_kernel..boot_proto..BOOT_INFO$u20$as$u20$core..ops..deref..Deref$GT$5deref11__stability4LAZY17h95f8b6f4aca1b584E>
  2066e0:	48 89 44 24 10       	mov    %rax,0x10(%rsp)
  2066e5:	48 8d 3d 9c 35 01 00 	lea    0x1359c(%rip),%rdi        # 219c88 <_ZN76_$LT$r3_kernel..boot_proto..BOOT_INFO$u20$as$u20$core..ops..deref..Deref$GT$5deref11__stability4LAZY17h95f8b6f4aca1b584E>
  2066ec:	e8 6f 0e 00 00       	callq  207560 <_ZN4spin4once13Once$LT$T$GT$9call_once17hacbad4e30be1d63fE>
  2066f1:	48 89 04 24          	mov    %rax,(%rsp)
  2066f5:	48 8b 04 24          	mov    (%rsp),%rax
            }
  2066f9:	48 83 c4 18          	add    $0x18,%rsp
  2066fd:	c3                   	retq   
  2066fe:	cc                   	int3   
  2066ff:	cc                   	int3   

0000000000206700 <_ZN4core3mem7replace17h73afdf1293179534E>:
#[inline]
#[stable(feature = "rust1", since = "1.0.0")]
#[must_use = "if you don't need the old value, you can just assign the new value directly"]
#[rustc_const_unstable(feature = "const_replace", issue = "83164")]
#[cfg_attr(not(test), rustc_diagnostic_item = "mem_replace")]
pub const fn replace<T>(dest: &mut T, src: T) -> T {
  206700:	48 83 ec 38          	sub    $0x38,%rsp
  206704:	48 89 74 24 08       	mov    %rsi,0x8(%rsp)
  206709:	48 89 7c 24 10       	mov    %rdi,0x10(%rsp)
  20670e:	48 89 7c 24 20       	mov    %rdi,0x20(%rsp)
  206713:	48 89 74 24 28       	mov    %rsi,0x28(%rsp)
    // SAFETY: We read from `dest` but directly write `src` into it afterwards,
    // such that the old value is not duplicated. Nothing is dropped and
    // nothing here can panic.
    unsafe {
        let result = ptr::read(dest);
  206718:	e8 23 4b 00 00       	callq  20b240 <_ZN4core3ptr4read17h3174a0a85995dc74E>
  20671d:	48 89 44 24 18       	mov    %rax,0x18(%rsp)
  206722:	48 89 44 24 30       	mov    %rax,0x30(%rsp)
  206727:	48 8b 74 24 08       	mov    0x8(%rsp),%rsi
  20672c:	48 8b 7c 24 10       	mov    0x10(%rsp),%rdi
        ptr::write(dest, src);
  206731:	e8 5a 4b 00 00       	callq  20b290 <_ZN4core3ptr5write17hb4ae5111637a2d49E>
  206736:	48 8b 44 24 18       	mov    0x18(%rsp),%rax
        result
    }
}
  20673b:	48 83 c4 38          	add    $0x38,%rsp
  20673f:	c3                   	retq   

0000000000206740 <_ZN4spin5mutex14Mutex$LT$T$GT$11obtain_lock17h2581c86e0c11bcbcE>:
    }
}

impl<T: ?Sized> Mutex<T>
{
    fn obtain_lock(&self)
  206740:	48 83 ec 28          	sub    $0x28,%rsp
  206744:	48 89 7c 24 10       	mov    %rdi,0x10(%rsp)
  206749:	48 89 7c 24 20       	mov    %rdi,0x20(%rsp)
  20674e:	48 8b 7c 24 10       	mov    0x10(%rsp),%rdi
    {
        while self.lock.compare_and_swap(false, true, Ordering::Acquire) != false
  206753:	c6 44 24 1e 02       	movb   $0x2,0x1e(%rsp)
  206758:	31 f6                	xor    %esi,%esi
  20675a:	ba 01 00 00 00       	mov    $0x1,%edx
  20675f:	0f b6 4c 24 1e       	movzbl 0x1e(%rsp),%ecx
  206764:	e8 d7 3d 00 00       	callq  20a540 <_ZN4core4sync6atomic10AtomicBool16compare_and_swap17h2284ade66790ed9bE>
  206769:	88 44 24 0f          	mov    %al,0xf(%rsp)
  20676d:	8a 44 24 0f          	mov    0xf(%rsp),%al
  206771:	a8 01                	test   $0x1,%al
  206773:	75 07                	jne    20677c <_ZN4spin5mutex14Mutex$LT$T$GT$11obtain_lock17h2581c86e0c11bcbcE+0x3c>
  206775:	eb 00                	jmp    206777 <_ZN4spin5mutex14Mutex$LT$T$GT$11obtain_lock17h2581c86e0c11bcbcE+0x37>
            while self.lock.load(Ordering::Relaxed)
            {
                cpu_relax();
            }
        }
    }
  206777:	48 83 c4 28          	add    $0x28,%rsp
  20677b:	c3                   	retq   
  20677c:	48 8b 7c 24 10       	mov    0x10(%rsp),%rdi
            while self.lock.load(Ordering::Relaxed)
  206781:	c6 44 24 1f 00       	movb   $0x0,0x1f(%rsp)
  206786:	0f b6 74 24 1f       	movzbl 0x1f(%rsp),%esi
  20678b:	e8 80 3f 00 00       	callq  20a710 <_ZN4core4sync6atomic10AtomicBool4load17h2c6e38e521bd9650E>
  206790:	88 44 24 0e          	mov    %al,0xe(%rsp)
  206794:	8a 44 24 0e          	mov    0xe(%rsp),%al
  206798:	a8 01                	test   $0x1,%al
  20679a:	75 02                	jne    20679e <_ZN4spin5mutex14Mutex$LT$T$GT$11obtain_lock17h2581c86e0c11bcbcE+0x5e>
  20679c:	eb b0                	jmp    20674e <_ZN4spin5mutex14Mutex$LT$T$GT$11obtain_lock17h2581c86e0c11bcbcE+0xe>
                cpu_relax();
  20679e:	e8 ad 41 00 00       	callq  20a950 <_ZN4core4sync6atomic14spin_loop_hint17h92421a221054ae95E>
  2067a3:	eb d7                	jmp    20677c <_ZN4spin5mutex14Mutex$LT$T$GT$11obtain_lock17h2581c86e0c11bcbcE+0x3c>
  2067a5:	cc                   	int3   
  2067a6:	cc                   	int3   
  2067a7:	cc                   	int3   
  2067a8:	cc                   	int3   
  2067a9:	cc                   	int3   
  2067aa:	cc                   	int3   
  2067ab:	cc                   	int3   
  2067ac:	cc                   	int3   
  2067ad:	cc                   	int3   
  2067ae:	cc                   	int3   
  2067af:	cc                   	int3   

00000000002067b0 <_ZN4spin5mutex14Mutex$LT$T$GT$11obtain_lock17h43185fa240c1f9acE>:
    fn obtain_lock(&self)
  2067b0:	48 83 ec 28          	sub    $0x28,%rsp
  2067b4:	48 89 7c 24 10       	mov    %rdi,0x10(%rsp)
  2067b9:	48 89 7c 24 20       	mov    %rdi,0x20(%rsp)
  2067be:	48 8b 7c 24 10       	mov    0x10(%rsp),%rdi
        while self.lock.compare_and_swap(false, true, Ordering::Acquire) != false
  2067c3:	c6 44 24 1e 02       	movb   $0x2,0x1e(%rsp)
  2067c8:	31 f6                	xor    %esi,%esi
  2067ca:	ba 01 00 00 00       	mov    $0x1,%edx
  2067cf:	0f b6 4c 24 1e       	movzbl 0x1e(%rsp),%ecx
  2067d4:	e8 67 3d 00 00       	callq  20a540 <_ZN4core4sync6atomic10AtomicBool16compare_and_swap17h2284ade66790ed9bE>
  2067d9:	88 44 24 0f          	mov    %al,0xf(%rsp)
  2067dd:	8a 44 24 0f          	mov    0xf(%rsp),%al
  2067e1:	a8 01                	test   $0x1,%al
  2067e3:	75 07                	jne    2067ec <_ZN4spin5mutex14Mutex$LT$T$GT$11obtain_lock17h43185fa240c1f9acE+0x3c>
  2067e5:	eb 00                	jmp    2067e7 <_ZN4spin5mutex14Mutex$LT$T$GT$11obtain_lock17h43185fa240c1f9acE+0x37>
    }
  2067e7:	48 83 c4 28          	add    $0x28,%rsp
  2067eb:	c3                   	retq   
  2067ec:	48 8b 7c 24 10       	mov    0x10(%rsp),%rdi
            while self.lock.load(Ordering::Relaxed)
  2067f1:	c6 44 24 1f 00       	movb   $0x0,0x1f(%rsp)
  2067f6:	0f b6 74 24 1f       	movzbl 0x1f(%rsp),%esi
  2067fb:	e8 10 3f 00 00       	callq  20a710 <_ZN4core4sync6atomic10AtomicBool4load17h2c6e38e521bd9650E>
  206800:	88 44 24 0e          	mov    %al,0xe(%rsp)
  206804:	8a 44 24 0e          	mov    0xe(%rsp),%al
  206808:	a8 01                	test   $0x1,%al
  20680a:	75 02                	jne    20680e <_ZN4spin5mutex14Mutex$LT$T$GT$11obtain_lock17h43185fa240c1f9acE+0x5e>
  20680c:	eb b0                	jmp    2067be <_ZN4spin5mutex14Mutex$LT$T$GT$11obtain_lock17h43185fa240c1f9acE+0xe>
                cpu_relax();
  20680e:	e8 3d 41 00 00       	callq  20a950 <_ZN4core4sync6atomic14spin_loop_hint17h92421a221054ae95E>
  206813:	eb d7                	jmp    2067ec <_ZN4spin5mutex14Mutex$LT$T$GT$11obtain_lock17h43185fa240c1f9acE+0x3c>
  206815:	cc                   	int3   
  206816:	cc                   	int3   
  206817:	cc                   	int3   
  206818:	cc                   	int3   
  206819:	cc                   	int3   
  20681a:	cc                   	int3   
  20681b:	cc                   	int3   
  20681c:	cc                   	int3   
  20681d:	cc                   	int3   
  20681e:	cc                   	int3   
  20681f:	cc                   	int3   

0000000000206820 <_ZN4spin5mutex14Mutex$LT$T$GT$11obtain_lock17h90978d024cd17780E>:
    fn obtain_lock(&self)
  206820:	48 83 ec 28          	sub    $0x28,%rsp
  206824:	48 89 7c 24 10       	mov    %rdi,0x10(%rsp)
  206829:	48 89 7c 24 20       	mov    %rdi,0x20(%rsp)
  20682e:	48 8b 7c 24 10       	mov    0x10(%rsp),%rdi
        while self.lock.compare_and_swap(false, true, Ordering::Acquire) != false
  206833:	c6 44 24 1e 02       	movb   $0x2,0x1e(%rsp)
  206838:	31 f6                	xor    %esi,%esi
  20683a:	ba 01 00 00 00       	mov    $0x1,%edx
  20683f:	0f b6 4c 24 1e       	movzbl 0x1e(%rsp),%ecx
  206844:	e8 f7 3c 00 00       	callq  20a540 <_ZN4core4sync6atomic10AtomicBool16compare_and_swap17h2284ade66790ed9bE>
  206849:	88 44 24 0f          	mov    %al,0xf(%rsp)
  20684d:	8a 44 24 0f          	mov    0xf(%rsp),%al
  206851:	a8 01                	test   $0x1,%al
  206853:	75 07                	jne    20685c <_ZN4spin5mutex14Mutex$LT$T$GT$11obtain_lock17h90978d024cd17780E+0x3c>
  206855:	eb 00                	jmp    206857 <_ZN4spin5mutex14Mutex$LT$T$GT$11obtain_lock17h90978d024cd17780E+0x37>
    }
  206857:	48 83 c4 28          	add    $0x28,%rsp
  20685b:	c3                   	retq   
  20685c:	48 8b 7c 24 10       	mov    0x10(%rsp),%rdi
            while self.lock.load(Ordering::Relaxed)
  206861:	c6 44 24 1f 00       	movb   $0x0,0x1f(%rsp)
  206866:	0f b6 74 24 1f       	movzbl 0x1f(%rsp),%esi
  20686b:	e8 a0 3e 00 00       	callq  20a710 <_ZN4core4sync6atomic10AtomicBool4load17h2c6e38e521bd9650E>
  206870:	88 44 24 0e          	mov    %al,0xe(%rsp)
  206874:	8a 44 24 0e          	mov    0xe(%rsp),%al
  206878:	a8 01                	test   $0x1,%al
  20687a:	75 02                	jne    20687e <_ZN4spin5mutex14Mutex$LT$T$GT$11obtain_lock17h90978d024cd17780E+0x5e>
  20687c:	eb b0                	jmp    20682e <_ZN4spin5mutex14Mutex$LT$T$GT$11obtain_lock17h90978d024cd17780E+0xe>
                cpu_relax();
  20687e:	e8 cd 40 00 00       	callq  20a950 <_ZN4core4sync6atomic14spin_loop_hint17h92421a221054ae95E>
  206883:	eb d7                	jmp    20685c <_ZN4spin5mutex14Mutex$LT$T$GT$11obtain_lock17h90978d024cd17780E+0x3c>
  206885:	cc                   	int3   
  206886:	cc                   	int3   
  206887:	cc                   	int3   
  206888:	cc                   	int3   
  206889:	cc                   	int3   
  20688a:	cc                   	int3   
  20688b:	cc                   	int3   
  20688c:	cc                   	int3   
  20688d:	cc                   	int3   
  20688e:	cc                   	int3   
  20688f:	cc                   	int3   

0000000000206890 <_ZN4spin5mutex14Mutex$LT$T$GT$3new17h1368181a5039d411E>:
    pub const fn new(user_data: T) -> Mutex<T>
  206890:	48 83 ec 78          	sub    $0x78,%rsp
  206894:	48 89 54 24 18       	mov    %rdx,0x18(%rsp)
  206899:	48 89 74 24 20       	mov    %rsi,0x20(%rsp)
  20689e:	48 89 7c 24 28       	mov    %rdi,0x28(%rsp)
  2068a3:	48 89 7c 24 30       	mov    %rdi,0x30(%rsp)
  2068a8:	48 89 74 24 40       	mov    %rsi,0x40(%rsp)
  2068ad:	48 89 54 24 48       	mov    %rdx,0x48(%rsp)
            lock: AtomicBool::new(false),
  2068b2:	31 ff                	xor    %edi,%edi
  2068b4:	e8 17 3e 00 00       	callq  20a6d0 <_ZN4core4sync6atomic10AtomicBool3new17h98a9ecabc8d0c764E>
  2068b9:	88 44 24 57          	mov    %al,0x57(%rsp)
  2068bd:	8a 44 24 57          	mov    0x57(%rsp),%al
  2068c1:	88 44 24 38          	mov    %al,0x38(%rsp)
  2068c5:	48 8b 44 24 18       	mov    0x18(%rsp),%rax
  2068ca:	48 8b 4c 24 20       	mov    0x20(%rsp),%rcx
  2068cf:	48 89 4c 24 68       	mov    %rcx,0x68(%rsp)
  2068d4:	48 89 44 24 70       	mov    %rax,0x70(%rsp)
    /// ```
    #[stable(feature = "rust1", since = "1.0.0")]
    #[rustc_const_stable(feature = "const_unsafe_cell_new", since = "1.32.0")]
    #[inline(always)]
    pub const fn new(value: T) -> UnsafeCell<T> {
        UnsafeCell { value }
  2068d9:	48 89 4c 24 58       	mov    %rcx,0x58(%rsp)
  2068de:	48 89 44 24 60       	mov    %rax,0x60(%rsp)
    }
  2068e3:	48 8b 44 24 58       	mov    0x58(%rsp),%rax
  2068e8:	48 89 44 24 08       	mov    %rax,0x8(%rsp)
  2068ed:	48 8b 44 24 60       	mov    0x60(%rsp),%rax
  2068f2:	48 89 44 24 10       	mov    %rax,0x10(%rsp)
  2068f7:	48 8b 44 24 30       	mov    0x30(%rsp),%rax
  2068fc:	48 8b 4c 24 28       	mov    0x28(%rsp),%rcx
  206901:	48 8b 54 24 10       	mov    0x10(%rsp),%rdx
  206906:	48 8b 74 24 08       	mov    0x8(%rsp),%rsi
        Mutex
  20690b:	40 8a 7c 24 38       	mov    0x38(%rsp),%dil
  206910:	40 88 39             	mov    %dil,(%rcx)
  206913:	48 89 71 08          	mov    %rsi,0x8(%rcx)
  206917:	48 89 51 10          	mov    %rdx,0x10(%rcx)
    }
  20691b:	48 83 c4 78          	add    $0x78,%rsp
  20691f:	c3                   	retq   

0000000000206920 <_ZN4spin5mutex14Mutex$LT$T$GT$3new17h278439292dab46e4E>:
    pub const fn new(user_data: T) -> Mutex<T>
  206920:	48 81 ec 38 30 00 00 	sub    $0x3038,%rsp
  206927:	48 89 34 24          	mov    %rsi,(%rsp)
  20692b:	48 89 7c 24 08       	mov    %rdi,0x8(%rsp)
  206930:	48 89 7c 24 10       	mov    %rdi,0x10(%rsp)
            lock: AtomicBool::new(false),
  206935:	31 ff                	xor    %edi,%edi
  206937:	e8 94 3d 00 00       	callq  20a6d0 <_ZN4core4sync6atomic10AtomicBool3new17h98a9ecabc8d0c764E>
  20693c:	88 84 24 2f 20 00 00 	mov    %al,0x202f(%rsp)
  206943:	8a 84 24 2f 20 00 00 	mov    0x202f(%rsp),%al
  20694a:	88 44 24 18          	mov    %al,0x18(%rsp)
  20694e:	48 8b 34 24          	mov    (%rsp),%rsi
            data: UnsafeCell::new(user_data),
  206952:	48 8d bc 24 20 10 00 	lea    0x1020(%rsp),%rdi
  206959:	00 
  20695a:	ba 00 10 00 00       	mov    $0x1000,%edx
  20695f:	e8 5c af 00 00       	callq  2118c0 <memcpy>
        UnsafeCell { value }
  206964:	48 8d bc 24 30 20 00 	lea    0x2030(%rsp),%rdi
  20696b:	00 
  20696c:	48 8d b4 24 20 10 00 	lea    0x1020(%rsp),%rsi
  206973:	00 
  206974:	ba 00 10 00 00       	mov    $0x1000,%edx
  206979:	e8 42 af 00 00       	callq  2118c0 <memcpy>
  20697e:	48 8d 7c 24 20       	lea    0x20(%rsp),%rdi
  206983:	48 8d b4 24 30 20 00 	lea    0x2030(%rsp),%rsi
  20698a:	00 
  20698b:	ba 00 10 00 00       	mov    $0x1000,%edx
  206990:	e8 2b af 00 00       	callq  2118c0 <memcpy>
  206995:	48 8b 7c 24 08       	mov    0x8(%rsp),%rdi
        Mutex
  20699a:	8a 44 24 18          	mov    0x18(%rsp),%al
  20699e:	88 07                	mov    %al,(%rdi)
  2069a0:	48 83 c7 10          	add    $0x10,%rdi
  2069a4:	48 8d 74 24 20       	lea    0x20(%rsp),%rsi
  2069a9:	ba 00 10 00 00       	mov    $0x1000,%edx
  2069ae:	e8 0d af 00 00       	callq  2118c0 <memcpy>
  2069b3:	48 8b 44 24 10       	mov    0x10(%rsp),%rax
    }
  2069b8:	48 81 c4 38 30 00 00 	add    $0x3038,%rsp
  2069bf:	c3                   	retq   

00000000002069c0 <_ZN4spin5mutex14Mutex$LT$T$GT$3new17h9c67aabfb8c12465E>:
    pub const fn new(user_data: T) -> Mutex<T>
  2069c0:	48 81 ec 88 00 00 00 	sub    $0x88,%rsp
  2069c7:	48 89 34 24          	mov    %rsi,(%rsp)
  2069cb:	48 89 7c 24 08       	mov    %rdi,0x8(%rsp)
  2069d0:	48 89 7c 24 10       	mov    %rdi,0x10(%rsp)
            lock: AtomicBool::new(false),
  2069d5:	31 ff                	xor    %edi,%edi
  2069d7:	e8 f4 3c 00 00       	callq  20a6d0 <_ZN4core4sync6atomic10AtomicBool3new17h98a9ecabc8d0c764E>
  2069dc:	88 44 24 67          	mov    %al,0x67(%rsp)
  2069e0:	8a 44 24 67          	mov    0x67(%rsp),%al
  2069e4:	88 44 24 18          	mov    %al,0x18(%rsp)
  2069e8:	48 8b 04 24          	mov    (%rsp),%rax
            data: UnsafeCell::new(user_data),
  2069ec:	48 8b 08             	mov    (%rax),%rcx
  2069ef:	48 89 4c 24 40       	mov    %rcx,0x40(%rsp)
  2069f4:	48 8b 48 08          	mov    0x8(%rax),%rcx
  2069f8:	48 89 4c 24 48       	mov    %rcx,0x48(%rsp)
  2069fd:	48 8b 48 10          	mov    0x10(%rax),%rcx
  206a01:	48 89 4c 24 50       	mov    %rcx,0x50(%rsp)
  206a06:	48 8b 40 18          	mov    0x18(%rax),%rax
  206a0a:	48 89 44 24 58       	mov    %rax,0x58(%rsp)
  206a0f:	48 8b 44 24 40       	mov    0x40(%rsp),%rax
  206a14:	48 89 44 24 68       	mov    %rax,0x68(%rsp)
  206a19:	48 8b 44 24 48       	mov    0x48(%rsp),%rax
  206a1e:	48 89 44 24 70       	mov    %rax,0x70(%rsp)
  206a23:	48 8b 44 24 50       	mov    0x50(%rsp),%rax
  206a28:	48 89 44 24 78       	mov    %rax,0x78(%rsp)
  206a2d:	48 8b 44 24 58       	mov    0x58(%rsp),%rax
  206a32:	48 89 84 24 80 00 00 	mov    %rax,0x80(%rsp)
  206a39:	00 
  206a3a:	48 8b 44 24 68       	mov    0x68(%rsp),%rax
  206a3f:	48 89 44 24 20       	mov    %rax,0x20(%rsp)
  206a44:	48 8b 44 24 70       	mov    0x70(%rsp),%rax
  206a49:	48 89 44 24 28       	mov    %rax,0x28(%rsp)
  206a4e:	48 8b 44 24 78       	mov    0x78(%rsp),%rax
  206a53:	48 89 44 24 30       	mov    %rax,0x30(%rsp)
  206a58:	48 8b 84 24 80 00 00 	mov    0x80(%rsp),%rax
  206a5f:	00 
  206a60:	48 89 44 24 38       	mov    %rax,0x38(%rsp)
  206a65:	48 8b 44 24 10       	mov    0x10(%rsp),%rax
  206a6a:	48 8b 4c 24 08       	mov    0x8(%rsp),%rcx
        Mutex
  206a6f:	8a 54 24 18          	mov    0x18(%rsp),%dl
  206a73:	88 11                	mov    %dl,(%rcx)
  206a75:	48 8b 54 24 20       	mov    0x20(%rsp),%rdx
  206a7a:	48 89 51 08          	mov    %rdx,0x8(%rcx)
  206a7e:	48 8b 54 24 28       	mov    0x28(%rsp),%rdx
  206a83:	48 89 51 10          	mov    %rdx,0x10(%rcx)
  206a87:	48 8b 54 24 30       	mov    0x30(%rsp),%rdx
  206a8c:	48 89 51 18          	mov    %rdx,0x18(%rcx)
  206a90:	48 8b 54 24 38       	mov    0x38(%rsp),%rdx
  206a95:	48 89 51 20          	mov    %rdx,0x20(%rcx)
    }
  206a99:	48 81 c4 88 00 00 00 	add    $0x88,%rsp
  206aa0:	c3                   	retq   
  206aa1:	cc                   	int3   
  206aa2:	cc                   	int3   
  206aa3:	cc                   	int3   
  206aa4:	cc                   	int3   
  206aa5:	cc                   	int3   
  206aa6:	cc                   	int3   
  206aa7:	cc                   	int3   
  206aa8:	cc                   	int3   
  206aa9:	cc                   	int3   
  206aaa:	cc                   	int3   
  206aab:	cc                   	int3   
  206aac:	cc                   	int3   
  206aad:	cc                   	int3   
  206aae:	cc                   	int3   
  206aaf:	cc                   	int3   

0000000000206ab0 <_ZN4spin5mutex14Mutex$LT$T$GT$4lock17h2d82f46c320cde4bE>:
    ///     *data += 1;
    ///     // The lock is implicitly dropped
    /// }
    ///
    /// ```
    pub fn lock(&self) -> MutexGuard<T>
  206ab0:	48 83 ec 38          	sub    $0x38,%rsp
  206ab4:	48 89 7c 24 10       	mov    %rdi,0x10(%rsp)
  206ab9:	48 89 7c 24 28       	mov    %rdi,0x28(%rsp)
    {
        self.obtain_lock();
  206abe:	e8 5d fd ff ff       	callq  206820 <_ZN4spin5mutex14Mutex$LT$T$GT$11obtain_lock17h90978d024cd17780E>
  206ac3:	48 8b 44 24 10       	mov    0x10(%rsp),%rax
        MutexGuard
        {
            lock: &self.lock,
  206ac8:	48 89 c1             	mov    %rax,%rcx
  206acb:	48 89 0c 24          	mov    %rcx,(%rsp)
            data: unsafe { &mut *self.data.get() },
  206acf:	48 83 c0 10          	add    $0x10,%rax
  206ad3:	48 89 44 24 30       	mov    %rax,0x30(%rsp)
  206ad8:	48 89 44 24 08       	mov    %rax,0x8(%rsp)
  206add:	48 8b 44 24 08       	mov    0x8(%rsp),%rax
  206ae2:	48 8b 0c 24          	mov    (%rsp),%rcx
        MutexGuard
  206ae6:	48 89 4c 24 18       	mov    %rcx,0x18(%rsp)
  206aeb:	48 89 44 24 20       	mov    %rax,0x20(%rsp)
        }
    }
  206af0:	48 8b 44 24 18       	mov    0x18(%rsp),%rax
  206af5:	48 8b 54 24 20       	mov    0x20(%rsp),%rdx
  206afa:	48 83 c4 38          	add    $0x38,%rsp
  206afe:	c3                   	retq   
  206aff:	cc                   	int3   

0000000000206b00 <_ZN4spin5mutex14Mutex$LT$T$GT$4lock17h4ccc519c0d0de437E>:
    pub fn lock(&self) -> MutexGuard<T>
  206b00:	48 83 ec 38          	sub    $0x38,%rsp
  206b04:	48 89 7c 24 10       	mov    %rdi,0x10(%rsp)
  206b09:	48 89 7c 24 28       	mov    %rdi,0x28(%rsp)
        self.obtain_lock();
  206b0e:	e8 9d fc ff ff       	callq  2067b0 <_ZN4spin5mutex14Mutex$LT$T$GT$11obtain_lock17h43185fa240c1f9acE>
  206b13:	48 8b 44 24 10       	mov    0x10(%rsp),%rax
            lock: &self.lock,
  206b18:	48 89 c1             	mov    %rax,%rcx
  206b1b:	48 89 0c 24          	mov    %rcx,(%rsp)
            data: unsafe { &mut *self.data.get() },
  206b1f:	48 83 c0 08          	add    $0x8,%rax
  206b23:	48 89 44 24 08       	mov    %rax,0x8(%rsp)
  206b28:	48 89 44 24 30       	mov    %rax,0x30(%rsp)
  206b2d:	48 8b 44 24 08       	mov    0x8(%rsp),%rax
  206b32:	48 8b 0c 24          	mov    (%rsp),%rcx
        MutexGuard
  206b36:	48 89 4c 24 18       	mov    %rcx,0x18(%rsp)
  206b3b:	48 89 44 24 20       	mov    %rax,0x20(%rsp)
    }
  206b40:	48 8b 44 24 18       	mov    0x18(%rsp),%rax
  206b45:	48 8b 54 24 20       	mov    0x20(%rsp),%rdx
  206b4a:	48 83 c4 38          	add    $0x38,%rsp
  206b4e:	c3                   	retq   
  206b4f:	cc                   	int3   

0000000000206b50 <_ZN4spin5mutex14Mutex$LT$T$GT$4lock17hec36eaefd6fec6a2E>:
    pub fn lock(&self) -> MutexGuard<T>
  206b50:	48 83 ec 38          	sub    $0x38,%rsp
  206b54:	48 89 7c 24 10       	mov    %rdi,0x10(%rsp)
  206b59:	48 89 7c 24 28       	mov    %rdi,0x28(%rsp)
        self.obtain_lock();
  206b5e:	e8 dd fb ff ff       	callq  206740 <_ZN4spin5mutex14Mutex$LT$T$GT$11obtain_lock17h2581c86e0c11bcbcE>
  206b63:	48 8b 44 24 10       	mov    0x10(%rsp),%rax
            lock: &self.lock,
  206b68:	48 89 c1             	mov    %rax,%rcx
  206b6b:	48 89 0c 24          	mov    %rcx,(%rsp)
            data: unsafe { &mut *self.data.get() },
  206b6f:	48 83 c0 08          	add    $0x8,%rax
  206b73:	48 89 44 24 30       	mov    %rax,0x30(%rsp)
  206b78:	48 89 44 24 08       	mov    %rax,0x8(%rsp)
  206b7d:	48 8b 44 24 08       	mov    0x8(%rsp),%rax
  206b82:	48 8b 0c 24          	mov    (%rsp),%rcx
        MutexGuard
  206b86:	48 89 4c 24 18       	mov    %rcx,0x18(%rsp)
  206b8b:	48 89 44 24 20       	mov    %rax,0x20(%rsp)
    }
  206b90:	48 8b 44 24 18       	mov    0x18(%rsp),%rax
  206b95:	48 8b 54 24 20       	mov    0x20(%rsp),%rdx
  206b9a:	48 83 c4 38          	add    $0x38,%rsp
  206b9e:	c3                   	retq   
  206b9f:	cc                   	int3   

0000000000206ba0 <_ZN76_$LT$spin..mutex..MutexGuard$LT$T$GT$$u20$as$u20$core..ops..deref..Deref$GT$5deref17h6438e4ee6feea27dE>:
}

impl<'a, T: ?Sized> Deref for MutexGuard<'a, T>
{
    type Target = T;
    fn deref<'b>(&'b self) -> &'b T { &*self.data }
  206ba0:	50                   	push   %rax
  206ba1:	48 89 3c 24          	mov    %rdi,(%rsp)
  206ba5:	48 8b 47 08          	mov    0x8(%rdi),%rax
  206ba9:	59                   	pop    %rcx
  206baa:	c3                   	retq   
  206bab:	cc                   	int3   
  206bac:	cc                   	int3   
  206bad:	cc                   	int3   
  206bae:	cc                   	int3   
  206baf:	cc                   	int3   

0000000000206bb0 <_ZN76_$LT$spin..mutex..MutexGuard$LT$T$GT$$u20$as$u20$core..ops..deref..Deref$GT$5deref17h7e8efa7287244e89E>:
  206bb0:	50                   	push   %rax
  206bb1:	48 89 3c 24          	mov    %rdi,(%rsp)
  206bb5:	48 8b 47 08          	mov    0x8(%rdi),%rax
  206bb9:	59                   	pop    %rcx
  206bba:	c3                   	retq   
  206bbb:	cc                   	int3   
  206bbc:	cc                   	int3   
  206bbd:	cc                   	int3   
  206bbe:	cc                   	int3   
  206bbf:	cc                   	int3   

0000000000206bc0 <_ZN79_$LT$spin..mutex..MutexGuard$LT$T$GT$$u20$as$u20$core..ops..deref..DerefMut$GT$9deref_mut17h20776941560deab6E>:
}

impl<'a, T: ?Sized> DerefMut for MutexGuard<'a, T>
{
    fn deref_mut<'b>(&'b mut self) -> &'b mut T { &mut *self.data }
  206bc0:	50                   	push   %rax
  206bc1:	48 89 3c 24          	mov    %rdi,(%rsp)
  206bc5:	48 8b 47 08          	mov    0x8(%rdi),%rax
  206bc9:	59                   	pop    %rcx
  206bca:	c3                   	retq   
  206bcb:	cc                   	int3   
  206bcc:	cc                   	int3   
  206bcd:	cc                   	int3   
  206bce:	cc                   	int3   
  206bcf:	cc                   	int3   

0000000000206bd0 <_ZN79_$LT$spin..mutex..MutexGuard$LT$T$GT$$u20$as$u20$core..ops..deref..DerefMut$GT$9deref_mut17h54ef8133560726b4E>:
  206bd0:	50                   	push   %rax
  206bd1:	48 89 3c 24          	mov    %rdi,(%rsp)
  206bd5:	48 8b 47 08          	mov    0x8(%rdi),%rax
  206bd9:	59                   	pop    %rcx
  206bda:	c3                   	retq   
  206bdb:	cc                   	int3   
  206bdc:	cc                   	int3   
  206bdd:	cc                   	int3   
  206bde:	cc                   	int3   
  206bdf:	cc                   	int3   

0000000000206be0 <_ZN4core3fmt5Write10write_char17h9bab67b7f6efb3c7E>:
    fn write_char(&mut self, c: char) -> Result {
  206be0:	48 83 ec 48          	sub    $0x48,%rsp
  206be4:	89 74 24 1c          	mov    %esi,0x1c(%rsp)
  206be8:	48 89 7c 24 10       	mov    %rdi,0x10(%rsp)
  206bed:	48 89 7c 24 38       	mov    %rdi,0x38(%rsp)
  206bf2:	89 74 24 44          	mov    %esi,0x44(%rsp)
        self.write_str(c.encode_utf8(&mut [0; 4]))
  206bf6:	48 8d 7c 24 34       	lea    0x34(%rsp),%rdi
  206bfb:	31 f6                	xor    %esi,%esi
  206bfd:	ba 04 00 00 00       	mov    $0x4,%edx
  206c02:	e8 d9 ac 00 00       	callq  2118e0 <memset>
  206c07:	8b 7c 24 1c          	mov    0x1c(%rsp),%edi
  206c0b:	48 8d 74 24 34       	lea    0x34(%rsp),%rsi
  206c10:	ba 04 00 00 00       	mov    $0x4,%edx
  206c15:	e8 66 2c 00 00       	callq  209880 <_ZN4core4char7methods22_$LT$impl$u20$char$GT$11encode_utf817ha8814ecebb05de4fE>
  206c1a:	48 89 44 24 20       	mov    %rax,0x20(%rsp)
  206c1f:	48 89 54 24 28       	mov    %rdx,0x28(%rsp)
  206c24:	48 8b 54 24 28       	mov    0x28(%rsp),%rdx
  206c29:	48 8b 74 24 20       	mov    0x20(%rsp),%rsi
  206c2e:	48 8b 7c 24 10       	mov    0x10(%rsp),%rdi
  206c33:	e8 18 31 00 00       	callq  209d50 <_ZN67_$LT$r3_kernel..drivers..uart..UART$u20$as$u20$core..fmt..Write$GT$9write_str17h6dd3433d3a1bef49E>
  206c38:	88 44 24 0f          	mov    %al,0xf(%rsp)
  206c3c:	8a 44 24 0f          	mov    0xf(%rsp),%al
    }
  206c40:	24 01                	and    $0x1,%al
  206c42:	0f b6 c0             	movzbl %al,%eax
  206c45:	48 83 c4 48          	add    $0x48,%rsp
  206c49:	c3                   	retq   
  206c4a:	cc                   	int3   
  206c4b:	cc                   	int3   
  206c4c:	cc                   	int3   
  206c4d:	cc                   	int3   
  206c4e:	cc                   	int3   
  206c4f:	cc                   	int3   

0000000000206c50 <_ZN4core3fmt5Write9write_fmt17ha4961bdedbae3b7aE>:
    fn write_fmt(mut self: &mut Self, args: Arguments<'_>) -> Result {
  206c50:	48 83 ec 48          	sub    $0x48,%rsp
  206c54:	48 89 7c 24 10       	mov    %rdi,0x10(%rsp)
        write(&mut self, args)
  206c59:	48 8d 44 24 10       	lea    0x10(%rsp),%rax
  206c5e:	48 89 04 24          	mov    %rax,(%rsp)
  206c62:	48 8d 7c 24 18       	lea    0x18(%rsp),%rdi
  206c67:	ba 30 00 00 00       	mov    $0x30,%edx
  206c6c:	e8 4f ac 00 00       	callq  2118c0 <memcpy>
  206c71:	48 8b 3c 24          	mov    (%rsp),%rdi
  206c75:	48 8d 35 74 c2 00 00 	lea    0xc274(%rip),%rsi        # 212ef0 <memset+0x1610>
  206c7c:	48 8d 54 24 18       	lea    0x18(%rsp),%rdx
  206c81:	e8 ba 96 00 00       	callq  210340 <_ZN4core3fmt5write17hc2fa65ca5f6f7fcfE>
  206c86:	88 44 24 0f          	mov    %al,0xf(%rsp)
  206c8a:	8a 44 24 0f          	mov    0xf(%rsp),%al
    }
  206c8e:	24 01                	and    $0x1,%al
  206c90:	0f b6 c0             	movzbl %al,%eax
  206c93:	48 83 c4 48          	add    $0x48,%rsp
  206c97:	c3                   	retq   
  206c98:	cc                   	int3   
  206c99:	cc                   	int3   
  206c9a:	cc                   	int3   
  206c9b:	cc                   	int3   
  206c9c:	cc                   	int3   
  206c9d:	cc                   	int3   
  206c9e:	cc                   	int3   
  206c9f:	cc                   	int3   

0000000000206ca0 <_ZN50_$LT$$RF$mut$u20$W$u20$as$u20$core..fmt..Write$GT$10write_char17hf2c80c0b89e9db1aE>:
    fn write_char(&mut self, c: char) -> Result {
  206ca0:	48 83 ec 18          	sub    $0x18,%rsp
  206ca4:	48 89 7c 24 08       	mov    %rdi,0x8(%rsp)
  206ca9:	89 74 24 14          	mov    %esi,0x14(%rsp)
        (**self).write_char(c)
  206cad:	48 8b 3f             	mov    (%rdi),%rdi
  206cb0:	e8 2b ff ff ff       	callq  206be0 <_ZN4core3fmt5Write10write_char17h9bab67b7f6efb3c7E>
  206cb5:	88 44 24 07          	mov    %al,0x7(%rsp)
  206cb9:	8a 44 24 07          	mov    0x7(%rsp),%al
    }
  206cbd:	24 01                	and    $0x1,%al
  206cbf:	0f b6 c0             	movzbl %al,%eax
  206cc2:	48 83 c4 18          	add    $0x18,%rsp
  206cc6:	c3                   	retq   
  206cc7:	cc                   	int3   
  206cc8:	cc                   	int3   
  206cc9:	cc                   	int3   
  206cca:	cc                   	int3   
  206ccb:	cc                   	int3   
  206ccc:	cc                   	int3   
  206ccd:	cc                   	int3   
  206cce:	cc                   	int3   
  206ccf:	cc                   	int3   

0000000000206cd0 <_ZN50_$LT$$RF$mut$u20$W$u20$as$u20$core..fmt..Write$GT$9write_fmt17h1a9ff4cd2b830013E>:
    fn write_fmt(&mut self, args: Arguments<'_>) -> Result {
  206cd0:	48 83 ec 48          	sub    $0x48,%rsp
  206cd4:	48 89 7c 24 40       	mov    %rdi,0x40(%rsp)
        (**self).write_fmt(args)
  206cd9:	48 8b 07             	mov    (%rdi),%rax
  206cdc:	48 89 04 24          	mov    %rax,(%rsp)
  206ce0:	48 8d 7c 24 10       	lea    0x10(%rsp),%rdi
  206ce5:	ba 30 00 00 00       	mov    $0x30,%edx
  206cea:	e8 d1 ab 00 00       	callq  2118c0 <memcpy>
  206cef:	48 8b 3c 24          	mov    (%rsp),%rdi
  206cf3:	48 8d 74 24 10       	lea    0x10(%rsp),%rsi
  206cf8:	e8 53 ff ff ff       	callq  206c50 <_ZN4core3fmt5Write9write_fmt17ha4961bdedbae3b7aE>
  206cfd:	88 44 24 0f          	mov    %al,0xf(%rsp)
  206d01:	8a 44 24 0f          	mov    0xf(%rsp),%al
    }
  206d05:	24 01                	and    $0x1,%al
  206d07:	0f b6 c0             	movzbl %al,%eax
  206d0a:	48 83 c4 48          	add    $0x48,%rsp
  206d0e:	c3                   	retq   
  206d0f:	cc                   	int3   

0000000000206d10 <_ZN50_$LT$$RF$mut$u20$W$u20$as$u20$core..fmt..Write$GT$9write_str17h5f230e53c2aa2cf4E>:
    fn write_str(&mut self, s: &str) -> Result {
  206d10:	48 83 ec 28          	sub    $0x28,%rsp
  206d14:	48 89 7c 24 10       	mov    %rdi,0x10(%rsp)
  206d19:	48 89 74 24 18       	mov    %rsi,0x18(%rsp)
  206d1e:	48 89 54 24 20       	mov    %rdx,0x20(%rsp)
        (**self).write_str(s)
  206d23:	48 8b 3f             	mov    (%rdi),%rdi
  206d26:	e8 25 30 00 00       	callq  209d50 <_ZN67_$LT$r3_kernel..drivers..uart..UART$u20$as$u20$core..fmt..Write$GT$9write_str17h6dd3433d3a1bef49E>
  206d2b:	88 44 24 0f          	mov    %al,0xf(%rsp)
  206d2f:	8a 44 24 0f          	mov    0xf(%rsp),%al
    }
  206d33:	24 01                	and    $0x1,%al
  206d35:	0f b6 c0             	movzbl %al,%eax
  206d38:	48 83 c4 28          	add    $0x28,%rsp
  206d3c:	c3                   	retq   
  206d3d:	cc                   	int3   
  206d3e:	cc                   	int3   
  206d3f:	cc                   	int3   

0000000000206d40 <_ZN4core3fmt3num50_$LT$impl$u20$core..fmt..Debug$u20$for$u20$u64$GT$3fmt17hfe775e20a83bc342E>:
macro_rules! debug {
    ($($T:ident)*) => {$(
        #[stable(feature = "rust1", since = "1.0.0")]
        impl fmt::Debug for $T {
            #[inline]
            fn fmt(&self, f: &mut fmt::Formatter<'_>) -> fmt::Result {
  206d40:	48 83 ec 38          	sub    $0x38,%rsp
  206d44:	48 89 74 24 10       	mov    %rsi,0x10(%rsp)
  206d49:	48 89 f8             	mov    %rdi,%rax
  206d4c:	48 8b 7c 24 10       	mov    0x10(%rsp),%rdi
  206d51:	48 89 44 24 18       	mov    %rax,0x18(%rsp)
  206d56:	48 89 44 24 28       	mov    %rax,0x28(%rsp)
  206d5b:	48 89 7c 24 30       	mov    %rdi,0x30(%rsp)
                if f.debug_lower_hex() {
  206d60:	e8 db 9f 00 00       	callq  210d40 <_ZN4core3fmt9Formatter15debug_lower_hex17hb64b59229092e7f9E>
  206d65:	88 44 24 26          	mov    %al,0x26(%rsp)
  206d69:	8a 44 24 26          	mov    0x26(%rsp),%al
  206d6d:	a8 01                	test   $0x1,%al
  206d6f:	75 12                	jne    206d83 <_ZN4core3fmt3num50_$LT$impl$u20$core..fmt..Debug$u20$for$u20$u64$GT$3fmt17hfe775e20a83bc342E+0x43>
  206d71:	eb 00                	jmp    206d73 <_ZN4core3fmt3num50_$LT$impl$u20$core..fmt..Debug$u20$for$u20$u64$GT$3fmt17hfe775e20a83bc342E+0x33>
  206d73:	48 8b 7c 24 10       	mov    0x10(%rsp),%rdi
                    fmt::LowerHex::fmt(self, f)
                } else if f.debug_upper_hex() {
  206d78:	e8 d3 9f 00 00       	callq  210d50 <_ZN4core3fmt9Formatter15debug_upper_hex17h1791008eaa6156e8E>
  206d7d:	88 44 24 0f          	mov    %al,0xf(%rsp)
  206d81:	eb 25                	jmp    206da8 <_ZN4core3fmt3num50_$LT$impl$u20$core..fmt..Debug$u20$for$u20$u64$GT$3fmt17hfe775e20a83bc342E+0x68>
  206d83:	48 8b 74 24 10       	mov    0x10(%rsp),%rsi
